Archive member included to satisfy reference by file (symbol)

/opt/microchip/xc8/v2.10/avr/bin/../lib/gcc/avr/5.4.0/avrxmega3/libgcc.a(_udivmodqi4.o)
                              dist/AWS_IOT/production/__pa_temp_4543/socket.o (__udivmodqi4)
/opt/microchip/xc8/v2.10/avr/bin/../lib/gcc/avr/5.4.0/avrxmega3/libgcc.a(_udivmodhi4.o)
                              dist/AWS_IOT/production/__pa_temp_4543/atcacert_def.o (__udivmodhi4)
/opt/microchip/xc8/v2.10/avr/bin/../lib/gcc/avr/5.4.0/avrxmega3/libgcc.a(_divmodhi4.o)
                              dist/AWS_IOT/production/__pa_temp_4543/atcacert_client.o (__divmodhi4)
/opt/microchip/xc8/v2.10/avr/bin/../lib/gcc/avr/5.4.0/avrxmega3/libgcc.a(_udivmodsi4.o)
                              dist/AWS_IOT/production/__pa_temp_4543/atcacert_date.o (__udivmodsi4)
/opt/microchip/xc8/v2.10/avr/bin/../lib/gcc/avr/5.4.0/avrxmega3/libgcc.a(_divmodsi4.o)
                              dist/AWS_IOT/production/__pa_temp_4543/sensors_handling.o (__divmodsi4)
/opt/microchip/xc8/v2.10/avr/bin/../lib/gcc/avr/5.4.0/avrxmega3/libgcc.a(_exit.o)
                              /opt/microchip/mplabx/v5.30/packs/Microchip/ATmega_DFP/2.0.12/gcc/dev/atmega4808/avrxmega3/crtatmega4808.o (exit)
/opt/microchip/xc8/v2.10/avr/bin/../lib/gcc/avr/5.4.0/avrxmega3/libgcc.a(_tablejump2.o)
                              dist/AWS_IOT/production/__pa_temp_4543/atcacert_def.o (__tablejump2__)
/opt/microchip/xc8/v2.10/avr/bin/../lib/gcc/avr/5.4.0/avrxmega3/libgcc.a(_copy_data.o)
                              dist/AWS_IOT/production/__pa_temp_4543/cli.o (__do_copy_data)
/opt/microchip/xc8/v2.10/avr/bin/../lib/gcc/avr/5.4.0/avrxmega3/libgcc.a(_bswapsi2.o)
                              dist/AWS_IOT/production/__pa_temp_4543/atcacert_date.o (__bswapsi2)
/opt/microchip/xc8/v2.10/avr/bin/../lib/gcc/avr/5.4.0/avrxmega3/libgcc.a(_umulhisi3.o)
                              dist/AWS_IOT/production/__pa_temp_4543/mqtt_core.o (__umulhisi3)
/opt/microchip/xc8/v2.10/avr/bin/../lib/gcc/avr/5.4.0/avrxmega3/libgcc.a(_usmulhisi3.o)
                              dist/AWS_IOT/production/__pa_temp_4543/atcacert_date.o (__usmulhisi3)
/opt/microchip/xc8/v2.10/avr/bin/../lib/gcc/avr/5.4.0/avrxmega3/libgcc.a(_muluhisi3.o)
                              dist/AWS_IOT/production/__pa_temp_4543/atcacert_date.o (__muluhisi3)
/opt/microchip/xc8/v2.10/avr/bin/../lib/gcc/avr/5.4.0/avrxmega3/libgcc.a(_mulshisi3.o)
                              dist/AWS_IOT/production/__pa_temp_4543/atcacert_date.o (__mulshisi3)
/opt/microchip/xc8/v2.10/avr/bin/../lib/gcc/avr/5.4.0/../../../../avr/lib/avrxmega3/libc.a(atoi_M.o)
                              dist/AWS_IOT/production/__pa_temp_4543/cli.o (atoi)
/opt/microchip/xc8/v2.10/avr/bin/../lib/gcc/avr/5.4.0/../../../../avr/lib/avrxmega3/libc.a(tolower.o)
                              dist/AWS_IOT/production/__pa_temp_4543/atca_helpers.o (tolower)
/opt/microchip/xc8/v2.10/avr/bin/../lib/gcc/avr/5.4.0/../../../../avr/lib/avrxmega3/libc.a(toupper.o)
                              dist/AWS_IOT/production/__pa_temp_4543/atca_helpers.o (toupper)
/opt/microchip/xc8/v2.10/avr/bin/../lib/gcc/avr/5.4.0/../../../../avr/lib/avrxmega3/libc.a(strtok.o)
                              dist/AWS_IOT/production/__pa_temp_4543/cli.o (strtok)
/opt/microchip/xc8/v2.10/avr/bin/../lib/gcc/avr/5.4.0/../../../../avr/lib/avrxmega3/libc.a(memcmp.o)
                              dist/AWS_IOT/production/__pa_temp_4543/mqtt_service.o (memcmp)
/opt/microchip/xc8/v2.10/avr/bin/../lib/gcc/avr/5.4.0/../../../../avr/lib/avrxmega3/libc.a(memcpy.o)
                              dist/AWS_IOT/production/__pa_temp_4543/atcacert_client.o (memcpy)
/opt/microchip/xc8/v2.10/avr/bin/../lib/gcc/avr/5.4.0/../../../../avr/lib/avrxmega3/libc.a(memmove.o)
                              dist/AWS_IOT/production/__pa_temp_4543/atcacert_client.o (memmove)
/opt/microchip/xc8/v2.10/avr/bin/../lib/gcc/avr/5.4.0/../../../../avr/lib/avrxmega3/libc.a(memset.o)
                              dist/AWS_IOT/production/__pa_temp_4543/atcacert_def.o (memset)
/opt/microchip/xc8/v2.10/avr/bin/../lib/gcc/avr/5.4.0/../../../../avr/lib/avrxmega3/libc.a(strchr.o)
                              dist/AWS_IOT/production/__pa_temp_4543/cli.o (strchr)
/opt/microchip/xc8/v2.10/avr/bin/../lib/gcc/avr/5.4.0/../../../../avr/lib/avrxmega3/libc.a(strcmp.o)
                              dist/AWS_IOT/production/__pa_temp_4543/cli.o (strcmp)
/opt/microchip/xc8/v2.10/avr/bin/../lib/gcc/avr/5.4.0/../../../../avr/lib/avrxmega3/libc.a(strcpy.o)
                              dist/AWS_IOT/production/__pa_temp_4543/cli.o (strcpy)
/opt/microchip/xc8/v2.10/avr/bin/../lib/gcc/avr/5.4.0/../../../../avr/lib/avrxmega3/libc.a(strncmp.o)
                              dist/AWS_IOT/production/__pa_temp_4543/wifi_service.o (strncmp)
/opt/microchip/xc8/v2.10/avr/bin/../lib/gcc/avr/5.4.0/../../../../avr/lib/avrxmega3/libc.a(strncpy.o)
                              dist/AWS_IOT/production/__pa_temp_4543/cli.o (strncpy)
/opt/microchip/xc8/v2.10/avr/bin/../lib/gcc/avr/5.4.0/../../../../avr/lib/avrxmega3/libc.a(strstr.o)
                              dist/AWS_IOT/production/__pa_temp_4543/atcacert_pem.o (strstr)
/opt/microchip/xc8/v2.10/avr/bin/../lib/gcc/avr/5.4.0/../../../../avr/lib/avrxmega3/libc.a(strtok_r.o)
                              /opt/microchip/xc8/v2.10/avr/bin/../lib/gcc/avr/5.4.0/../../../../avr/lib/avrxmega3/libc.a(strtok.o) (strtok_r)
/opt/microchip/xc8/v2.10/avr/bin/../lib/gcc/avr/5.4.0/../../../../avr/lib/avrxmega3/libc.a(mulsi10.o)
                              dist/AWS_IOT/production/__pa_temp_4543/libc_a_atol.o (__mulsi_const_10)
/opt/microchip/xc8/v2.10/avr/bin/../lib/gcc/avr/5.4.0/../../../../avr/lib/avrxmega3/libc.a(iob.o)
                              dist/AWS_IOT/production/__pa_temp_4543/libc_a_puts.o (__iob)
/opt/microchip/xc8/v2.10/avr/bin/../lib/gcc/avr/5.4.0/../../../../avr/lib/avrxmega3/libc.a(printf.o)
                              dist/AWS_IOT/production/__pa_temp_4543/cli.o (printf)
/opt/microchip/xc8/v2.10/avr/bin/../lib/gcc/avr/5.4.0/../../../../avr/lib/avrxmega3/libc.a(snprintf.o)
                              dist/AWS_IOT/production/__pa_temp_4543/atca_jwt.o (snprintf)
/opt/microchip/xc8/v2.10/avr/bin/../lib/gcc/avr/5.4.0/../../../../avr/lib/avrxmega3/libc.a(sprintf.o)
                              dist/AWS_IOT/production/__pa_temp_4543/cli.o (sprintf)
/opt/microchip/xc8/v2.10/avr/bin/../lib/gcc/avr/5.4.0/../../../../avr/lib/avrxmega3/libc.a(vprintf.o)
                              dist/AWS_IOT/production/__pa_temp_4543/debug_print.o (vprintf)
/opt/microchip/xc8/v2.10/avr/bin/../lib/gcc/avr/5.4.0/../../../../avr/lib/avrxmega3/libc.a(ctime.o)
                              dist/AWS_IOT/production/__pa_temp_4543/time_service.o (ctime)
/opt/microchip/xc8/v2.10/avr/bin/../lib/gcc/avr/5.4.0/../../../../avr/lib/avrxmega3/libc.a(difftime.o)
                              dist/AWS_IOT/production/__pa_temp_4543/time_service.o (difftime)
/opt/microchip/xc8/v2.10/avr/bin/../lib/gcc/avr/5.4.0/../../../../avr/lib/avrxmega3/libc.a(localtime_r.o)
                              /opt/microchip/xc8/v2.10/avr/bin/../lib/gcc/avr/5.4.0/../../../../avr/lib/avrxmega3/libc.a(ctime.o) (localtime_r)
/opt/microchip/xc8/v2.10/avr/bin/../lib/gcc/avr/5.4.0/../../../../avr/lib/avrxmega3/libc.a(mktime.o)
                              dist/AWS_IOT/production/__pa_temp_4543/time_service.o (mktime)
/opt/microchip/xc8/v2.10/avr/bin/../lib/gcc/avr/5.4.0/../../../../avr/lib/avrxmega3/libc.a(set_system_time.o)
                              dist/AWS_IOT/production/__pa_temp_4543/time_service.o (set_system_time)
/opt/microchip/xc8/v2.10/avr/bin/../lib/gcc/avr/5.4.0/../../../../avr/lib/avrxmega3/libc.a(system_time.o)
                              /opt/microchip/xc8/v2.10/avr/bin/../lib/gcc/avr/5.4.0/../../../../avr/lib/avrxmega3/libc.a(set_system_time.o) (__system_time)
/opt/microchip/xc8/v2.10/avr/bin/../lib/gcc/avr/5.4.0/../../../../avr/lib/avrxmega3/libc.a(utc_offset.o)
                              /opt/microchip/xc8/v2.10/avr/bin/../lib/gcc/avr/5.4.0/../../../../avr/lib/avrxmega3/libc.a(localtime_r.o) (__utc_offset)
/opt/microchip/xc8/v2.10/avr/bin/../lib/gcc/avr/5.4.0/../../../../avr/lib/avrxmega3/libc.a(vfprintf_std.o)
                              /opt/microchip/xc8/v2.10/avr/bin/../lib/gcc/avr/5.4.0/../../../../avr/lib/avrxmega3/libc.a(printf.o) (vfprintf)
/opt/microchip/xc8/v2.10/avr/bin/../lib/gcc/avr/5.4.0/../../../../avr/lib/avrxmega3/libc.a(strnlen_P.o)
                              /opt/microchip/xc8/v2.10/avr/bin/../lib/gcc/avr/5.4.0/../../../../avr/lib/avrxmega3/libc.a(vfprintf_std.o) (strnlen_P)
/opt/microchip/xc8/v2.10/avr/bin/../lib/gcc/avr/5.4.0/../../../../avr/lib/avrxmega3/libc.a(strnlen.o)
                              /opt/microchip/xc8/v2.10/avr/bin/../lib/gcc/avr/5.4.0/../../../../avr/lib/avrxmega3/libc.a(vfprintf_std.o) (strnlen)
/opt/microchip/xc8/v2.10/avr/bin/../lib/gcc/avr/5.4.0/../../../../avr/lib/avrxmega3/libc.a(ultoa_invert.o)
                              /opt/microchip/xc8/v2.10/avr/bin/../lib/gcc/avr/5.4.0/../../../../avr/lib/avrxmega3/libc.a(vfprintf_std.o) (__ultoa_invert)
/opt/microchip/xc8/v2.10/avr/bin/../lib/gcc/avr/5.4.0/../../../../avr/lib/avrxmega3/libc.a(asc_store.o)
                              /opt/microchip/xc8/v2.10/avr/bin/../lib/gcc/avr/5.4.0/../../../../avr/lib/avrxmega3/libc.a(ctime.o) (__asc_store)
/opt/microchip/xc8/v2.10/avr/bin/../lib/gcc/avr/5.4.0/../../../../avr/lib/avrxmega3/libc.a(asctime_r.o)
                              /opt/microchip/xc8/v2.10/avr/bin/../lib/gcc/avr/5.4.0/../../../../avr/lib/avrxmega3/libc.a(ctime.o) (asctime_r)
/opt/microchip/xc8/v2.10/avr/bin/../lib/gcc/avr/5.4.0/../../../../avr/lib/avrxmega3/libc.a(dst_pointer.o)
                              /opt/microchip/xc8/v2.10/avr/bin/../lib/gcc/avr/5.4.0/../../../../avr/lib/avrxmega3/libc.a(localtime_r.o) (__dst_ptr)
/opt/microchip/xc8/v2.10/avr/bin/../lib/gcc/avr/5.4.0/../../../../avr/lib/avrxmega3/libc.a(gmtime_r.o)
                              /opt/microchip/xc8/v2.10/avr/bin/../lib/gcc/avr/5.4.0/../../../../avr/lib/avrxmega3/libc.a(localtime_r.o) (gmtime_r)
/opt/microchip/xc8/v2.10/avr/bin/../lib/gcc/avr/5.4.0/../../../../avr/lib/avrxmega3/libc.a(mk_gmtime.o)
                              /opt/microchip/xc8/v2.10/avr/bin/../lib/gcc/avr/5.4.0/../../../../avr/lib/avrxmega3/libc.a(mktime.o) (mk_gmtime)
/opt/microchip/xc8/v2.10/avr/bin/../lib/gcc/avr/5.4.0/../../../../avr/lib/avrxmega3/libc.a(print_lz.o)
                              /opt/microchip/xc8/v2.10/avr/bin/../lib/gcc/avr/5.4.0/../../../../avr/lib/avrxmega3/libc.a(asctime_r.o) (__print_lz)
/opt/microchip/xc8/v2.10/avr/bin/../lib/gcc/avr/5.4.0/../../../../avr/lib/avrxmega3/libc.a(isLeap.o)
                              /opt/microchip/xc8/v2.10/avr/bin/../lib/gcc/avr/5.4.0/../../../../avr/lib/avrxmega3/libc.a(mk_gmtime.o) (is_leap_year)
/opt/microchip/xc8/v2.10/avr/bin/../lib/gcc/avr/5.4.0/avrxmega3/libgcc.a(_mulsi3.o)
                              /opt/microchip/xc8/v2.10/avr/bin/../lib/gcc/avr/5.4.0/../../../../avr/lib/avrxmega3/libc.a(mk_gmtime.o) (__mulsi3)
/opt/microchip/xc8/v2.10/avr/bin/../lib/gcc/avr/5.4.0/avrxmega3/libgcc.a(_prologue.o)
                              /opt/microchip/xc8/v2.10/avr/bin/../lib/gcc/avr/5.4.0/../../../../avr/lib/avrxmega3/libc.a(printf.o) (__prologue_saves__)
/opt/microchip/xc8/v2.10/avr/bin/../lib/gcc/avr/5.4.0/avrxmega3/libgcc.a(_epilogue.o)
                              /opt/microchip/xc8/v2.10/avr/bin/../lib/gcc/avr/5.4.0/../../../../avr/lib/avrxmega3/libc.a(printf.o) (__epilogue_restores__)

Allocating common symbols
Common symbol       size              file

ssid                0x1f              build/AWS_IOT/production/mcc_generated_files/credentials_storage/credentials_storage.o
g_atcab_device      0x4               dist/AWS_IOT/production/__pa_temp_4543/atca_basic.o
mqttSubscribeTopic  0x64              dist/AWS_IOT/production/__pa_temp_4543/application_manager.o
__store             0x1a              /opt/microchip/xc8/v2.10/avr/bin/../lib/gcc/avr/5.4.0/../../../../avr/lib/avrxmega3/libc.a(asc_store.o)
retValCryptoClientSerialNumber
                    0x1               dist/AWS_IOT/production/__pa_temp_4543/application_manager.o
pass                0x1f              build/AWS_IOT/production/mcc_generated_files/credentials_storage/credentials_storage.o
prevNTPServerName   0x14              dist/AWS_IOT/production/__pa_temp_4543/wifi_service.o
ntpServerName       0x14              build/AWS_IOT/production/mcc_generated_files/credentials_storage/credentials_storage.o
_gmyIface           0x13              build/AWS_IOT/production/mcc_generated_files/CryptoAuthenticationLibrary/CryptoAuth_init.o
cloudStatus         0x1               dist/AWS_IOT/production/__pa_temp_4543/cloud_service.o
publishRecvCallback
                    0x2               build/AWS_IOT/production/mcc_generated_files/mqtt/mqtt_packetTransfer_interface.o
imqtt_publishReceiveCallBackTable
                    0x4               dist/AWS_IOT/production/__pa_temp_4543/aws_cloud_service.o
_gmyCommand         0x4               build/AWS_IOT/production/mcc_generated_files/CryptoAuthenticationLibrary/CryptoAuth_init.o
__dst_ptr           0x2               /opt/microchip/xc8/v2.10/avr/bin/../lib/gcc/avr/5.4.0/../../../../avr/lib/avrxmega3/libc.a(dst_pointer.o)
authType            0x2               build/AWS_IOT/production/mcc_generated_files/credentials_storage/credentials_storage.o
mqttBrokerIP        0x4               dist/AWS_IOT/production/__pa_temp_4543/cloud_service.o
g_atcab_iface       0x13              dist/AWS_IOT/production/__pa_temp_4543/atca_basic.o
callback_funcPtr    0x2               dist/AWS_IOT/production/__pa_temp_4543/wifi_service.o
__utc_offset        0x4               /opt/microchip/xc8/v2.10/avr/bin/../lib/gcc/avr/5.4.0/../../../../avr/lib/avrxmega3/libc.a(utc_offset.o)
shared_networking_params
                    0x1               dist/AWS_IOT/production/__pa_temp_4543/cloud_service.o
cloud_packetReceiveCallBackTable
                    0xa               dist/AWS_IOT/production/__pa_temp_4543/cloud_service.o
g_atcab_command     0x4               dist/AWS_IOT/production/__pa_temp_4543/atca_basic.o
__iob               0x6               /opt/microchip/xc8/v2.10/avr/bin/../lib/gcc/avr/5.4.0/../../../../avr/lib/avrxmega3/libc.a(iob.o)
__system_time       0x4               /opt/microchip/xc8/v2.10/avr/bin/../lib/gcc/avr/5.4.0/../../../../avr/lib/avrxmega3/libc.a(system_time.o)
g_serial_number     0x9               dist/AWS_IOT/production/__pa_temp_4543/crypto_client.o
cid                 0x29              dist/AWS_IOT/production/__pa_temp_4543/mqtt_service.o

Discarded input sections

 .text          0x00000000        0x0 dist/AWS_IOT/production/__pa_temp_4543/libgcc_a__negsi2.o
 .data          0x00000000        0x0 dist/AWS_IOT/production/__pa_temp_4543/libgcc_a__negsi2.o
 .bss           0x00000000        0x0 dist/AWS_IOT/production/__pa_temp_4543/libgcc_a__negsi2.o
 .text.libgcc.mul
                0x00000000        0x0 dist/AWS_IOT/production/__pa_temp_4543/libgcc_a__negsi2.o
 .text.libgcc   0x00000000        0x0 dist/AWS_IOT/production/__pa_temp_4543/libgcc_a__negsi2.o
 .text.libgcc.prologue
                0x00000000        0x0 dist/AWS_IOT/production/__pa_temp_4543/libgcc_a__negsi2.o
 .text.libgcc.builtins
                0x00000000        0x0 dist/AWS_IOT/production/__pa_temp_4543/libgcc_a__negsi2.o
 .text.libgcc.fmul
                0x00000000        0x0 dist/AWS_IOT/production/__pa_temp_4543/libgcc_a__negsi2.o
 .text.libgcc.fixed
                0x00000000        0x0 dist/AWS_IOT/production/__pa_temp_4543/libgcc_a__negsi2.o
 .text          0x00000000        0x0 dist/AWS_IOT/production/__pa_temp_4543/libc_a_puts.o
 .data          0x00000000        0x0 dist/AWS_IOT/production/__pa_temp_4543/libc_a_puts.o
 .bss           0x00000000        0x0 dist/AWS_IOT/production/__pa_temp_4543/libc_a_puts.o
 .text          0x00000000        0x0 dist/AWS_IOT/production/__pa_temp_4543/libc_a_fputc.o
 .data          0x00000000        0x0 dist/AWS_IOT/production/__pa_temp_4543/libc_a_fputc.o
 .bss           0x00000000        0x0 dist/AWS_IOT/production/__pa_temp_4543/libc_a_fputc.o
 .text          0x00000000        0x0 dist/AWS_IOT/production/__pa_temp_4543/libc_a_atol.o
 .data          0x00000000        0x0 dist/AWS_IOT/production/__pa_temp_4543/libc_a_atol.o
 .bss           0x00000000        0x0 dist/AWS_IOT/production/__pa_temp_4543/libc_a_atol.o
 .data          0x00000000        0x0 /opt/microchip/mplabx/v5.30/packs/Microchip/ATmega_DFP/2.0.12/gcc/dev/atmega4808/avrxmega3/crtatmega4808.o
 .bss           0x00000000        0x0 /opt/microchip/mplabx/v5.30/packs/Microchip/ATmega_DFP/2.0.12/gcc/dev/atmega4808/avrxmega3/crtatmega4808.o
 .text          0x00000000        0x0 dist/AWS_IOT/production/__pa_temp_4543/cli.o
 .data          0x00000000        0x0 dist/AWS_IOT/production/__pa_temp_4543/cli.o
 .bss           0x00000000        0x0 dist/AWS_IOT/production/__pa_temp_4543/cli.o
 .rodata.firmware_version_number
                0x00000000        0x2 dist/AWS_IOT/production/__pa_temp_4543/cli.o
 .rodata.cli_version_number
                0x00000000        0x2 dist/AWS_IOT/production/__pa_temp_4543/cli.o
 .text          0x00000000        0x0 dist/AWS_IOT/production/__pa_temp_4543/crypto_client.o
 .data          0x00000000        0x0 dist/AWS_IOT/production/__pa_temp_4543/crypto_client.o
 .bss           0x00000000        0x0 dist/AWS_IOT/production/__pa_temp_4543/crypto_client.o
 .text.CRYPTO_CLIENT_printPublicKey
                0x00000000       0xc4 dist/AWS_IOT/production/__pa_temp_4543/crypto_client.o
 .rodata.public_key_x509_header
                0x00000000       0x1b dist/AWS_IOT/production/__pa_temp_4543/crypto_client.o
 .text          0x00000000        0x0 dist/AWS_IOT/production/__pa_temp_4543/cloud_service.o
 .data          0x00000000        0x0 dist/AWS_IOT/production/__pa_temp_4543/cloud_service.o
 .bss           0x00000000        0x0 dist/AWS_IOT/production/__pa_temp_4543/cloud_service.o
 .text.CLOUD_checkIsDisconnected
                0x00000000        0xa dist/AWS_IOT/production/__pa_temp_4543/cloud_service.o
 .text          0x00000000        0x0 dist/AWS_IOT/production/__pa_temp_4543/wifi_service.o
 .data          0x00000000        0x0 dist/AWS_IOT/production/__pa_temp_4543/wifi_service.o
 .bss           0x00000000        0x0 dist/AWS_IOT/production/__pa_temp_4543/wifi_service.o
 .text          0x00000000        0x0 dist/AWS_IOT/production/__pa_temp_4543/mqtt_service.o
 .data          0x00000000        0x0 dist/AWS_IOT/production/__pa_temp_4543/mqtt_service.o
 .bss           0x00000000        0x0 dist/AWS_IOT/production/__pa_temp_4543/mqtt_service.o
 .text.MQTT_GetPublishReceptionHandlerTable
                0x00000000        0xa dist/AWS_IOT/production/__pa_temp_4543/mqtt_service.o
 .text          0x00000000        0x0 dist/AWS_IOT/production/__pa_temp_4543/aws_cloud_service.o
 .data          0x00000000        0x0 dist/AWS_IOT/production/__pa_temp_4543/aws_cloud_service.o
 .bss           0x00000000        0x0 dist/AWS_IOT/production/__pa_temp_4543/aws_cloud_service.o
 .text          0x00000000        0x0 build/AWS_IOT/production/mcc_generated_files/credentials_storage/credentials_storage.o
 .data          0x00000000        0x0 build/AWS_IOT/production/mcc_generated_files/credentials_storage/credentials_storage.o
 .bss           0x00000000        0x0 build/AWS_IOT/production/mcc_generated_files/credentials_storage/credentials_storage.o
 .text          0x00000000        0x0 dist/AWS_IOT/production/__pa_temp_4543/atcacert_client.o
 .data          0x00000000        0x0 dist/AWS_IOT/production/__pa_temp_4543/atcacert_client.o
 .bss           0x00000000        0x0 dist/AWS_IOT/production/__pa_temp_4543/atcacert_client.o
 .text.atcacert_get_response
                0x00000000       0x20 dist/AWS_IOT/production/__pa_temp_4543/atcacert_client.o
 .text.atcacert_read_device_loc
                0x00000000       0xd8 dist/AWS_IOT/production/__pa_temp_4543/atcacert_client.o
 .text.atcacert_read_cert
                0x00000000       0xfc dist/AWS_IOT/production/__pa_temp_4543/atcacert_client.o
 .text.atcacert_write_cert
                0x00000000      0x196 dist/AWS_IOT/production/__pa_temp_4543/atcacert_client.o
 .rodata        0x00000000      0x16b dist/AWS_IOT/production/__pa_temp_4543/atcacert_client.o
 .text.atcacert_create_csr
                0x00000000      0x220 dist/AWS_IOT/production/__pa_temp_4543/atcacert_client.o
 .text.atcacert_create_csr_pem
                0x00000000       0xa6 dist/AWS_IOT/production/__pa_temp_4543/atcacert_client.o
 .bss.data.3472
                0x00000000      0x1a0 dist/AWS_IOT/production/__pa_temp_4543/atcacert_client.o
 .bss.data.3457
                0x00000000      0x1a0 dist/AWS_IOT/production/__pa_temp_4543/atcacert_client.o
 .text          0x00000000        0x0 dist/AWS_IOT/production/__pa_temp_4543/atcacert_date.o
 .data          0x00000000        0x0 dist/AWS_IOT/production/__pa_temp_4543/atcacert_date.o
 .bss           0x00000000        0x0 dist/AWS_IOT/production/__pa_temp_4543/atcacert_date.o
 .text.uint_to_str
                0x00000000       0x72 dist/AWS_IOT/production/__pa_temp_4543/atcacert_date.o
 .text.str_to_int
                0x00000000      0x10a dist/AWS_IOT/production/__pa_temp_4543/atcacert_date.o
 .text.atcacert_gmtime32.isra.1
                0x00000000      0x186 dist/AWS_IOT/production/__pa_temp_4543/atcacert_date.o
 .text.atcacert_date_enc_posix_uint32.part.2
                0x00000000      0x262 dist/AWS_IOT/production/__pa_temp_4543/atcacert_date.o
 .text.atcacert_date_get_max_date
                0x00000000       0x84 dist/AWS_IOT/production/__pa_temp_4543/atcacert_date.o
 .text.atcacert_date_enc_iso8601_sep
                0x00000000       0xae dist/AWS_IOT/production/__pa_temp_4543/atcacert_date.o
 .text.atcacert_date_dec_iso8601_sep
                0x00000000      0x108 dist/AWS_IOT/production/__pa_temp_4543/atcacert_date.o
 .text.atcacert_date_enc_rfc5280_utc
                0x00000000       0x9e dist/AWS_IOT/production/__pa_temp_4543/atcacert_date.o
 .text.atcacert_date_dec_rfc5280_utc
                0x00000000       0xdc dist/AWS_IOT/production/__pa_temp_4543/atcacert_date.o
 .text.atcacert_date_enc_rfc5280_gen
                0x00000000       0x86 dist/AWS_IOT/production/__pa_temp_4543/atcacert_date.o
 .text.atcacert_date_dec_rfc5280_gen
                0x00000000       0xba dist/AWS_IOT/production/__pa_temp_4543/atcacert_date.o
 .text.atcacert_date_enc_posix_uint32_be
                0x00000000       0x52 dist/AWS_IOT/production/__pa_temp_4543/atcacert_date.o
 .text.atcacert_date_dec_posix_uint32_be
                0x00000000       0x24 dist/AWS_IOT/production/__pa_temp_4543/atcacert_date.o
 .text.atcacert_date_enc_posix_uint32_le
                0x00000000       0x52 dist/AWS_IOT/production/__pa_temp_4543/atcacert_date.o
 .text.atcacert_date_enc
                0x00000000       0xae dist/AWS_IOT/production/__pa_temp_4543/atcacert_date.o
 .text.atcacert_date_dec_posix_uint32_le
                0x00000000       0x20 dist/AWS_IOT/production/__pa_temp_4543/atcacert_date.o
 .text.atcacert_date_dec
                0x00000000       0x5c dist/AWS_IOT/production/__pa_temp_4543/atcacert_date.o
 .text.atcacert_date_enc_compcert
                0x00000000       0xee dist/AWS_IOT/production/__pa_temp_4543/atcacert_date.o
 .text.atcacert_date_dec_compcert
                0x00000000       0xf8 dist/AWS_IOT/production/__pa_temp_4543/atcacert_date.o
 .rodata.month_secs.1917
                0x00000000       0x30 dist/AWS_IOT/production/__pa_temp_4543/atcacert_date.o
 .rodata.ATCACERT_DATE_FORMAT_SIZES
                0x00000000        0xa dist/AWS_IOT/production/__pa_temp_4543/atcacert_date.o
 .__pa__15      0x00000000       0x14 dist/AWS_IOT/production/__pa_temp_4543/atcacert_date.o
 .__pa__17      0x00000000        0xe dist/AWS_IOT/production/__pa_temp_4543/atcacert_date.o
 .__pa__33      0x00000000        0xa dist/AWS_IOT/production/__pa_temp_4543/atcacert_date.o
 .__pa__45      0x00000000       0x12 dist/AWS_IOT/production/__pa_temp_4543/atcacert_date.o
 .__pa__46      0x00000000        0xc dist/AWS_IOT/production/__pa_temp_4543/atcacert_date.o
 .__pa__53      0x00000000        0xc dist/AWS_IOT/production/__pa_temp_4543/atcacert_date.o
 .__pa__60      0x00000000        0xe dist/AWS_IOT/production/__pa_temp_4543/atcacert_date.o
 .__pa__65      0x00000000        0xa dist/AWS_IOT/production/__pa_temp_4543/atcacert_date.o
 .__pa__88      0x00000000        0xe dist/AWS_IOT/production/__pa_temp_4543/atcacert_date.o
 .__pa__92      0x00000000        0xa dist/AWS_IOT/production/__pa_temp_4543/atcacert_date.o
 .__pa__95      0x00000000       0x10 dist/AWS_IOT/production/__pa_temp_4543/atcacert_date.o
 .__pa__96      0x00000000        0xe dist/AWS_IOT/production/__pa_temp_4543/atcacert_date.o
 .__pa__97      0x00000000        0xa dist/AWS_IOT/production/__pa_temp_4543/atcacert_date.o
 .__pa__98      0x00000000       0x12 dist/AWS_IOT/production/__pa_temp_4543/atcacert_date.o
 .__pa__101     0x00000000        0xa dist/AWS_IOT/production/__pa_temp_4543/atcacert_date.o
 .__pa__102     0x00000000        0xa dist/AWS_IOT/production/__pa_temp_4543/atcacert_date.o
 .__pa__103     0x00000000        0xa dist/AWS_IOT/production/__pa_temp_4543/atcacert_date.o
 .__pa__104     0x00000000        0xc dist/AWS_IOT/production/__pa_temp_4543/atcacert_date.o
 .__pa__105     0x00000000        0xa dist/AWS_IOT/production/__pa_temp_4543/atcacert_date.o
 .__pa__116     0x00000000        0xc dist/AWS_IOT/production/__pa_temp_4543/atcacert_date.o
 .__pa__117     0x00000000        0xc dist/AWS_IOT/production/__pa_temp_4543/atcacert_date.o
 .__pa__119     0x00000000       0x18 dist/AWS_IOT/production/__pa_temp_4543/atcacert_date.o
 .__pa__120     0x00000000       0x16 dist/AWS_IOT/production/__pa_temp_4543/atcacert_date.o
 .text          0x00000000        0x0 dist/AWS_IOT/production/__pa_temp_4543/atcacert_def.o
 .data          0x00000000        0x0 dist/AWS_IOT/production/__pa_temp_4543/atcacert_def.o
 .bss           0x00000000        0x0 dist/AWS_IOT/production/__pa_temp_4543/atcacert_def.o
 .text.atcacert_is_device_loc_match
                0x00000000       0x82 dist/AWS_IOT/production/__pa_temp_4543/atcacert_def.o
 .text.uint8_to_hex
                0x00000000       0x28 dist/AWS_IOT/production/__pa_temp_4543/atcacert_def.o
 .text.hex_to_uint8
                0x00000000       0x6e dist/AWS_IOT/production/__pa_temp_4543/atcacert_def.o
 .text.atcacert_copy_device_loc_data
                0x00000000       0x68 dist/AWS_IOT/production/__pa_temp_4543/atcacert_def.o
 .text.get_effective_offset
                0x00000000       0x42 dist/AWS_IOT/production/__pa_temp_4543/atcacert_def.o
 .text.atcacert_merge_device_loc
                0x00000000      0x1a2 dist/AWS_IOT/production/__pa_temp_4543/atcacert_def.o
 .text.atcacert_get_device_locs
                0x00000000      0x162 dist/AWS_IOT/production/__pa_temp_4543/atcacert_def.o
 .text.atcacert_is_device_loc_overlap
                0x00000000       0x5e dist/AWS_IOT/production/__pa_temp_4543/atcacert_def.o
 .text.atcacert_get_tbs
                0x00000000       0x9c dist/AWS_IOT/production/__pa_temp_4543/atcacert_def.o
 .text.atcacert_get_tbs_digest
                0x00000000       0x68 dist/AWS_IOT/production/__pa_temp_4543/atcacert_def.o
 .text.atcacert_set_cert_element
                0x00000000       0xae dist/AWS_IOT/production/__pa_temp_4543/atcacert_def.o
 .text.atcacert_set_signature
                0x00000000      0x158 dist/AWS_IOT/production/__pa_temp_4543/atcacert_def.o
 .text.atcacert_set_issue_date
                0x00000000       0x88 dist/AWS_IOT/production/__pa_temp_4543/atcacert_def.o
 .text.atcacert_set_expire_date
                0x00000000       0x88 dist/AWS_IOT/production/__pa_temp_4543/atcacert_def.o
 .text.atcacert_set_signer_id
                0x00000000       0x8c dist/AWS_IOT/production/__pa_temp_4543/atcacert_def.o
 .text.atcacert_set_comp_cert
                0x00000000      0x124 dist/AWS_IOT/production/__pa_temp_4543/atcacert_def.o
 .text.atcacert_set_cert_sn
                0x00000000      0x1ba dist/AWS_IOT/production/__pa_temp_4543/atcacert_def.o
 .text.atcacert_set_auth_key_id_raw
                0x00000000       0x3e dist/AWS_IOT/production/__pa_temp_4543/atcacert_def.o
 .text.atcacert_get_cert_element
                0x00000000       0x94 dist/AWS_IOT/production/__pa_temp_4543/atcacert_def.o
 .text.atcacert_get_subj_public_key
                0x00000000       0x3a dist/AWS_IOT/production/__pa_temp_4543/atcacert_def.o
 .text.atcacert_get_subj_key_id
                0x00000000       0x3a dist/AWS_IOT/production/__pa_temp_4543/atcacert_def.o
 .text.atcacert_get_signature
                0x00000000       0xb2 dist/AWS_IOT/production/__pa_temp_4543/atcacert_def.o
 .text.atcacert_get_issue_date
                0x00000000       0xa6 dist/AWS_IOT/production/__pa_temp_4543/atcacert_def.o
 .text.atcacert_get_expire_date
                0x00000000       0xa6 dist/AWS_IOT/production/__pa_temp_4543/atcacert_def.o
 .text.atcacert_get_signer_id
                0x00000000       0x80 dist/AWS_IOT/production/__pa_temp_4543/atcacert_def.o
 .text.atcacert_gen_cert_sn
                0x00000000      0x21c dist/AWS_IOT/production/__pa_temp_4543/atcacert_def.o
 .progmem.gcc_sw_table.atcacert_gen_cert_sn
                0x00000000       0x10 dist/AWS_IOT/production/__pa_temp_4543/atcacert_def.o
 .text.atcacert_cert_build_finish
                0x00000000       0x32 dist/AWS_IOT/production/__pa_temp_4543/atcacert_def.o
 .text.atcacert_get_comp_cert
                0x00000000      0x12a dist/AWS_IOT/production/__pa_temp_4543/atcacert_def.o
 .text.atcacert_get_cert_sn
                0x00000000       0x60 dist/AWS_IOT/production/__pa_temp_4543/atcacert_def.o
 .text.atcacert_get_auth_key_id
                0x00000000       0x3a dist/AWS_IOT/production/__pa_temp_4543/atcacert_def.o
 .text.atcacert_get_key_id
                0x00000000       0x4c dist/AWS_IOT/production/__pa_temp_4543/atcacert_def.o
 .text.atcacert_set_subj_public_key
                0x00000000       0xb0 dist/AWS_IOT/production/__pa_temp_4543/atcacert_def.o
 .text.atcacert_set_auth_key_id
                0x00000000       0x82 dist/AWS_IOT/production/__pa_temp_4543/atcacert_def.o
 .text.atcacert_cert_build_start
                0x00000000      0x118 dist/AWS_IOT/production/__pa_temp_4543/atcacert_def.o
 .text.atcacert_public_key_add_padding
                0x00000000       0x52 dist/AWS_IOT/production/__pa_temp_4543/atcacert_def.o
 .text.atcacert_get_device_data
                0x00000000      0x238 dist/AWS_IOT/production/__pa_temp_4543/atcacert_def.o
 .text.atcacert_public_key_remove_padding
                0x00000000       0x36 dist/AWS_IOT/production/__pa_temp_4543/atcacert_def.o
 .text.atcacert_transform_data
                0x00000000       0xca dist/AWS_IOT/production/__pa_temp_4543/atcacert_def.o
 .progmem.gcc_sw_table.atcacert_transform_data
                0x00000000       0x14 dist/AWS_IOT/production/__pa_temp_4543/atcacert_def.o
 .text.atcacert_cert_build_process
                0x00000000      0x2be dist/AWS_IOT/production/__pa_temp_4543/atcacert_def.o
 .text.atcacert_max_cert_size
                0x00000000       0x74 dist/AWS_IOT/production/__pa_temp_4543/atcacert_def.o
 .rodata.device_sn_dev_loc.3320
                0x00000000        0x7 dist/AWS_IOT/production/__pa_temp_4543/atcacert_def.o
 .__pa__41      0x00000000        0xa dist/AWS_IOT/production/__pa_temp_4543/atcacert_def.o
 .__pa__44      0x00000000       0x14 dist/AWS_IOT/production/__pa_temp_4543/atcacert_def.o
 .__pa__58      0x00000000        0xa dist/AWS_IOT/production/__pa_temp_4543/atcacert_def.o
 .__pa__62      0x00000000        0x8 dist/AWS_IOT/production/__pa_temp_4543/atcacert_def.o
 .__pa__78      0x00000000        0xa dist/AWS_IOT/production/__pa_temp_4543/atcacert_def.o
 .__pa__80      0x00000000        0xa dist/AWS_IOT/production/__pa_temp_4543/atcacert_def.o
 .__pa__91      0x00000000        0xe dist/AWS_IOT/production/__pa_temp_4543/atcacert_def.o
 .__pa__124     0x00000000        0xa dist/AWS_IOT/production/__pa_temp_4543/atcacert_def.o
 .__pa__139     0x00000000        0xa dist/AWS_IOT/production/__pa_temp_4543/atcacert_def.o
 .__pa__144     0x00000000        0x8 dist/AWS_IOT/production/__pa_temp_4543/atcacert_def.o
 .__pa__157     0x00000000       0x10 dist/AWS_IOT/production/__pa_temp_4543/atcacert_def.o
 .__pa__160     0x00000000        0xe dist/AWS_IOT/production/__pa_temp_4543/atcacert_def.o
 .__pa__166     0x00000000        0xe dist/AWS_IOT/production/__pa_temp_4543/atcacert_def.o
 .__pa__175     0x00000000        0xa dist/AWS_IOT/production/__pa_temp_4543/atcacert_def.o
 .__pa__176     0x00000000       0x14 dist/AWS_IOT/production/__pa_temp_4543/atcacert_def.o
 .__pa__183     0x00000000       0x18 dist/AWS_IOT/production/__pa_temp_4543/atcacert_def.o
 .__pa__199     0x00000000        0xe dist/AWS_IOT/production/__pa_temp_4543/atcacert_def.o
 .__pa__200     0x00000000        0xe dist/AWS_IOT/production/__pa_temp_4543/atcacert_def.o
 .__pa__207     0x00000000        0xe dist/AWS_IOT/production/__pa_temp_4543/atcacert_def.o
 .__pa__208     0x00000000        0xe dist/AWS_IOT/production/__pa_temp_4543/atcacert_def.o
 .text          0x00000000        0x0 dist/AWS_IOT/production/__pa_temp_4543/atcacert_der.o
 .data          0x00000000        0x0 dist/AWS_IOT/production/__pa_temp_4543/atcacert_der.o
 .bss           0x00000000        0x0 dist/AWS_IOT/production/__pa_temp_4543/atcacert_der.o
 .text.atcacert_der_enc_length
                0x00000000       0xd4 dist/AWS_IOT/production/__pa_temp_4543/atcacert_der.o
 .text.atcacert_der_dec_length
                0x00000000      0x132 dist/AWS_IOT/production/__pa_temp_4543/atcacert_der.o
 .text.atcacert_der_adjust_length
                0x00000000       0xee dist/AWS_IOT/production/__pa_temp_4543/atcacert_der.o
 .text.atcacert_der_enc_integer
                0x00000000      0x168 dist/AWS_IOT/production/__pa_temp_4543/atcacert_der.o
 .text.atcacert_der_dec_integer
                0x00000000      0x128 dist/AWS_IOT/production/__pa_temp_4543/atcacert_der.o
 .text.atcacert_der_enc_ecdsa_sig_value
                0x00000000      0x12a dist/AWS_IOT/production/__pa_temp_4543/atcacert_der.o
 .text.atcacert_der_dec_ecdsa_sig_value
                0x00000000      0x29c dist/AWS_IOT/production/__pa_temp_4543/atcacert_der.o
 .debug_info    0x00000000      0xbf6 dist/AWS_IOT/production/__pa_temp_4543/atcacert_der.o
 .debug_abbrev  0x00000000      0x1e3 dist/AWS_IOT/production/__pa_temp_4543/atcacert_der.o
 .debug_loc     0x00000000      0xe9e dist/AWS_IOT/production/__pa_temp_4543/atcacert_der.o
 .debug_aranges
                0x00000000       0x50 dist/AWS_IOT/production/__pa_temp_4543/atcacert_der.o
 .debug_ranges  0x00000000       0x58 dist/AWS_IOT/production/__pa_temp_4543/atcacert_der.o
 .debug_line    0x00000000      0x679 dist/AWS_IOT/production/__pa_temp_4543/atcacert_der.o
 .debug_str     0x00000000       0x4c dist/AWS_IOT/production/__pa_temp_4543/atcacert_der.o
 .comment       0x00000000       0x30 dist/AWS_IOT/production/__pa_temp_4543/atcacert_der.o
 .debug_frame   0x00000000      0x278 dist/AWS_IOT/production/__pa_temp_4543/atcacert_der.o
 .__pa__99      0x00000000        0xa dist/AWS_IOT/production/__pa_temp_4543/atcacert_der.o
 .__pa__173     0x00000000       0x14 dist/AWS_IOT/production/__pa_temp_4543/atcacert_der.o
 .__pa__253     0x00000000       0x18 dist/AWS_IOT/production/__pa_temp_4543/atcacert_der.o
 .text          0x00000000        0x0 dist/AWS_IOT/production/__pa_temp_4543/atcacert_host_hw.o
 .data          0x00000000        0x0 dist/AWS_IOT/production/__pa_temp_4543/atcacert_host_hw.o
 .bss           0x00000000        0x0 dist/AWS_IOT/production/__pa_temp_4543/atcacert_host_hw.o
 .text.atcacert_verify_cert_hw
                0x00000000       0x9c dist/AWS_IOT/production/__pa_temp_4543/atcacert_host_hw.o
 .text.atcacert_gen_challenge_hw
                0x00000000       0x12 dist/AWS_IOT/production/__pa_temp_4543/atcacert_host_hw.o
 .text.atcacert_verify_response_hw
                0x00000000       0x4e dist/AWS_IOT/production/__pa_temp_4543/atcacert_host_hw.o
 .debug_info    0x00000000      0xfb3 dist/AWS_IOT/production/__pa_temp_4543/atcacert_host_hw.o
 .debug_abbrev  0x00000000      0x146 dist/AWS_IOT/production/__pa_temp_4543/atcacert_host_hw.o
 .debug_loc     0x00000000      0x346 dist/AWS_IOT/production/__pa_temp_4543/atcacert_host_hw.o
 .debug_aranges
                0x00000000       0x30 dist/AWS_IOT/production/__pa_temp_4543/atcacert_host_hw.o
 .debug_ranges  0x00000000       0x20 dist/AWS_IOT/production/__pa_temp_4543/atcacert_host_hw.o
 .debug_line    0x00000000      0x27b dist/AWS_IOT/production/__pa_temp_4543/atcacert_host_hw.o
 .debug_str     0x00000000       0x66 dist/AWS_IOT/production/__pa_temp_4543/atcacert_host_hw.o
 .comment       0x00000000       0x30 dist/AWS_IOT/production/__pa_temp_4543/atcacert_host_hw.o
 .debug_frame   0x00000000       0x8c dist/AWS_IOT/production/__pa_temp_4543/atcacert_host_hw.o
 .__pa__158     0x00000000        0xe dist/AWS_IOT/production/__pa_temp_4543/atcacert_host_hw.o
 .__pa__169     0x00000000       0x10 dist/AWS_IOT/production/__pa_temp_4543/atcacert_host_hw.o
 .text          0x00000000        0x0 dist/AWS_IOT/production/__pa_temp_4543/atcacert_host_sw.o
 .data          0x00000000        0x0 dist/AWS_IOT/production/__pa_temp_4543/atcacert_host_sw.o
 .bss           0x00000000        0x0 dist/AWS_IOT/production/__pa_temp_4543/atcacert_host_sw.o
 .text.atcacert_verify_cert_sw
                0x00000000       0x74 dist/AWS_IOT/production/__pa_temp_4543/atcacert_host_sw.o
 .text.atcacert_gen_challenge_sw
                0x00000000       0x12 dist/AWS_IOT/production/__pa_temp_4543/atcacert_host_sw.o
 .text.atcacert_verify_response_sw
                0x00000000       0x20 dist/AWS_IOT/production/__pa_temp_4543/atcacert_host_sw.o
 .debug_info    0x00000000      0xc8f dist/AWS_IOT/production/__pa_temp_4543/atcacert_host_sw.o
 .debug_abbrev  0x00000000      0x136 dist/AWS_IOT/production/__pa_temp_4543/atcacert_host_sw.o
 .debug_loc     0x00000000      0x27c dist/AWS_IOT/production/__pa_temp_4543/atcacert_host_sw.o
 .debug_aranges
                0x00000000       0x30 dist/AWS_IOT/production/__pa_temp_4543/atcacert_host_sw.o
 .debug_ranges  0x00000000       0x20 dist/AWS_IOT/production/__pa_temp_4543/atcacert_host_sw.o
 .debug_line    0x00000000      0x222 dist/AWS_IOT/production/__pa_temp_4543/atcacert_host_sw.o
 .debug_str     0x00000000       0x64 dist/AWS_IOT/production/__pa_temp_4543/atcacert_host_sw.o
 .comment       0x00000000       0x30 dist/AWS_IOT/production/__pa_temp_4543/atcacert_host_sw.o
 .debug_frame   0x00000000       0x7c dist/AWS_IOT/production/__pa_temp_4543/atcacert_host_sw.o
 .text          0x00000000        0x0 dist/AWS_IOT/production/__pa_temp_4543/atcacert_pem.o
 .data          0x00000000        0x0 dist/AWS_IOT/production/__pa_temp_4543/atcacert_pem.o
 .bss           0x00000000        0x0 dist/AWS_IOT/production/__pa_temp_4543/atcacert_pem.o
 .text.atcacert_encode_pem
                0x00000000      0x172 dist/AWS_IOT/production/__pa_temp_4543/atcacert_pem.o
 .text.atcacert_decode_pem
                0x00000000       0xba dist/AWS_IOT/production/__pa_temp_4543/atcacert_pem.o
 .rodata        0x00000000       0x7c dist/AWS_IOT/production/__pa_temp_4543/atcacert_pem.o
 .text.atcacert_encode_pem_cert
                0x00000000       0x22 dist/AWS_IOT/production/__pa_temp_4543/atcacert_pem.o
 .text.atcacert_encode_pem_csr
                0x00000000       0x22 dist/AWS_IOT/production/__pa_temp_4543/atcacert_pem.o
 .text.atcacert_decode_pem_cert
                0x00000000       0x22 dist/AWS_IOT/production/__pa_temp_4543/atcacert_pem.o
 .text.atcacert_decode_pem_csr
                0x00000000       0x22 dist/AWS_IOT/production/__pa_temp_4543/atcacert_pem.o
 .debug_info    0x00000000      0xd3c dist/AWS_IOT/production/__pa_temp_4543/atcacert_pem.o
 .debug_abbrev  0x00000000      0x16f dist/AWS_IOT/production/__pa_temp_4543/atcacert_pem.o
 .debug_loc     0x00000000      0xa16 dist/AWS_IOT/production/__pa_temp_4543/atcacert_pem.o
 .debug_aranges
                0x00000000       0x48 dist/AWS_IOT/production/__pa_temp_4543/atcacert_pem.o
 .debug_ranges  0x00000000       0x50 dist/AWS_IOT/production/__pa_temp_4543/atcacert_pem.o
 .debug_line    0x00000000      0x375 dist/AWS_IOT/production/__pa_temp_4543/atcacert_pem.o
 .debug_str     0x00000000       0x80 dist/AWS_IOT/production/__pa_temp_4543/atcacert_pem.o
 .comment       0x00000000       0x30 dist/AWS_IOT/production/__pa_temp_4543/atcacert_pem.o
 .debug_frame   0x00000000      0x16c dist/AWS_IOT/production/__pa_temp_4543/atcacert_pem.o
 .text          0x00000000        0x0 dist/AWS_IOT/production/__pa_temp_4543/atca_basic.o
 .data          0x00000000        0x0 dist/AWS_IOT/production/__pa_temp_4543/atca_basic.o
 .bss           0x00000000        0x0 dist/AWS_IOT/production/__pa_temp_4543/atca_basic.o
 .text.atcab_version
                0x00000000        0xc dist/AWS_IOT/production/__pa_temp_4543/atca_basic.o
 .text.atcab_init_device
                0x00000000       0x44 dist/AWS_IOT/production/__pa_temp_4543/atca_basic.o
 .text.atcab_get_device
                0x00000000        0xa dist/AWS_IOT/production/__pa_temp_4543/atca_basic.o
 .text.atcab_get_device_type
                0x00000000       0x16 dist/AWS_IOT/production/__pa_temp_4543/atca_basic.o
 .text.atcab_wakeup
                0x00000000       0x18 dist/AWS_IOT/production/__pa_temp_4543/atca_basic.o
 .text.atcab_idle
                0x00000000       0x18 dist/AWS_IOT/production/__pa_temp_4543/atca_basic.o
 .text.atcab_sleep
                0x00000000       0x18 dist/AWS_IOT/production/__pa_temp_4543/atca_basic.o
 .text.atcab_cfg_discover
                0x00000000       0xb4 dist/AWS_IOT/production/__pa_temp_4543/atca_basic.o
 .text._atcab_exit
                0x00000000        0x4 dist/AWS_IOT/production/__pa_temp_4543/atca_basic.o
 .rodata.atca_version
                0x00000000        0x9 dist/AWS_IOT/production/__pa_temp_4543/atca_basic.o
 .__pa__233     0x00000000       0x10 dist/AWS_IOT/production/__pa_temp_4543/atca_basic.o
 .text          0x00000000        0x0 dist/AWS_IOT/production/__pa_temp_4543/atca_basic_checkmac.o
 .data          0x00000000        0x0 dist/AWS_IOT/production/__pa_temp_4543/atca_basic_checkmac.o
 .bss           0x00000000        0x0 dist/AWS_IOT/production/__pa_temp_4543/atca_basic_checkmac.o
 .text.atcab_checkmac
                0x00000000       0xb0 dist/AWS_IOT/production/__pa_temp_4543/atca_basic_checkmac.o
 .debug_info    0x00000000      0xd7f dist/AWS_IOT/production/__pa_temp_4543/atca_basic_checkmac.o
 .debug_abbrev  0x00000000      0x16c dist/AWS_IOT/production/__pa_temp_4543/atca_basic_checkmac.o
 .debug_loc     0x00000000      0x173 dist/AWS_IOT/production/__pa_temp_4543/atca_basic_checkmac.o
 .debug_aranges
                0x00000000       0x20 dist/AWS_IOT/production/__pa_temp_4543/atca_basic_checkmac.o
 .debug_ranges  0x00000000       0x10 dist/AWS_IOT/production/__pa_temp_4543/atca_basic_checkmac.o
 .debug_line    0x00000000      0x1cb dist/AWS_IOT/production/__pa_temp_4543/atca_basic_checkmac.o
 .debug_str     0x00000000       0x20 dist/AWS_IOT/production/__pa_temp_4543/atca_basic_checkmac.o
 .comment       0x00000000       0x30 dist/AWS_IOT/production/__pa_temp_4543/atca_basic_checkmac.o
 .debug_frame   0x00000000       0x4c dist/AWS_IOT/production/__pa_temp_4543/atca_basic_checkmac.o
 .text          0x00000000        0x0 dist/AWS_IOT/production/__pa_temp_4543/atca_basic_counter.o
 .data          0x00000000        0x0 dist/AWS_IOT/production/__pa_temp_4543/atca_basic_counter.o
 .bss           0x00000000        0x0 dist/AWS_IOT/production/__pa_temp_4543/atca_basic_counter.o
 .text.atcab_counter
                0x00000000       0x78 dist/AWS_IOT/production/__pa_temp_4543/atca_basic_counter.o
 .text.atcab_counter_increment
                0x00000000        0xa dist/AWS_IOT/production/__pa_temp_4543/atca_basic_counter.o
 .text.atcab_counter_read
                0x00000000        0xa dist/AWS_IOT/production/__pa_temp_4543/atca_basic_counter.o
 .debug_info    0x00000000      0xe23 dist/AWS_IOT/production/__pa_temp_4543/atca_basic_counter.o
 .debug_abbrev  0x00000000      0x182 dist/AWS_IOT/production/__pa_temp_4543/atca_basic_counter.o
 .debug_loc     0x00000000      0x1fe dist/AWS_IOT/production/__pa_temp_4543/atca_basic_counter.o
 .debug_aranges
                0x00000000       0x30 dist/AWS_IOT/production/__pa_temp_4543/atca_basic_counter.o
 .debug_ranges  0x00000000       0x20 dist/AWS_IOT/production/__pa_temp_4543/atca_basic_counter.o
 .debug_line    0x00000000      0x1ce dist/AWS_IOT/production/__pa_temp_4543/atca_basic_counter.o
 .debug_str     0x00000000       0x38 dist/AWS_IOT/production/__pa_temp_4543/atca_basic_counter.o
 .comment       0x00000000       0x30 dist/AWS_IOT/production/__pa_temp_4543/atca_basic_counter.o
 .debug_frame   0x00000000       0x60 dist/AWS_IOT/production/__pa_temp_4543/atca_basic_counter.o
 .text          0x00000000        0x0 dist/AWS_IOT/production/__pa_temp_4543/atca_basic_derivekey.o
 .data          0x00000000        0x0 dist/AWS_IOT/production/__pa_temp_4543/atca_basic_derivekey.o
 .bss           0x00000000        0x0 dist/AWS_IOT/production/__pa_temp_4543/atca_basic_derivekey.o
 .text.atcab_derivekey
                0x00000000       0x6e dist/AWS_IOT/production/__pa_temp_4543/atca_basic_derivekey.o
 .debug_info    0x00000000      0xd59 dist/AWS_IOT/production/__pa_temp_4543/atca_basic_derivekey.o
 .debug_abbrev  0x00000000      0x15f dist/AWS_IOT/production/__pa_temp_4543/atca_basic_derivekey.o
 .debug_loc     0x00000000       0xda dist/AWS_IOT/production/__pa_temp_4543/atca_basic_derivekey.o
 .debug_aranges
                0x00000000       0x20 dist/AWS_IOT/production/__pa_temp_4543/atca_basic_derivekey.o
 .debug_ranges  0x00000000       0x10 dist/AWS_IOT/production/__pa_temp_4543/atca_basic_derivekey.o
 .debug_line    0x00000000      0x18a dist/AWS_IOT/production/__pa_temp_4543/atca_basic_derivekey.o
 .debug_str     0x00000000       0x21 dist/AWS_IOT/production/__pa_temp_4543/atca_basic_derivekey.o
 .comment       0x00000000       0x30 dist/AWS_IOT/production/__pa_temp_4543/atca_basic_derivekey.o
 .debug_frame   0x00000000       0x40 dist/AWS_IOT/production/__pa_temp_4543/atca_basic_derivekey.o
 .text          0x00000000        0x0 dist/AWS_IOT/production/__pa_temp_4543/atca_basic_ecdh.o
 .data          0x00000000        0x0 dist/AWS_IOT/production/__pa_temp_4543/atca_basic_ecdh.o
 .bss           0x00000000        0x0 dist/AWS_IOT/production/__pa_temp_4543/atca_basic_ecdh.o
 .rodata        0x00000000       0x73 dist/AWS_IOT/production/__pa_temp_4543/atca_basic_ecdh.o
 .text.atcab_ecdh_enc
                0x00000000       0x9e dist/AWS_IOT/production/__pa_temp_4543/atca_basic_ecdh.o
 .text.atcab_ecdh_ioenc
                0x00000000       0x68 dist/AWS_IOT/production/__pa_temp_4543/atca_basic_ecdh.o
 .text.atcab_ecdh_tempkey
                0x00000000       0x1c dist/AWS_IOT/production/__pa_temp_4543/atca_basic_ecdh.o
 .text.atcab_ecdh_tempkey_ioenc
                0x00000000       0x70 dist/AWS_IOT/production/__pa_temp_4543/atca_basic_ecdh.o
 .__pa__287     0x00000000       0x16 dist/AWS_IOT/production/__pa_temp_4543/atca_basic_ecdh.o
 .text          0x00000000        0x0 dist/AWS_IOT/production/__pa_temp_4543/atca_basic_gendig.o
 .data          0x00000000        0x0 dist/AWS_IOT/production/__pa_temp_4543/atca_basic_gendig.o
 .bss           0x00000000        0x0 dist/AWS_IOT/production/__pa_temp_4543/atca_basic_gendig.o
 .text.atcab_gendig
                0x00000000       0x90 dist/AWS_IOT/production/__pa_temp_4543/atca_basic_gendig.o
 .debug_info    0x00000000      0xd93 dist/AWS_IOT/production/__pa_temp_4543/atca_basic_gendig.o
 .debug_abbrev  0x00000000      0x15f dist/AWS_IOT/production/__pa_temp_4543/atca_basic_gendig.o
 .debug_loc     0x00000000      0x1bc dist/AWS_IOT/production/__pa_temp_4543/atca_basic_gendig.o
 .debug_aranges
                0x00000000       0x20 dist/AWS_IOT/production/__pa_temp_4543/atca_basic_gendig.o
 .debug_ranges  0x00000000       0x10 dist/AWS_IOT/production/__pa_temp_4543/atca_basic_gendig.o
 .debug_line    0x00000000      0x1cf dist/AWS_IOT/production/__pa_temp_4543/atca_basic_gendig.o
 .debug_str     0x00000000       0x1e dist/AWS_IOT/production/__pa_temp_4543/atca_basic_gendig.o
 .comment       0x00000000       0x30 dist/AWS_IOT/production/__pa_temp_4543/atca_basic_gendig.o
 .debug_frame   0x00000000       0x40 dist/AWS_IOT/production/__pa_temp_4543/atca_basic_gendig.o
 .text          0x00000000        0x0 dist/AWS_IOT/production/__pa_temp_4543/atca_basic_genkey.o
 .data          0x00000000        0x0 dist/AWS_IOT/production/__pa_temp_4543/atca_basic_genkey.o
 .bss           0x00000000        0x0 dist/AWS_IOT/production/__pa_temp_4543/atca_basic_genkey.o
 .text.atcab_get_pubkey
                0x00000000        0xe dist/AWS_IOT/production/__pa_temp_4543/atca_basic_genkey.o
 .text          0x00000000        0x0 dist/AWS_IOT/production/__pa_temp_4543/atca_basic_hmac.o
 .data          0x00000000        0x0 dist/AWS_IOT/production/__pa_temp_4543/atca_basic_hmac.o
 .bss           0x00000000        0x0 dist/AWS_IOT/production/__pa_temp_4543/atca_basic_hmac.o
 .text.atcab_hmac
                0x00000000       0x72 dist/AWS_IOT/production/__pa_temp_4543/atca_basic_hmac.o
 .debug_info    0x00000000      0xd3a dist/AWS_IOT/production/__pa_temp_4543/atca_basic_hmac.o
 .debug_abbrev  0x00000000      0x177 dist/AWS_IOT/production/__pa_temp_4543/atca_basic_hmac.o
 .debug_loc     0x00000000      0x131 dist/AWS_IOT/production/__pa_temp_4543/atca_basic_hmac.o
 .debug_aranges
                0x00000000       0x20 dist/AWS_IOT/production/__pa_temp_4543/atca_basic_hmac.o
 .debug_ranges  0x00000000       0x10 dist/AWS_IOT/production/__pa_temp_4543/atca_basic_hmac.o
 .debug_line    0x00000000      0x197 dist/AWS_IOT/production/__pa_temp_4543/atca_basic_hmac.o
 .debug_str     0x00000000       0x15 dist/AWS_IOT/production/__pa_temp_4543/atca_basic_hmac.o
 .comment       0x00000000       0x30 dist/AWS_IOT/production/__pa_temp_4543/atca_basic_hmac.o
 .debug_frame   0x00000000       0x40 dist/AWS_IOT/production/__pa_temp_4543/atca_basic_hmac.o
 .text          0x00000000        0x0 dist/AWS_IOT/production/__pa_temp_4543/atca_basic_info.o
 .data          0x00000000        0x0 dist/AWS_IOT/production/__pa_temp_4543/atca_basic_info.o
 .bss           0x00000000        0x0 dist/AWS_IOT/production/__pa_temp_4543/atca_basic_info.o
 .text.atcab_info_base
                0x00000000       0x6a dist/AWS_IOT/production/__pa_temp_4543/atca_basic_info.o
 .text.atcab_info
                0x00000000       0x14 dist/AWS_IOT/production/__pa_temp_4543/atca_basic_info.o
 .text.atcab_info_get_latch
                0x00000000       0x4e dist/AWS_IOT/production/__pa_temp_4543/atca_basic_info.o
 .text.atcab_info_set_latch
                0x00000000       0x10 dist/AWS_IOT/production/__pa_temp_4543/atca_basic_info.o
 .debug_info    0x00000000      0xea2 dist/AWS_IOT/production/__pa_temp_4543/atca_basic_info.o
 .debug_abbrev  0x00000000      0x1b4 dist/AWS_IOT/production/__pa_temp_4543/atca_basic_info.o
 .debug_loc     0x00000000      0x1ef dist/AWS_IOT/production/__pa_temp_4543/atca_basic_info.o
 .debug_aranges
                0x00000000       0x38 dist/AWS_IOT/production/__pa_temp_4543/atca_basic_info.o
 .debug_ranges  0x00000000       0x28 dist/AWS_IOT/production/__pa_temp_4543/atca_basic_info.o
 .debug_line    0x00000000      0x206 dist/AWS_IOT/production/__pa_temp_4543/atca_basic_info.o
 .debug_str     0x00000000       0x25 dist/AWS_IOT/production/__pa_temp_4543/atca_basic_info.o
 .comment       0x00000000       0x30 dist/AWS_IOT/production/__pa_temp_4543/atca_basic_info.o
 .debug_frame   0x00000000       0x8c dist/AWS_IOT/production/__pa_temp_4543/atca_basic_info.o
 .text          0x00000000        0x0 dist/AWS_IOT/production/__pa_temp_4543/atca_basic_kdf.o
 .data          0x00000000        0x0 dist/AWS_IOT/production/__pa_temp_4543/atca_basic_kdf.o
 .bss           0x00000000        0x0 dist/AWS_IOT/production/__pa_temp_4543/atca_basic_kdf.o
 .text.atcab_kdf
                0x00000000      0x130 dist/AWS_IOT/production/__pa_temp_4543/atca_basic_kdf.o
 .debug_info    0x00000000      0xe0d dist/AWS_IOT/production/__pa_temp_4543/atca_basic_kdf.o
 .debug_abbrev  0x00000000      0x18c dist/AWS_IOT/production/__pa_temp_4543/atca_basic_kdf.o
 .debug_loc     0x00000000      0x22b dist/AWS_IOT/production/__pa_temp_4543/atca_basic_kdf.o
 .debug_aranges
                0x00000000       0x20 dist/AWS_IOT/production/__pa_temp_4543/atca_basic_kdf.o
 .debug_ranges  0x00000000       0x10 dist/AWS_IOT/production/__pa_temp_4543/atca_basic_kdf.o
 .debug_line    0x00000000      0x1fd dist/AWS_IOT/production/__pa_temp_4543/atca_basic_kdf.o
 .debug_str     0x00000000       0x15 dist/AWS_IOT/production/__pa_temp_4543/atca_basic_kdf.o
 .comment       0x00000000       0x30 dist/AWS_IOT/production/__pa_temp_4543/atca_basic_kdf.o
 .debug_frame   0x00000000       0x7c dist/AWS_IOT/production/__pa_temp_4543/atca_basic_kdf.o
 .text          0x00000000        0x0 dist/AWS_IOT/production/__pa_temp_4543/atca_basic_lock.o
 .data          0x00000000        0x0 dist/AWS_IOT/production/__pa_temp_4543/atca_basic_lock.o
 .bss           0x00000000        0x0 dist/AWS_IOT/production/__pa_temp_4543/atca_basic_lock.o
 .text.atcab_lock_config_zone_crc
                0x00000000        0x8 dist/AWS_IOT/production/__pa_temp_4543/atca_basic_lock.o
 .text.atcab_lock_data_zone_crc
                0x00000000        0x8 dist/AWS_IOT/production/__pa_temp_4543/atca_basic_lock.o
 .text          0x00000000        0x0 dist/AWS_IOT/production/__pa_temp_4543/atca_basic_mac.o
 .data          0x00000000        0x0 dist/AWS_IOT/production/__pa_temp_4543/atca_basic_mac.o
 .bss           0x00000000        0x0 dist/AWS_IOT/production/__pa_temp_4543/atca_basic_mac.o
 .text.atcab_mac
                0x00000000       0x88 dist/AWS_IOT/production/__pa_temp_4543/atca_basic_mac.o
 .debug_info    0x00000000      0xd61 dist/AWS_IOT/production/__pa_temp_4543/atca_basic_mac.o
 .debug_abbrev  0x00000000      0x17e dist/AWS_IOT/production/__pa_temp_4543/atca_basic_mac.o
 .debug_loc     0x00000000      0x101 dist/AWS_IOT/production/__pa_temp_4543/atca_basic_mac.o
 .debug_aranges
                0x00000000       0x20 dist/AWS_IOT/production/__pa_temp_4543/atca_basic_mac.o
 .debug_ranges  0x00000000       0x10 dist/AWS_IOT/production/__pa_temp_4543/atca_basic_mac.o
 .debug_line    0x00000000      0x19c dist/AWS_IOT/production/__pa_temp_4543/atca_basic_mac.o
 .debug_str     0x00000000       0x15 dist/AWS_IOT/production/__pa_temp_4543/atca_basic_mac.o
 .comment       0x00000000       0x30 dist/AWS_IOT/production/__pa_temp_4543/atca_basic_mac.o
 .debug_frame   0x00000000       0x4c dist/AWS_IOT/production/__pa_temp_4543/atca_basic_mac.o
 .text          0x00000000        0x0 dist/AWS_IOT/production/__pa_temp_4543/atca_basic_nonce.o
 .data          0x00000000        0x0 dist/AWS_IOT/production/__pa_temp_4543/atca_basic_nonce.o
 .bss           0x00000000        0x0 dist/AWS_IOT/production/__pa_temp_4543/atca_basic_nonce.o
 .text.atcab_challenge
                0x00000000       0x10 dist/AWS_IOT/production/__pa_temp_4543/atca_basic_nonce.o
 .text.atcab_nonce
                0x00000000        0x4 dist/AWS_IOT/production/__pa_temp_4543/atca_basic_nonce.o
 .text.atcab_challenge_seed_update
                0x00000000        0xe dist/AWS_IOT/production/__pa_temp_4543/atca_basic_nonce.o
 .text.atcab_nonce_rand
                0x00000000        0x4 dist/AWS_IOT/production/__pa_temp_4543/atca_basic_nonce.o
 .text          0x00000000        0x0 dist/AWS_IOT/production/__pa_temp_4543/atca_basic_privwrite.o
 .data          0x00000000        0x0 dist/AWS_IOT/production/__pa_temp_4543/atca_basic_privwrite.o
 .bss           0x00000000        0x0 dist/AWS_IOT/production/__pa_temp_4543/atca_basic_privwrite.o
 .text.atcab_priv_write
                0x00000000      0x2b4 dist/AWS_IOT/production/__pa_temp_4543/atca_basic_privwrite.o
 .debug_info    0x00000000     0x129d dist/AWS_IOT/production/__pa_temp_4543/atca_basic_privwrite.o
 .debug_abbrev  0x00000000      0x214 dist/AWS_IOT/production/__pa_temp_4543/atca_basic_privwrite.o
 .debug_loc     0x00000000      0x19d dist/AWS_IOT/production/__pa_temp_4543/atca_basic_privwrite.o
 .debug_aranges
                0x00000000       0x20 dist/AWS_IOT/production/__pa_temp_4543/atca_basic_privwrite.o
 .debug_ranges  0x00000000       0x10 dist/AWS_IOT/production/__pa_temp_4543/atca_basic_privwrite.o
 .debug_line    0x00000000      0x2ea dist/AWS_IOT/production/__pa_temp_4543/atca_basic_privwrite.o
 .debug_str     0x00000000       0xa6 dist/AWS_IOT/production/__pa_temp_4543/atca_basic_privwrite.o
 .comment       0x00000000       0x30 dist/AWS_IOT/production/__pa_temp_4543/atca_basic_privwrite.o
 .debug_frame   0x00000000       0x88 dist/AWS_IOT/production/__pa_temp_4543/atca_basic_privwrite.o
 .text          0x00000000        0x0 dist/AWS_IOT/production/__pa_temp_4543/atca_basic_random.o
 .data          0x00000000        0x0 dist/AWS_IOT/production/__pa_temp_4543/atca_basic_random.o
 .bss           0x00000000        0x0 dist/AWS_IOT/production/__pa_temp_4543/atca_basic_random.o
 .text          0x00000000        0x0 dist/AWS_IOT/production/__pa_temp_4543/atca_basic_read.o
 .data          0x00000000        0x0 dist/AWS_IOT/production/__pa_temp_4543/atca_basic_read.o
 .bss           0x00000000        0x0 dist/AWS_IOT/production/__pa_temp_4543/atca_basic_read.o
 .text.atcab_is_slot_locked
                0x00000000       0x82 dist/AWS_IOT/production/__pa_temp_4543/atca_basic_read.o
 .text.atcab_is_locked
                0x00000000       0x72 dist/AWS_IOT/production/__pa_temp_4543/atca_basic_read.o
 .rodata        0x00000000      0x130 dist/AWS_IOT/production/__pa_temp_4543/atca_basic_read.o
 .text.atcab_read_enc
                0x00000000      0x242 dist/AWS_IOT/production/__pa_temp_4543/atca_basic_read.o
 .text.atcab_read_sig
                0x00000000       0x5c dist/AWS_IOT/production/__pa_temp_4543/atca_basic_read.o
 .text.atcab_read_pubkey
                0x00000000       0xc6 dist/AWS_IOT/production/__pa_temp_4543/atca_basic_read.o
 .text.atcab_read_config_zone
                0x00000000       0x3c dist/AWS_IOT/production/__pa_temp_4543/atca_basic_read.o
 .text.atcab_cmp_config_zone
                0x00000000      0x124 dist/AWS_IOT/production/__pa_temp_4543/atca_basic_read.o
 .__pa__170     0x00000000        0xa dist/AWS_IOT/production/__pa_temp_4543/atca_basic_read.o
 .text          0x00000000        0x0 dist/AWS_IOT/production/__pa_temp_4543/atca_basic_secureboot.o
 .data          0x00000000        0x0 dist/AWS_IOT/production/__pa_temp_4543/atca_basic_secureboot.o
 .bss           0x00000000        0x0 dist/AWS_IOT/production/__pa_temp_4543/atca_basic_secureboot.o
 .text.atcab_secureboot
                0x00000000       0x9e dist/AWS_IOT/production/__pa_temp_4543/atca_basic_secureboot.o
 .text.atcab_secureboot_mac
                0x00000000      0x1b6 dist/AWS_IOT/production/__pa_temp_4543/atca_basic_secureboot.o
 .__pa__122     0x00000000        0xa dist/AWS_IOT/production/__pa_temp_4543/atca_basic_secureboot.o
 .__pa__240     0x00000000        0xc dist/AWS_IOT/production/__pa_temp_4543/atca_basic_secureboot.o
 .text          0x00000000        0x0 dist/AWS_IOT/production/__pa_temp_4543/atca_basic_selftest.o
 .data          0x00000000        0x0 dist/AWS_IOT/production/__pa_temp_4543/atca_basic_selftest.o
 .bss           0x00000000        0x0 dist/AWS_IOT/production/__pa_temp_4543/atca_basic_selftest.o
 .text.atcab_selftest
                0x00000000       0x82 dist/AWS_IOT/production/__pa_temp_4543/atca_basic_selftest.o
 .debug_info    0x00000000      0xd54 dist/AWS_IOT/production/__pa_temp_4543/atca_basic_selftest.o
 .debug_abbrev  0x00000000      0x158 dist/AWS_IOT/production/__pa_temp_4543/atca_basic_selftest.o
 .debug_loc     0x00000000       0xf7 dist/AWS_IOT/production/__pa_temp_4543/atca_basic_selftest.o
 .debug_aranges
                0x00000000       0x20 dist/AWS_IOT/production/__pa_temp_4543/atca_basic_selftest.o
 .debug_ranges  0x00000000       0x10 dist/AWS_IOT/production/__pa_temp_4543/atca_basic_selftest.o
 .debug_line    0x00000000      0x19b dist/AWS_IOT/production/__pa_temp_4543/atca_basic_selftest.o
 .debug_str     0x00000000       0x20 dist/AWS_IOT/production/__pa_temp_4543/atca_basic_selftest.o
 .comment       0x00000000       0x30 dist/AWS_IOT/production/__pa_temp_4543/atca_basic_selftest.o
 .debug_frame   0x00000000       0x44 dist/AWS_IOT/production/__pa_temp_4543/atca_basic_selftest.o
 .text          0x00000000        0x0 dist/AWS_IOT/production/__pa_temp_4543/atca_basic_sha.o
 .data          0x00000000        0x0 dist/AWS_IOT/production/__pa_temp_4543/atca_basic_sha.o
 .bss           0x00000000        0x0 dist/AWS_IOT/production/__pa_temp_4543/atca_basic_sha.o
 .text.atcab_sha_base
                0x00000000       0xec dist/AWS_IOT/production/__pa_temp_4543/atca_basic_sha.o
 .text.atcab_sha_start
                0x00000000       0x20 dist/AWS_IOT/production/__pa_temp_4543/atca_basic_sha.o
 .text.atcab_sha_update
                0x00000000       0x1c dist/AWS_IOT/production/__pa_temp_4543/atca_basic_sha.o
 .text.atcab_sha_end
                0x00000000       0x30 dist/AWS_IOT/production/__pa_temp_4543/atca_basic_sha.o
 .text.atcab_sha_read_context
                0x00000000       0x18 dist/AWS_IOT/production/__pa_temp_4543/atca_basic_sha.o
 .text.atcab_sha_write_context
                0x00000000       0x16 dist/AWS_IOT/production/__pa_temp_4543/atca_basic_sha.o
 .text.atcab_hw_sha2_256_init
                0x00000000        0xe dist/AWS_IOT/production/__pa_temp_4543/atca_basic_sha.o
 .text.atcab_hw_sha2_256_update
                0x00000000      0x15c dist/AWS_IOT/production/__pa_temp_4543/atca_basic_sha.o
 .text.atcab_hw_sha2_256_finish
                0x00000000      0x156 dist/AWS_IOT/production/__pa_temp_4543/atca_basic_sha.o
 .text.atcab_hw_sha2_256
                0x00000000       0x58 dist/AWS_IOT/production/__pa_temp_4543/atca_basic_sha.o
 .text.atcab_sha
                0x00000000        0xa dist/AWS_IOT/production/__pa_temp_4543/atca_basic_sha.o
 .text.atcab_sha_hmac_init
                0x00000000       0x22 dist/AWS_IOT/production/__pa_temp_4543/atca_basic_sha.o
 .text.atcab_sha_hmac_update
                0x00000000      0x176 dist/AWS_IOT/production/__pa_temp_4543/atca_basic_sha.o
 .text.atcab_sha_hmac_finish
                0x00000000       0x5e dist/AWS_IOT/production/__pa_temp_4543/atca_basic_sha.o
 .text.atcab_sha_hmac
                0x00000000       0x68 dist/AWS_IOT/production/__pa_temp_4543/atca_basic_sha.o
 .__pa__4       0x00000000       0x1a dist/AWS_IOT/production/__pa_temp_4543/atca_basic_sha.o
 .__pa__25      0x00000000        0xa dist/AWS_IOT/production/__pa_temp_4543/atca_basic_sha.o
 .__pa__189     0x00000000       0x12 dist/AWS_IOT/production/__pa_temp_4543/atca_basic_sha.o
 .__pa__273     0x00000000        0x8 dist/AWS_IOT/production/__pa_temp_4543/atca_basic_sha.o
 .__pa__285     0x00000000       0x14 dist/AWS_IOT/production/__pa_temp_4543/atca_basic_sha.o
 .text          0x00000000        0x0 dist/AWS_IOT/production/__pa_temp_4543/atca_basic_sign.o
 .data          0x00000000        0x0 dist/AWS_IOT/production/__pa_temp_4543/atca_basic_sign.o
 .bss           0x00000000        0x0 dist/AWS_IOT/production/__pa_temp_4543/atca_basic_sign.o
 .text.atcab_sign_internal
                0x00000000       0x10 dist/AWS_IOT/production/__pa_temp_4543/atca_basic_sign.o
 .text          0x00000000        0x0 dist/AWS_IOT/production/__pa_temp_4543/atca_basic_updateextra.o
 .data          0x00000000        0x0 dist/AWS_IOT/production/__pa_temp_4543/atca_basic_updateextra.o
 .bss           0x00000000        0x0 dist/AWS_IOT/production/__pa_temp_4543/atca_basic_updateextra.o
 .text.atcab_updateextra
                0x00000000       0x58 dist/AWS_IOT/production/__pa_temp_4543/atca_basic_updateextra.o
 .text          0x00000000        0x0 dist/AWS_IOT/production/__pa_temp_4543/atca_basic_verify.o
 .data          0x00000000        0x0 dist/AWS_IOT/production/__pa_temp_4543/atca_basic_verify.o
 .bss           0x00000000        0x0 dist/AWS_IOT/production/__pa_temp_4543/atca_basic_verify.o
 .text.atcab_verify_extern_stored_mac.part.0
                0x00000000      0x12c dist/AWS_IOT/production/__pa_temp_4543/atca_basic_verify.o
 .text.atcab_verify_extern_mac
                0x00000000       0x5e dist/AWS_IOT/production/__pa_temp_4543/atca_basic_verify.o
 .text.atcab_verify_stored
                0x00000000       0x8c dist/AWS_IOT/production/__pa_temp_4543/atca_basic_verify.o
 .text.atcab_verify_stored_mac
                0x00000000       0x5a dist/AWS_IOT/production/__pa_temp_4543/atca_basic_verify.o
 .text.atcab_verify_validate
                0x00000000       0x42 dist/AWS_IOT/production/__pa_temp_4543/atca_basic_verify.o
 .text.atcab_verify_invalidate
                0x00000000       0x42 dist/AWS_IOT/production/__pa_temp_4543/atca_basic_verify.o
 .__pa__40      0x00000000       0x12 dist/AWS_IOT/production/__pa_temp_4543/atca_basic_verify.o
 .__pa__155     0x00000000        0xa dist/AWS_IOT/production/__pa_temp_4543/atca_basic_verify.o
 .__pa__211     0x00000000        0xa dist/AWS_IOT/production/__pa_temp_4543/atca_basic_verify.o
 .text          0x00000000        0x0 dist/AWS_IOT/production/__pa_temp_4543/atca_basic_write.o
 .data          0x00000000        0x0 dist/AWS_IOT/production/__pa_temp_4543/atca_basic_write.o
 .bss           0x00000000        0x0 dist/AWS_IOT/production/__pa_temp_4543/atca_basic_write.o
 .text.atcab_write
                0x00000000       0x94 dist/AWS_IOT/production/__pa_temp_4543/atca_basic_write.o
 .text.atcab_write_zone
                0x00000000       0x6e dist/AWS_IOT/production/__pa_temp_4543/atca_basic_write.o
 .rodata        0x00000000       0xeb dist/AWS_IOT/production/__pa_temp_4543/atca_basic_write.o
 .text.atcab_write_enc
                0x00000000      0x316 dist/AWS_IOT/production/__pa_temp_4543/atca_basic_write.o
 .text.atcab_write_pubkey
                0x00000000       0xa0 dist/AWS_IOT/production/__pa_temp_4543/atca_basic_write.o
 .text.atcab_write_bytes_zone
                0x00000000      0x16a dist/AWS_IOT/production/__pa_temp_4543/atca_basic_write.o
 .text.atcab_write_config_zone
                0x00000000       0x84 dist/AWS_IOT/production/__pa_temp_4543/atca_basic_write.o
 .text.atcab_write_config_counter
                0x00000000       0xf0 dist/AWS_IOT/production/__pa_temp_4543/atca_basic_write.o
 .__pa__31      0x00000000        0x8 dist/AWS_IOT/production/__pa_temp_4543/atca_basic_write.o
 .__pa__283     0x00000000        0xe dist/AWS_IOT/production/__pa_temp_4543/atca_basic_write.o
 .__pa__284     0x00000000       0x10 dist/AWS_IOT/production/__pa_temp_4543/atca_basic_write.o
 .text          0x00000000        0x0 dist/AWS_IOT/production/__pa_temp_4543/atca_helpers.o
 .data          0x00000000        0x0 dist/AWS_IOT/production/__pa_temp_4543/atca_helpers.o
 .bss           0x00000000        0x0 dist/AWS_IOT/production/__pa_temp_4543/atca_helpers.o
 .rodata        0x00000000      0x16b dist/AWS_IOT/production/__pa_temp_4543/atca_helpers.o
 .text.atcab_base64decode_block
                0x00000000       0xde dist/AWS_IOT/production/__pa_temp_4543/atca_helpers.o
 .text.hex_digit_to_num
                0x00000000       0x26 dist/AWS_IOT/production/__pa_temp_4543/atca_helpers.o
 .text.atcab_reversal
                0x00000000       0x3c dist/AWS_IOT/production/__pa_temp_4543/atca_helpers.o
 .text.atcab_bin2hex_
                0x00000000      0x182 dist/AWS_IOT/production/__pa_temp_4543/atca_helpers.o
 .text.atcab_bin2hex
                0x00000000       0x1c dist/AWS_IOT/production/__pa_temp_4543/atca_helpers.o
 .text.isDigit  0x00000000        0xe dist/AWS_IOT/production/__pa_temp_4543/atca_helpers.o
 .text.isWhiteSpace
                0x00000000       0x1e dist/AWS_IOT/production/__pa_temp_4543/atca_helpers.o
 .text.isAlpha  0x00000000       0x10 dist/AWS_IOT/production/__pa_temp_4543/atca_helpers.o
 .text.isHexAlpha
                0x00000000       0x10 dist/AWS_IOT/production/__pa_temp_4543/atca_helpers.o
 .text.isHexDigit
                0x00000000       0x14 dist/AWS_IOT/production/__pa_temp_4543/atca_helpers.o
 .text.atcab_hex2bin_
                0x00000000       0xe2 dist/AWS_IOT/production/__pa_temp_4543/atca_helpers.o
 .text.atcab_hex2bin
                0x00000000        0xc dist/AWS_IOT/production/__pa_temp_4543/atca_helpers.o
 .text.isHex    0x00000000       0x1e dist/AWS_IOT/production/__pa_temp_4543/atca_helpers.o
 .text.packHex  0x00000000       0x84 dist/AWS_IOT/production/__pa_temp_4543/atca_helpers.o
 .text.atcab_printbin
                0x00000000       0xbc dist/AWS_IOT/production/__pa_temp_4543/atca_helpers.o
 .text.atcab_printbin_label
                0x00000000       0x36 dist/AWS_IOT/production/__pa_temp_4543/atca_helpers.o
 .text.atcab_printbin_sp
                0x00000000        0x6 dist/AWS_IOT/production/__pa_temp_4543/atca_helpers.o
 .text.isBase64Digit
                0x00000000       0x3e dist/AWS_IOT/production/__pa_temp_4543/atca_helpers.o
 .text.isBase64
                0x00000000       0x1e dist/AWS_IOT/production/__pa_temp_4543/atca_helpers.o
 .text.base64Index
                0x00000000       0x46 dist/AWS_IOT/production/__pa_temp_4543/atca_helpers.o
 .text.base64Char
                0x00000000       0x3e dist/AWS_IOT/production/__pa_temp_4543/atca_helpers.o
 .text.atcab_base64decode_
                0x00000000      0x17c dist/AWS_IOT/production/__pa_temp_4543/atca_helpers.o
 .text.atcab_base64encode_
                0x00000000      0x2b6 dist/AWS_IOT/production/__pa_temp_4543/atca_helpers.o
 .text.atcab_base64encode
                0x00000000       0x12 dist/AWS_IOT/production/__pa_temp_4543/atca_helpers.o
 .text.atcab_base64decode
                0x00000000       0x12 dist/AWS_IOT/production/__pa_temp_4543/atca_helpers.o
 .data.atcab_b64rules_urlsafe
                0x00000000        0x4 dist/AWS_IOT/production/__pa_temp_4543/atca_helpers.o
 .data.atcab_b64rules_mime
                0x00000000        0x4 dist/AWS_IOT/production/__pa_temp_4543/atca_helpers.o
 .data.atcab_b64rules_default
                0x00000000        0x4 dist/AWS_IOT/production/__pa_temp_4543/atca_helpers.o
 .debug_info    0x00000000     0x1998 dist/AWS_IOT/production/__pa_temp_4543/atca_helpers.o
 .debug_abbrev  0x00000000      0x309 dist/AWS_IOT/production/__pa_temp_4543/atca_helpers.o
 .debug_loc     0x00000000     0x1eaf dist/AWS_IOT/production/__pa_temp_4543/atca_helpers.o
 .debug_aranges
                0x00000000       0xe0 dist/AWS_IOT/production/__pa_temp_4543/atca_helpers.o
 .debug_ranges  0x00000000      0x130 dist/AWS_IOT/production/__pa_temp_4543/atca_helpers.o
 .debug_line    0x00000000      0xa1d dist/AWS_IOT/production/__pa_temp_4543/atca_helpers.o
 .debug_str     0x00000000       0x85 dist/AWS_IOT/production/__pa_temp_4543/atca_helpers.o
 .comment       0x00000000       0x30 dist/AWS_IOT/production/__pa_temp_4543/atca_helpers.o
 .debug_frame   0x00000000      0x434 dist/AWS_IOT/production/__pa_temp_4543/atca_helpers.o
 .__pa__16      0x00000000       0x14 dist/AWS_IOT/production/__pa_temp_4543/atca_helpers.o
 .text          0x00000000        0x0 dist/AWS_IOT/production/__pa_temp_4543/sha1_routines.o
 .data          0x00000000        0x0 dist/AWS_IOT/production/__pa_temp_4543/sha1_routines.o
 .bss           0x00000000        0x0 dist/AWS_IOT/production/__pa_temp_4543/sha1_routines.o
 .text.CL_hashInit
                0x00000000       0x1a dist/AWS_IOT/production/__pa_temp_4543/sha1_routines.o
 .text.shaEngine
                0x00000000      0x2f4 dist/AWS_IOT/production/__pa_temp_4543/sha1_routines.o
 .text.CL_hashUpdate
                0x00000000      0x102 dist/AWS_IOT/production/__pa_temp_4543/sha1_routines.o
 .text.CL_hashFinal
                0x00000000      0x12c dist/AWS_IOT/production/__pa_temp_4543/sha1_routines.o
 .text.CL_hash  0x00000000       0x50 dist/AWS_IOT/production/__pa_temp_4543/sha1_routines.o
 .rodata.hashContext_h_init.2122
                0x00000000       0x14 dist/AWS_IOT/production/__pa_temp_4543/sha1_routines.o
 .__pa__1       0x00000000        0xa dist/AWS_IOT/production/__pa_temp_4543/sha1_routines.o
 .__pa__5       0x00000000        0xa dist/AWS_IOT/production/__pa_temp_4543/sha1_routines.o
 .__pa__50      0x00000000        0xc dist/AWS_IOT/production/__pa_temp_4543/sha1_routines.o
 .__pa__77      0x00000000        0xc dist/AWS_IOT/production/__pa_temp_4543/sha1_routines.o
 .__pa__85      0x00000000        0xa dist/AWS_IOT/production/__pa_temp_4543/sha1_routines.o
 .__pa__163     0x00000000        0xa dist/AWS_IOT/production/__pa_temp_4543/sha1_routines.o
 .__pa__217     0x00000000       0x16 dist/AWS_IOT/production/__pa_temp_4543/sha1_routines.o
 .__pa__221     0x00000000        0xc dist/AWS_IOT/production/__pa_temp_4543/sha1_routines.o
 .__pa__222     0x00000000        0xa dist/AWS_IOT/production/__pa_temp_4543/sha1_routines.o
 .__pa__223     0x00000000        0xc dist/AWS_IOT/production/__pa_temp_4543/sha1_routines.o
 .__pa__225     0x00000000        0xc dist/AWS_IOT/production/__pa_temp_4543/sha1_routines.o
 .__pa__226     0x00000000       0x16 dist/AWS_IOT/production/__pa_temp_4543/sha1_routines.o
 .__pa__227     0x00000000       0x12 dist/AWS_IOT/production/__pa_temp_4543/sha1_routines.o
 .text          0x00000000        0x0 dist/AWS_IOT/production/__pa_temp_4543/sha2_routines.o
 .data          0x00000000        0x0 dist/AWS_IOT/production/__pa_temp_4543/sha2_routines.o
 .bss           0x00000000        0x0 dist/AWS_IOT/production/__pa_temp_4543/sha2_routines.o
 .text.sw_sha256_process
                0x00000000      0x74a dist/AWS_IOT/production/__pa_temp_4543/sha2_routines.o
 .text.sw_sha256_init
                0x00000000       0x30 dist/AWS_IOT/production/__pa_temp_4543/sha2_routines.o
 .text.sw_sha256_update
                0x00000000      0x170 dist/AWS_IOT/production/__pa_temp_4543/sha2_routines.o
 .text.sw_sha256_final
                0x00000000      0x11c dist/AWS_IOT/production/__pa_temp_4543/sha2_routines.o
 .text.sw_sha256
                0x00000000       0x54 dist/AWS_IOT/production/__pa_temp_4543/sha2_routines.o
 .rodata.k.1757
                0x00000000      0x100 dist/AWS_IOT/production/__pa_temp_4543/sha2_routines.o
 .rodata.hash_init.1789
                0x00000000       0x20 dist/AWS_IOT/production/__pa_temp_4543/sha2_routines.o
 .debug_info    0x00000000      0x82c dist/AWS_IOT/production/__pa_temp_4543/sha2_routines.o
 .debug_abbrev  0x00000000      0x159 dist/AWS_IOT/production/__pa_temp_4543/sha2_routines.o
 .debug_loc     0x00000000      0xd8b dist/AWS_IOT/production/__pa_temp_4543/sha2_routines.o
 .debug_aranges
                0x00000000       0x40 dist/AWS_IOT/production/__pa_temp_4543/sha2_routines.o
 .debug_ranges  0x00000000       0x30 dist/AWS_IOT/production/__pa_temp_4543/sha2_routines.o
 .debug_line    0x00000000      0x2dd dist/AWS_IOT/production/__pa_temp_4543/sha2_routines.o
 .debug_str     0x00000000        0xc dist/AWS_IOT/production/__pa_temp_4543/sha2_routines.o
 .comment       0x00000000       0x30 dist/AWS_IOT/production/__pa_temp_4543/sha2_routines.o
 .debug_frame   0x00000000      0x190 dist/AWS_IOT/production/__pa_temp_4543/sha2_routines.o
 .__pa__156     0x00000000       0x16 dist/AWS_IOT/production/__pa_temp_4543/sha2_routines.o
 .__pa__164     0x00000000       0x16 dist/AWS_IOT/production/__pa_temp_4543/sha2_routines.o
 .__pa__192     0x00000000        0x8 dist/AWS_IOT/production/__pa_temp_4543/sha2_routines.o
 .__pa__193     0x00000000        0xc dist/AWS_IOT/production/__pa_temp_4543/sha2_routines.o
 .__pa__194     0x00000000        0xc dist/AWS_IOT/production/__pa_temp_4543/sha2_routines.o
 .__pa__195     0x00000000        0xc dist/AWS_IOT/production/__pa_temp_4543/sha2_routines.o
 .__pa__196     0x00000000        0xc dist/AWS_IOT/production/__pa_temp_4543/sha2_routines.o
 .__pa__197     0x00000000        0xc dist/AWS_IOT/production/__pa_temp_4543/sha2_routines.o
 .__pa__198     0x00000000       0x14 dist/AWS_IOT/production/__pa_temp_4543/sha2_routines.o
 .__pa__212     0x00000000        0xe dist/AWS_IOT/production/__pa_temp_4543/sha2_routines.o
 .__pa__224     0x00000000        0xc dist/AWS_IOT/production/__pa_temp_4543/sha2_routines.o
 .__pa__229     0x00000000        0xe dist/AWS_IOT/production/__pa_temp_4543/sha2_routines.o
 .__pa__230     0x00000000        0xe dist/AWS_IOT/production/__pa_temp_4543/sha2_routines.o
 .__pa__231     0x00000000        0xe dist/AWS_IOT/production/__pa_temp_4543/sha2_routines.o
 .__pa__258     0x00000000        0xa dist/AWS_IOT/production/__pa_temp_4543/sha2_routines.o
 .__pa__263     0x00000000       0x12 dist/AWS_IOT/production/__pa_temp_4543/sha2_routines.o
 .__pa__266     0x00000000        0xa dist/AWS_IOT/production/__pa_temp_4543/sha2_routines.o
 .__pa__275     0x00000000        0xe dist/AWS_IOT/production/__pa_temp_4543/sha2_routines.o
 .__pa__276     0x00000000        0xc dist/AWS_IOT/production/__pa_temp_4543/sha2_routines.o
 .__pa__277     0x00000000        0xa dist/AWS_IOT/production/__pa_temp_4543/sha2_routines.o
 .__pa__278     0x00000000        0xe dist/AWS_IOT/production/__pa_temp_4543/sha2_routines.o
 .__pa__279     0x00000000       0x12 dist/AWS_IOT/production/__pa_temp_4543/sha2_routines.o
 .__pa__280     0x00000000        0xa dist/AWS_IOT/production/__pa_temp_4543/sha2_routines.o
 .__pa__281     0x00000000        0xa dist/AWS_IOT/production/__pa_temp_4543/sha2_routines.o
 .__pa__282     0x00000000       0x16 dist/AWS_IOT/production/__pa_temp_4543/sha2_routines.o
 .text          0x00000000        0x0 build/AWS_IOT/production/mcc_generated_files/CryptoAuthenticationLibrary/crypto/atca_crypto_sw_ecdsa.o
 .data          0x00000000        0x0 build/AWS_IOT/production/mcc_generated_files/CryptoAuthenticationLibrary/crypto/atca_crypto_sw_ecdsa.o
 .bss           0x00000000        0x0 build/AWS_IOT/production/mcc_generated_files/CryptoAuthenticationLibrary/crypto/atca_crypto_sw_ecdsa.o
 .text.atcac_sw_ecdsa_verify_p256
                0x00000000        0x6 build/AWS_IOT/production/mcc_generated_files/CryptoAuthenticationLibrary/crypto/atca_crypto_sw_ecdsa.o
 .debug_info    0x00000000      0x5df build/AWS_IOT/production/mcc_generated_files/CryptoAuthenticationLibrary/crypto/atca_crypto_sw_ecdsa.o
 .debug_abbrev  0x00000000       0x90 build/AWS_IOT/production/mcc_generated_files/CryptoAuthenticationLibrary/crypto/atca_crypto_sw_ecdsa.o
 .debug_loc     0x00000000       0x26 build/AWS_IOT/production/mcc_generated_files/CryptoAuthenticationLibrary/crypto/atca_crypto_sw_ecdsa.o
 .debug_aranges
                0x00000000       0x20 build/AWS_IOT/production/mcc_generated_files/CryptoAuthenticationLibrary/crypto/atca_crypto_sw_ecdsa.o
 .debug_ranges  0x00000000       0x10 build/AWS_IOT/production/mcc_generated_files/CryptoAuthenticationLibrary/crypto/atca_crypto_sw_ecdsa.o
 .debug_line    0x00000000       0xf7 build/AWS_IOT/production/mcc_generated_files/CryptoAuthenticationLibrary/crypto/atca_crypto_sw_ecdsa.o
 .debug_str     0x00000000        0x0 build/AWS_IOT/production/mcc_generated_files/CryptoAuthenticationLibrary/crypto/atca_crypto_sw_ecdsa.o
 .comment       0x00000000       0x30 build/AWS_IOT/production/mcc_generated_files/CryptoAuthenticationLibrary/crypto/atca_crypto_sw_ecdsa.o
 .debug_frame   0x00000000       0x24 build/AWS_IOT/production/mcc_generated_files/CryptoAuthenticationLibrary/crypto/atca_crypto_sw_ecdsa.o
 .text          0x00000000        0x0 build/AWS_IOT/production/mcc_generated_files/CryptoAuthenticationLibrary/crypto/atca_crypto_sw_rand.o
 .data          0x00000000        0x0 build/AWS_IOT/production/mcc_generated_files/CryptoAuthenticationLibrary/crypto/atca_crypto_sw_rand.o
 .bss           0x00000000        0x0 build/AWS_IOT/production/mcc_generated_files/CryptoAuthenticationLibrary/crypto/atca_crypto_sw_rand.o
 .text.atcac_sw_random
                0x00000000        0x6 build/AWS_IOT/production/mcc_generated_files/CryptoAuthenticationLibrary/crypto/atca_crypto_sw_rand.o
 .debug_info    0x00000000      0x5c4 build/AWS_IOT/production/mcc_generated_files/CryptoAuthenticationLibrary/crypto/atca_crypto_sw_rand.o
 .debug_abbrev  0x00000000       0x89 build/AWS_IOT/production/mcc_generated_files/CryptoAuthenticationLibrary/crypto/atca_crypto_sw_rand.o
 .debug_loc     0x00000000       0x26 build/AWS_IOT/production/mcc_generated_files/CryptoAuthenticationLibrary/crypto/atca_crypto_sw_rand.o
 .debug_aranges
                0x00000000       0x20 build/AWS_IOT/production/mcc_generated_files/CryptoAuthenticationLibrary/crypto/atca_crypto_sw_rand.o
 .debug_ranges  0x00000000       0x10 build/AWS_IOT/production/mcc_generated_files/CryptoAuthenticationLibrary/crypto/atca_crypto_sw_rand.o
 .debug_line    0x00000000      0x139 build/AWS_IOT/production/mcc_generated_files/CryptoAuthenticationLibrary/crypto/atca_crypto_sw_rand.o
 .debug_str     0x00000000        0x0 build/AWS_IOT/production/mcc_generated_files/CryptoAuthenticationLibrary/crypto/atca_crypto_sw_rand.o
 .comment       0x00000000       0x30 build/AWS_IOT/production/mcc_generated_files/CryptoAuthenticationLibrary/crypto/atca_crypto_sw_rand.o
 .debug_frame   0x00000000       0x24 build/AWS_IOT/production/mcc_generated_files/CryptoAuthenticationLibrary/crypto/atca_crypto_sw_rand.o
 .text          0x00000000        0x0 dist/AWS_IOT/production/__pa_temp_4543/atca_crypto_sw_sha1.o
 .data          0x00000000        0x0 dist/AWS_IOT/production/__pa_temp_4543/atca_crypto_sw_sha1.o
 .bss           0x00000000        0x0 dist/AWS_IOT/production/__pa_temp_4543/atca_crypto_sw_sha1.o
 .text.atcac_sw_sha1_init
                0x00000000        0xa dist/AWS_IOT/production/__pa_temp_4543/atca_crypto_sw_sha1.o
 .text.atcac_sw_sha1_update
                0x00000000        0xa dist/AWS_IOT/production/__pa_temp_4543/atca_crypto_sw_sha1.o
 .text.atcac_sw_sha1_finish
                0x00000000        0xa dist/AWS_IOT/production/__pa_temp_4543/atca_crypto_sw_sha1.o
 .text.atcac_sw_sha1
                0x00000000       0x54 dist/AWS_IOT/production/__pa_temp_4543/atca_crypto_sw_sha1.o
 .debug_info    0x00000000      0x94a dist/AWS_IOT/production/__pa_temp_4543/atca_crypto_sw_sha1.o
 .debug_abbrev  0x00000000      0x174 dist/AWS_IOT/production/__pa_temp_4543/atca_crypto_sw_sha1.o
 .debug_loc     0x00000000      0x1e4 dist/AWS_IOT/production/__pa_temp_4543/atca_crypto_sw_sha1.o
 .debug_aranges
                0x00000000       0x38 dist/AWS_IOT/production/__pa_temp_4543/atca_crypto_sw_sha1.o
 .debug_ranges  0x00000000       0x28 dist/AWS_IOT/production/__pa_temp_4543/atca_crypto_sw_sha1.o
 .debug_line    0x00000000      0x20b dist/AWS_IOT/production/__pa_temp_4543/atca_crypto_sw_sha1.o
 .debug_str     0x00000000       0x31 dist/AWS_IOT/production/__pa_temp_4543/atca_crypto_sw_sha1.o
 .comment       0x00000000       0x30 dist/AWS_IOT/production/__pa_temp_4543/atca_crypto_sw_sha1.o
 .debug_frame   0x00000000       0x84 dist/AWS_IOT/production/__pa_temp_4543/atca_crypto_sw_sha1.o
 .text          0x00000000        0x0 dist/AWS_IOT/production/__pa_temp_4543/atca_crypto_sw_sha2.o
 .data          0x00000000        0x0 dist/AWS_IOT/production/__pa_temp_4543/atca_crypto_sw_sha2.o
 .bss           0x00000000        0x0 dist/AWS_IOT/production/__pa_temp_4543/atca_crypto_sw_sha2.o
 .text.atcac_sw_sha2_256_init
                0x00000000        0xa dist/AWS_IOT/production/__pa_temp_4543/atca_crypto_sw_sha2.o
 .text.atcac_sw_sha2_256_update
                0x00000000       0x10 dist/AWS_IOT/production/__pa_temp_4543/atca_crypto_sw_sha2.o
 .text.atcac_sw_sha2_256_finish
                0x00000000        0xa dist/AWS_IOT/production/__pa_temp_4543/atca_crypto_sw_sha2.o
 .text.atcac_sw_sha2_256
                0x00000000       0x58 dist/AWS_IOT/production/__pa_temp_4543/atca_crypto_sw_sha2.o
 .debug_info    0x00000000      0x947 dist/AWS_IOT/production/__pa_temp_4543/atca_crypto_sw_sha2.o
 .debug_abbrev  0x00000000      0x174 dist/AWS_IOT/production/__pa_temp_4543/atca_crypto_sw_sha2.o
 .debug_loc     0x00000000      0x1f4 dist/AWS_IOT/production/__pa_temp_4543/atca_crypto_sw_sha2.o
 .debug_aranges
                0x00000000       0x38 dist/AWS_IOT/production/__pa_temp_4543/atca_crypto_sw_sha2.o
 .debug_ranges  0x00000000       0x28 dist/AWS_IOT/production/__pa_temp_4543/atca_crypto_sw_sha2.o
 .debug_line    0x00000000      0x20b dist/AWS_IOT/production/__pa_temp_4543/atca_crypto_sw_sha2.o
 .debug_str     0x00000000       0x3a dist/AWS_IOT/production/__pa_temp_4543/atca_crypto_sw_sha2.o
 .comment       0x00000000       0x30 dist/AWS_IOT/production/__pa_temp_4543/atca_crypto_sw_sha2.o
 .debug_frame   0x00000000       0x84 dist/AWS_IOT/production/__pa_temp_4543/atca_crypto_sw_sha2.o
 .text          0x00000000        0x0 dist/AWS_IOT/production/__pa_temp_4543/atca_hal.o
 .data          0x00000000        0x0 dist/AWS_IOT/production/__pa_temp_4543/atca_hal.o
 .bss           0x00000000        0x0 dist/AWS_IOT/production/__pa_temp_4543/atca_hal.o
 .text          0x00000000        0x0 dist/AWS_IOT/production/__pa_temp_4543/atca_i2c_hal.o
 .data          0x00000000        0x0 dist/AWS_IOT/production/__pa_temp_4543/atca_i2c_hal.o
 .bss           0x00000000        0x0 dist/AWS_IOT/production/__pa_temp_4543/atca_i2c_hal.o
 .text.hal_i2c_discover_buses
                0x00000000        0x4 dist/AWS_IOT/production/__pa_temp_4543/atca_i2c_hal.o
 .text.hal_i2c_discover_devices
                0x00000000        0x4 dist/AWS_IOT/production/__pa_temp_4543/atca_i2c_hal.o
 .text          0x00000000        0x0 dist/AWS_IOT/production/__pa_temp_4543/hal_i2c_timer.o
 .data          0x00000000        0x0 dist/AWS_IOT/production/__pa_temp_4543/hal_i2c_timer.o
 .bss           0x00000000        0x0 dist/AWS_IOT/production/__pa_temp_4543/hal_i2c_timer.o
 .text          0x00000000        0x0 dist/AWS_IOT/production/__pa_temp_4543/atca_host.o
 .data          0x00000000        0x0 dist/AWS_IOT/production/__pa_temp_4543/atca_host.o
 .bss           0x00000000        0x0 dist/AWS_IOT/production/__pa_temp_4543/atca_host.o
 .text.atcah_include_data
                0x00000000       0xd6 dist/AWS_IOT/production/__pa_temp_4543/atca_host.o
 .text.atcah_nonce
                0x00000000       0xe6 dist/AWS_IOT/production/__pa_temp_4543/atca_host.o
 .text.atcah_io_decrypt
                0x00000000      0x120 dist/AWS_IOT/production/__pa_temp_4543/atca_host.o
 .text.atcah_verify_mac
                0x00000000      0x222 dist/AWS_IOT/production/__pa_temp_4543/atca_host.o
 .text.atcah_secureboot_enc
                0x00000000       0xce dist/AWS_IOT/production/__pa_temp_4543/atca_host.o
 .text.atcah_secureboot_mac
                0x00000000       0xe0 dist/AWS_IOT/production/__pa_temp_4543/atca_host.o
 .text.atcah_mac
                0x00000000      0x186 dist/AWS_IOT/production/__pa_temp_4543/atca_host.o
 .text.atcah_check_mac
                0x00000000      0x250 dist/AWS_IOT/production/__pa_temp_4543/atca_host.o
 .text.atcah_hmac
                0x00000000      0x200 dist/AWS_IOT/production/__pa_temp_4543/atca_host.o
 .text.atcah_gen_dig
                0x00000000      0x14e dist/AWS_IOT/production/__pa_temp_4543/atca_host.o
 .text.atcah_gen_mac
                0x00000000       0xda dist/AWS_IOT/production/__pa_temp_4543/atca_host.o
 .text.atcah_write_auth_mac
                0x00000000       0xbe dist/AWS_IOT/production/__pa_temp_4543/atca_host.o
 .text.atcah_privwrite_auth_mac
                0x00000000      0x116 dist/AWS_IOT/production/__pa_temp_4543/atca_host.o
 .text.atcah_derive_key
                0x00000000      0x118 dist/AWS_IOT/production/__pa_temp_4543/atca_host.o
 .text.atcah_derive_key_mac
                0x00000000       0x6e dist/AWS_IOT/production/__pa_temp_4543/atca_host.o
 .text.atcah_decrypt
                0x00000000       0x74 dist/AWS_IOT/production/__pa_temp_4543/atca_host.o
 .text.atcah_sha256
                0x00000000        0xc dist/AWS_IOT/production/__pa_temp_4543/atca_host.o
 .text.atcah_gen_key_msg
                0x00000000      0x138 dist/AWS_IOT/production/__pa_temp_4543/atca_host.o
 .text.atcah_config_to_sign_internal
                0x00000000       0xcc dist/AWS_IOT/production/__pa_temp_4543/atca_host.o
 .text.atcah_sign_internal_msg
                0x00000000      0x186 dist/AWS_IOT/production/__pa_temp_4543/atca_host.o
 .text.atcah_encode_counter_match
                0x00000000       0x4a dist/AWS_IOT/production/__pa_temp_4543/atca_host.o
 .debug_info    0x00000000     0x203d dist/AWS_IOT/production/__pa_temp_4543/atca_host.o
 .debug_abbrev  0x00000000      0x24a dist/AWS_IOT/production/__pa_temp_4543/atca_host.o
 .debug_loc     0x00000000      0xff6 dist/AWS_IOT/production/__pa_temp_4543/atca_host.o
 .debug_aranges
                0x00000000       0xc0 dist/AWS_IOT/production/__pa_temp_4543/atca_host.o
 .debug_ranges  0x00000000       0xb0 dist/AWS_IOT/production/__pa_temp_4543/atca_host.o
 .debug_line    0x00000000     0x1169 dist/AWS_IOT/production/__pa_temp_4543/atca_host.o
 .debug_str     0x00000000      0x11a dist/AWS_IOT/production/__pa_temp_4543/atca_host.o
 .comment       0x00000000       0x30 dist/AWS_IOT/production/__pa_temp_4543/atca_host.o
 .debug_frame   0x00000000      0x3f8 dist/AWS_IOT/production/__pa_temp_4543/atca_host.o
 .__pa__2       0x00000000       0x12 dist/AWS_IOT/production/__pa_temp_4543/atca_host.o
 .__pa__8       0x00000000       0x1a dist/AWS_IOT/production/__pa_temp_4543/atca_host.o
 .__pa__9       0x00000000       0x22 dist/AWS_IOT/production/__pa_temp_4543/atca_host.o
 .__pa__26      0x00000000        0x8 dist/AWS_IOT/production/__pa_temp_4543/atca_host.o
 .__pa__47      0x00000000        0xa dist/AWS_IOT/production/__pa_temp_4543/atca_host.o
 .__pa__72      0x00000000        0xe dist/AWS_IOT/production/__pa_temp_4543/atca_host.o
 .__pa__86      0x00000000       0x26 dist/AWS_IOT/production/__pa_temp_4543/atca_host.o
 .__pa__127     0x00000000        0xc dist/AWS_IOT/production/__pa_temp_4543/atca_host.o
 .__pa__131     0x00000000       0x16 dist/AWS_IOT/production/__pa_temp_4543/atca_host.o
 .__pa__133     0x00000000       0x10 dist/AWS_IOT/production/__pa_temp_4543/atca_host.o
 .__pa__138     0x00000000        0xa dist/AWS_IOT/production/__pa_temp_4543/atca_host.o
 .__pa__140     0x00000000       0x16 dist/AWS_IOT/production/__pa_temp_4543/atca_host.o
 .__pa__141     0x00000000        0xa dist/AWS_IOT/production/__pa_temp_4543/atca_host.o
 .__pa__142     0x00000000        0xa dist/AWS_IOT/production/__pa_temp_4543/atca_host.o
 .__pa__143     0x00000000        0xa dist/AWS_IOT/production/__pa_temp_4543/atca_host.o
 .__pa__147     0x00000000        0xe dist/AWS_IOT/production/__pa_temp_4543/atca_host.o
 .__pa__148     0x00000000        0xa dist/AWS_IOT/production/__pa_temp_4543/atca_host.o
 .__pa__152     0x00000000        0x8 dist/AWS_IOT/production/__pa_temp_4543/atca_host.o
 .__pa__153     0x00000000        0x8 dist/AWS_IOT/production/__pa_temp_4543/atca_host.o
 .__pa__187     0x00000000        0x8 dist/AWS_IOT/production/__pa_temp_4543/atca_host.o
 .__pa__190     0x00000000        0xa dist/AWS_IOT/production/__pa_temp_4543/atca_host.o
 .__pa__201     0x00000000       0x12 dist/AWS_IOT/production/__pa_temp_4543/atca_host.o
 .__pa__202     0x00000000        0xa dist/AWS_IOT/production/__pa_temp_4543/atca_host.o
 .__pa__242     0x00000000       0x30 dist/AWS_IOT/production/__pa_temp_4543/atca_host.o
 .__pa__246     0x00000000        0xa dist/AWS_IOT/production/__pa_temp_4543/atca_host.o
 .__pa__286     0x00000000        0xe dist/AWS_IOT/production/__pa_temp_4543/atca_host.o
 .__pa__288     0x00000000        0xa dist/AWS_IOT/production/__pa_temp_4543/atca_host.o
 .text          0x00000000        0x0 dist/AWS_IOT/production/__pa_temp_4543/atca_jwt.o
 .data          0x00000000        0x0 dist/AWS_IOT/production/__pa_temp_4543/atca_jwt.o
 .bss           0x00000000        0x0 dist/AWS_IOT/production/__pa_temp_4543/atca_jwt.o
 .text.atca_jwt_check_payload_start
                0x00000000       0x52 dist/AWS_IOT/production/__pa_temp_4543/atca_jwt.o
 .text.atca_jwt_init
                0x00000000       0xa6 dist/AWS_IOT/production/__pa_temp_4543/atca_jwt.o
 .text.atca_jwt_finalize
                0x00000000      0x210 dist/AWS_IOT/production/__pa_temp_4543/atca_jwt.o
 .rodata        0x00000000       0x13 dist/AWS_IOT/production/__pa_temp_4543/atca_jwt.o
 .text.atca_jwt_add_claim_string
                0x00000000       0xb6 dist/AWS_IOT/production/__pa_temp_4543/atca_jwt.o
 .text.atca_jwt_add_claim_numeric
                0x00000000       0xc2 dist/AWS_IOT/production/__pa_temp_4543/atca_jwt.o
 .text.atca_jwt_verify
                0x00000000       0xec dist/AWS_IOT/production/__pa_temp_4543/atca_jwt.o
 .rodata.g_jwt_header
                0x00000000       0x1c dist/AWS_IOT/production/__pa_temp_4543/atca_jwt.o
 .debug_info    0x00000000      0xc0b dist/AWS_IOT/production/__pa_temp_4543/atca_jwt.o
 .debug_abbrev  0x00000000      0x221 dist/AWS_IOT/production/__pa_temp_4543/atca_jwt.o
 .debug_loc     0x00000000      0x4e2 dist/AWS_IOT/production/__pa_temp_4543/atca_jwt.o
 .debug_aranges
                0x00000000       0x48 dist/AWS_IOT/production/__pa_temp_4543/atca_jwt.o
 .debug_ranges  0x00000000       0x38 dist/AWS_IOT/production/__pa_temp_4543/atca_jwt.o
 .debug_line    0x00000000      0x528 dist/AWS_IOT/production/__pa_temp_4543/atca_jwt.o
 .debug_str     0x00000000       0x6a dist/AWS_IOT/production/__pa_temp_4543/atca_jwt.o
 .comment       0x00000000       0x30 dist/AWS_IOT/production/__pa_temp_4543/atca_jwt.o
 .debug_frame   0x00000000      0x1c8 dist/AWS_IOT/production/__pa_temp_4543/atca_jwt.o
 .__pa__56      0x00000000        0xe dist/AWS_IOT/production/__pa_temp_4543/atca_jwt.o
 .__pa__57      0x00000000        0xa dist/AWS_IOT/production/__pa_temp_4543/atca_jwt.o
 .__pa__128     0x00000000       0x10 dist/AWS_IOT/production/__pa_temp_4543/atca_jwt.o
 .__pa__162     0x00000000       0x10 dist/AWS_IOT/production/__pa_temp_4543/atca_jwt.o
 .__pa__274     0x00000000       0x10 dist/AWS_IOT/production/__pa_temp_4543/atca_jwt.o
 .text          0x00000000        0x0 build/AWS_IOT/production/mcc_generated_files/CryptoAuthenticationLibrary/atca_cfgs.o
 .data          0x00000000        0x0 build/AWS_IOT/production/mcc_generated_files/CryptoAuthenticationLibrary/atca_cfgs.o
 .bss           0x00000000        0x0 build/AWS_IOT/production/mcc_generated_files/CryptoAuthenticationLibrary/atca_cfgs.o
 .data.cfg_atsha204a_kithid_default
                0x00000000       0x26 build/AWS_IOT/production/mcc_generated_files/CryptoAuthenticationLibrary/atca_cfgs.o
 .data.cfg_atsha204a_kitcdc_default
                0x00000000       0x26 build/AWS_IOT/production/mcc_generated_files/CryptoAuthenticationLibrary/atca_cfgs.o
 .data.cfg_atsha204a_swi_default
                0x00000000       0x26 build/AWS_IOT/production/mcc_generated_files/CryptoAuthenticationLibrary/atca_cfgs.o
 .data.cfg_atsha204a_i2c_default
                0x00000000       0x26 build/AWS_IOT/production/mcc_generated_files/CryptoAuthenticationLibrary/atca_cfgs.o
 .data.cfg_ateccx08a_kithid_default
                0x00000000       0x26 build/AWS_IOT/production/mcc_generated_files/CryptoAuthenticationLibrary/atca_cfgs.o
 .data.cfg_ateccx08a_kitcdc_default
                0x00000000       0x26 build/AWS_IOT/production/mcc_generated_files/CryptoAuthenticationLibrary/atca_cfgs.o
 .data.cfg_ateccx08a_swi_default
                0x00000000       0x26 build/AWS_IOT/production/mcc_generated_files/CryptoAuthenticationLibrary/atca_cfgs.o
 .data.cfg_ateccx08a_i2c_default
                0x00000000       0x26 build/AWS_IOT/production/mcc_generated_files/CryptoAuthenticationLibrary/atca_cfgs.o
 .debug_info    0x00000000      0xae6 build/AWS_IOT/production/mcc_generated_files/CryptoAuthenticationLibrary/atca_cfgs.o
 .debug_abbrev  0x00000000       0xd3 build/AWS_IOT/production/mcc_generated_files/CryptoAuthenticationLibrary/atca_cfgs.o
 .debug_aranges
                0x00000000       0x18 build/AWS_IOT/production/mcc_generated_files/CryptoAuthenticationLibrary/atca_cfgs.o
 .debug_line    0x00000000       0xc2 build/AWS_IOT/production/mcc_generated_files/CryptoAuthenticationLibrary/atca_cfgs.o
 .debug_str     0x00000000        0x0 build/AWS_IOT/production/mcc_generated_files/CryptoAuthenticationLibrary/atca_cfgs.o
 .comment       0x00000000       0x30 build/AWS_IOT/production/mcc_generated_files/CryptoAuthenticationLibrary/atca_cfgs.o
 .text          0x00000000        0x0 dist/AWS_IOT/production/__pa_temp_4543/atca_command.o
 .data          0x00000000        0x0 dist/AWS_IOT/production/__pa_temp_4543/atca_command.o
 .bss           0x00000000        0x0 dist/AWS_IOT/production/__pa_temp_4543/atca_command.o
 .text.atCheckMAC
                0x00000000       0x14 dist/AWS_IOT/production/__pa_temp_4543/atca_command.o
 .text.atCounter
                0x00000000       0x10 dist/AWS_IOT/production/__pa_temp_4543/atca_command.o
 .text.atDeriveKey
                0x00000000       0x1c dist/AWS_IOT/production/__pa_temp_4543/atca_command.o
 .text.atGenDig
                0x00000000       0x26 dist/AWS_IOT/production/__pa_temp_4543/atca_command.o
 .text.atHMAC   0x00000000       0x10 dist/AWS_IOT/production/__pa_temp_4543/atca_command.o
 .text.atInfo   0x00000000       0x10 dist/AWS_IOT/production/__pa_temp_4543/atca_command.o
 .text.atMAC    0x00000000       0x1e dist/AWS_IOT/production/__pa_temp_4543/atca_command.o
 .text.atPause  0x00000000       0x10 dist/AWS_IOT/production/__pa_temp_4543/atca_command.o
 .text.atPrivWrite
                0x00000000       0x14 dist/AWS_IOT/production/__pa_temp_4543/atca_command.o
 .text.atSecureBoot
                0x00000000       0x30 dist/AWS_IOT/production/__pa_temp_4543/atca_command.o
 .text.atSHA    0x00000000       0x3e dist/AWS_IOT/production/__pa_temp_4543/atca_command.o
 .text.atUpdateExtra
                0x00000000       0x10 dist/AWS_IOT/production/__pa_temp_4543/atca_command.o
 .text.atWrite  0x00000000       0x2c dist/AWS_IOT/production/__pa_temp_4543/atca_command.o
 .text.atAES    0x00000000       0x24 dist/AWS_IOT/production/__pa_temp_4543/atca_command.o
 .text.atSelfTest
                0x00000000       0x10 dist/AWS_IOT/production/__pa_temp_4543/atca_command.o
 .text.atKDF    0x00000000       0x22 dist/AWS_IOT/production/__pa_temp_4543/atca_command.o
 .text.atIsSHAFamily
                0x00000000        0xc dist/AWS_IOT/production/__pa_temp_4543/atca_command.o
 .text.atIsECCFamily
                0x00000000        0xe dist/AWS_IOT/production/__pa_temp_4543/atca_command.o
 .text          0x00000000        0x0 build/AWS_IOT/production/mcc_generated_files/CryptoAuthenticationLibrary/atca_device.o
 .data          0x00000000        0x0 build/AWS_IOT/production/mcc_generated_files/CryptoAuthenticationLibrary/atca_device.o
 .bss           0x00000000        0x0 build/AWS_IOT/production/mcc_generated_files/CryptoAuthenticationLibrary/atca_device.o
 .text.atGetCommands
                0x00000000        0x8 build/AWS_IOT/production/mcc_generated_files/CryptoAuthenticationLibrary/atca_device.o
 .text.atGetIFace
                0x00000000        0x8 build/AWS_IOT/production/mcc_generated_files/CryptoAuthenticationLibrary/atca_device.o
 .text          0x00000000        0x0 dist/AWS_IOT/production/__pa_temp_4543/atca_execution.o
 .data          0x00000000        0x0 dist/AWS_IOT/production/__pa_temp_4543/atca_execution.o
 .bss           0x00000000        0x0 dist/AWS_IOT/production/__pa_temp_4543/atca_execution.o
 .text          0x00000000        0x0 dist/AWS_IOT/production/__pa_temp_4543/atca_iface.o
 .data          0x00000000        0x0 dist/AWS_IOT/production/__pa_temp_4543/atca_iface.o
 .bss           0x00000000        0x0 dist/AWS_IOT/production/__pa_temp_4543/atca_iface.o
 .text.atsleep  0x00000000       0x1e dist/AWS_IOT/production/__pa_temp_4543/atca_iface.o
 .text.atgetifacehaldat
                0x00000000        0x8 dist/AWS_IOT/production/__pa_temp_4543/atca_iface.o
 .text          0x00000000        0x0 build/AWS_IOT/production/mcc_generated_files/drivers/spi_master.o
 .data          0x00000000        0x0 build/AWS_IOT/production/mcc_generated_files/drivers/spi_master.o
 .bss           0x00000000        0x0 build/AWS_IOT/production/mcc_generated_files/drivers/spi_master.o
 .text.spi_master_open
                0x00000000        0xc build/AWS_IOT/production/mcc_generated_files/drivers/spi_master.o
 .text          0x00000000        0x0 dist/AWS_IOT/production/__pa_temp_4543/timeout.o
 .data          0x00000000        0x0 dist/AWS_IOT/production/__pa_temp_4543/timeout.o
 .bss           0x00000000        0x0 dist/AWS_IOT/production/__pa_temp_4543/timeout.o
 .text.timeout_hasPendingTimeouts
                0x00000000       0x12 dist/AWS_IOT/production/__pa_temp_4543/timeout.o
 .text.timeout_hasPendingCallbacks
                0x00000000       0x12 dist/AWS_IOT/production/__pa_temp_4543/timeout.o
 .text.timeout_getTimeRemaining
                0x00000000       0x34 dist/AWS_IOT/production/__pa_temp_4543/timeout.o
 .rodata        0x00000000        0xd dist/AWS_IOT/production/__pa_temp_4543/timeout.o
 .text.printList
                0x00000000       0x54 dist/AWS_IOT/production/__pa_temp_4543/timeout.o
 .text.timeout_flushAll
                0x00000000       0x32 dist/AWS_IOT/production/__pa_temp_4543/timeout.o
 .text.timeout_startTimer
                0x00000000        0xc dist/AWS_IOT/production/__pa_temp_4543/timeout.o
 .text.timeout_stopTimer
                0x00000000       0x4e dist/AWS_IOT/production/__pa_temp_4543/timeout.o
 .text          0x00000000        0x0 dist/AWS_IOT/production/__pa_temp_4543/i2c_simple_master.o
 .data          0x00000000        0x0 dist/AWS_IOT/production/__pa_temp_4543/i2c_simple_master.o
 .bss           0x00000000        0x0 dist/AWS_IOT/production/__pa_temp_4543/i2c_simple_master.o
 .text.wr1RegCompleteHandler
                0x00000000       0x14 dist/AWS_IOT/production/__pa_temp_4543/i2c_simple_master.o
 .text.rd1RegCompleteHandler
                0x00000000       0x14 dist/AWS_IOT/production/__pa_temp_4543/i2c_simple_master.o
 .text.wr2RegCompleteHandler
                0x00000000       0x14 dist/AWS_IOT/production/__pa_temp_4543/i2c_simple_master.o
 .text.rdBlkRegCompleteHandler
                0x00000000       0x14 dist/AWS_IOT/production/__pa_temp_4543/i2c_simple_master.o
 .text.i2c_write1ByteRegister
                0x00000000       0x56 dist/AWS_IOT/production/__pa_temp_4543/i2c_simple_master.o
 .text.i2c_read1ByteRegister
                0x00000000       0x72 dist/AWS_IOT/production/__pa_temp_4543/i2c_simple_master.o
 .text.i2c_write2ByteRegister
                0x00000000       0x5c dist/AWS_IOT/production/__pa_temp_4543/i2c_simple_master.o
 .text.i2c_readDataBlock
                0x00000000       0x64 dist/AWS_IOT/production/__pa_temp_4543/i2c_simple_master.o
 .text          0x00000000        0x0 dist/AWS_IOT/production/__pa_temp_4543/mqtt_comm_layer.o
 .data          0x00000000        0x0 dist/AWS_IOT/production/__pa_temp_4543/mqtt_comm_layer.o
 .bss           0x00000000        0x0 dist/AWS_IOT/production/__pa_temp_4543/mqtt_comm_layer.o
 .text.MQTT_LastSentSize
                0x00000000        0xa dist/AWS_IOT/production/__pa_temp_4543/mqtt_comm_layer.o
 .text          0x00000000        0x0 dist/AWS_IOT/production/__pa_temp_4543/mqtt_core.o
 .data          0x00000000        0x0 dist/AWS_IOT/production/__pa_temp_4543/mqtt_core.o
 .bss           0x00000000        0x0 dist/AWS_IOT/production/__pa_temp_4543/mqtt_core.o
 .text.MQTT_CreateUnsubscribePacket
                0x00000000       0x7a dist/AWS_IOT/production/__pa_temp_4543/mqtt_core.o
 .text.MQTT_GetLastReceivedLength
                0x00000000        0xa dist/AWS_IOT/production/__pa_temp_4543/mqtt_core.o
 .text          0x00000000        0x0 dist/AWS_IOT/production/__pa_temp_4543/mqtt_exchange_buffer.o
 .data          0x00000000        0x0 dist/AWS_IOT/production/__pa_temp_4543/mqtt_exchange_buffer.o
 .bss           0x00000000        0x0 dist/AWS_IOT/production/__pa_temp_4543/mqtt_exchange_buffer.o
 .text          0x00000000        0x0 build/AWS_IOT/production/mcc_generated_files/mqtt/mqtt_packetTransfer_interface.o
 .data          0x00000000        0x0 build/AWS_IOT/production/mcc_generated_files/mqtt/mqtt_packetTransfer_interface.o
 .bss           0x00000000        0x0 build/AWS_IOT/production/mcc_generated_files/mqtt/mqtt_packetTransfer_interface.o
 .text          0x00000000        0x0 dist/AWS_IOT/production/__pa_temp_4543/mqtt_winc_adapter.o
 .data          0x00000000        0x0 dist/AWS_IOT/production/__pa_temp_4543/mqtt_winc_adapter.o
 .bss           0x00000000        0x0 dist/AWS_IOT/production/__pa_temp_4543/mqtt_winc_adapter.o
 .text.BSD_GetErrNo
                0x00000000        0x6 dist/AWS_IOT/production/__pa_temp_4543/mqtt_winc_adapter.o
 .text.BSD_GetRecvHandlerTable
                0x00000000        0xa dist/AWS_IOT/production/__pa_temp_4543/mqtt_winc_adapter.o
 .text.BSD_ntohl
                0x00000000        0x6 dist/AWS_IOT/production/__pa_temp_4543/mqtt_winc_adapter.o
 .text.BSD_htonl
                0x00000000        0x4 dist/AWS_IOT/production/__pa_temp_4543/mqtt_winc_adapter.o
 .text.BSD_ntohs
                0x00000000        0x6 dist/AWS_IOT/production/__pa_temp_4543/mqtt_winc_adapter.o
 .text.BSD_bind
                0x00000000       0x8c dist/AWS_IOT/production/__pa_temp_4543/mqtt_winc_adapter.o
 .text.BSD_recvfrom
                0x00000000       0x76 dist/AWS_IOT/production/__pa_temp_4543/mqtt_winc_adapter.o
 .text.BSD_listen
                0x00000000       0x3a dist/AWS_IOT/production/__pa_temp_4543/mqtt_winc_adapter.o
 .text.BSD_accept
                0x00000000       0x6e dist/AWS_IOT/production/__pa_temp_4543/mqtt_winc_adapter.o
 .text.BSD_getsockopt
                0x00000000        0xc dist/AWS_IOT/production/__pa_temp_4543/mqtt_winc_adapter.o
 .text.BSD_setsockopt
                0x00000000       0x66 dist/AWS_IOT/production/__pa_temp_4543/mqtt_winc_adapter.o
 .text.BSD_write
                0x00000000        0xc dist/AWS_IOT/production/__pa_temp_4543/mqtt_winc_adapter.o
 .text.BSD_read
                0x00000000        0xc dist/AWS_IOT/production/__pa_temp_4543/mqtt_winc_adapter.o
 .text.BSD_poll
                0x00000000        0xc dist/AWS_IOT/production/__pa_temp_4543/mqtt_winc_adapter.o
 .text.BSD_sendto
                0x00000000       0xbc dist/AWS_IOT/production/__pa_temp_4543/mqtt_winc_adapter.o
 .bss.winc_sockaddr.3477
                0x00000000       0x10 dist/AWS_IOT/production/__pa_temp_4543/mqtt_winc_adapter.o
 .text          0x00000000        0x0 dist/AWS_IOT/production/__pa_temp_4543/pin_manager.o
 .data          0x00000000        0x0 dist/AWS_IOT/production/__pa_temp_4543/pin_manager.o
 .bss           0x00000000        0x0 dist/AWS_IOT/production/__pa_temp_4543/pin_manager.o
 .text.PORTD_LED_GREEN_DefaultInterruptHandler
                0x00000000        0x2 dist/AWS_IOT/production/__pa_temp_4543/pin_manager.o
 .text.PORTA_PA2_DefaultInterruptHandler
                0x00000000        0x2 dist/AWS_IOT/production/__pa_temp_4543/pin_manager.o
 .text.PORTD_PD5_DefaultInterruptHandler
                0x00000000        0x2 dist/AWS_IOT/production/__pa_temp_4543/pin_manager.o
 .text.PORTA_RST_DefaultInterruptHandler
                0x00000000        0x2 dist/AWS_IOT/production/__pa_temp_4543/pin_manager.o
 .text.PORTA_PA4_DefaultInterruptHandler
                0x00000000        0x2 dist/AWS_IOT/production/__pa_temp_4543/pin_manager.o
 .text.PORTA_PA3_DefaultInterruptHandler
                0x00000000        0x2 dist/AWS_IOT/production/__pa_temp_4543/pin_manager.o
 .text.PORTA_PA6_DefaultInterruptHandler
                0x00000000        0x2 dist/AWS_IOT/production/__pa_temp_4543/pin_manager.o
 .text.PORTA_PA5_DefaultInterruptHandler
                0x00000000        0x2 dist/AWS_IOT/production/__pa_temp_4543/pin_manager.o
 .text.PORTA_nCS_DefaultInterruptHandler
                0x00000000        0x2 dist/AWS_IOT/production/__pa_temp_4543/pin_manager.o
 .text.PORTD_LED_YELLOW_DefaultInterruptHandler
                0x00000000        0x2 dist/AWS_IOT/production/__pa_temp_4543/pin_manager.o
 .text.PORTD_LED_RED_DefaultInterruptHandler
                0x00000000        0x2 dist/AWS_IOT/production/__pa_temp_4543/pin_manager.o
 .text.PORTD_LED_BLUE_DefaultInterruptHandler
                0x00000000        0x2 dist/AWS_IOT/production/__pa_temp_4543/pin_manager.o
 .text.PORTA_PA2_SetInterruptHandler
                0x00000000        0x2 dist/AWS_IOT/production/__pa_temp_4543/pin_manager.o
 .text.PORTD_PD5_SetInterruptHandler
                0x00000000        0x2 dist/AWS_IOT/production/__pa_temp_4543/pin_manager.o
 .text.PORTF_SW0_SetInterruptHandler
                0x00000000        0xa dist/AWS_IOT/production/__pa_temp_4543/pin_manager.o
 .text.PORTA_RST_SetInterruptHandler
                0x00000000        0x2 dist/AWS_IOT/production/__pa_temp_4543/pin_manager.o
 .text.PORTA_PA4_SetInterruptHandler
                0x00000000        0x2 dist/AWS_IOT/production/__pa_temp_4543/pin_manager.o
 .text.PORTA_PA3_SetInterruptHandler
                0x00000000        0x2 dist/AWS_IOT/production/__pa_temp_4543/pin_manager.o
 .text.PORTA_PA6_SetInterruptHandler
                0x00000000        0x2 dist/AWS_IOT/production/__pa_temp_4543/pin_manager.o
 .text.PORTA_PA5_SetInterruptHandler
                0x00000000        0x2 dist/AWS_IOT/production/__pa_temp_4543/pin_manager.o
 .text.PORTA_nCS_SetInterruptHandler
                0x00000000        0x2 dist/AWS_IOT/production/__pa_temp_4543/pin_manager.o
 .text.PORTF_PF1_SetInterruptHandler
                0x00000000        0xa dist/AWS_IOT/production/__pa_temp_4543/pin_manager.o
 .text.PORTF_PF0_SetInterruptHandler
                0x00000000        0xa dist/AWS_IOT/production/__pa_temp_4543/pin_manager.o
 .text.PORTD_LED_YELLOW_SetInterruptHandler
                0x00000000        0x2 dist/AWS_IOT/production/__pa_temp_4543/pin_manager.o
 .text.PORTF_CE_SetInterruptHandler
                0x00000000        0xa dist/AWS_IOT/production/__pa_temp_4543/pin_manager.o
 .text.PORTD_LED_RED_SetInterruptHandler
                0x00000000        0x2 dist/AWS_IOT/production/__pa_temp_4543/pin_manager.o
 .text.PORTF_SW1_SetInterruptHandler
                0x00000000        0xa dist/AWS_IOT/production/__pa_temp_4543/pin_manager.o
 .text.PORTD_LED_BLUE_SetInterruptHandler
                0x00000000        0x2 dist/AWS_IOT/production/__pa_temp_4543/pin_manager.o
 .text.PORTD_LED_GREEN_SetInterruptHandler
                0x00000000        0x2 dist/AWS_IOT/production/__pa_temp_4543/pin_manager.o
 .text.PORTF_WAKE_SetInterruptHandler
                0x00000000        0xa dist/AWS_IOT/production/__pa_temp_4543/pin_manager.o
 .text          0x00000000        0x0 build/AWS_IOT/production/mcc_generated_files/src/cpuint.o
 .data          0x00000000        0x0 build/AWS_IOT/production/mcc_generated_files/src/cpuint.o
 .bss           0x00000000        0x0 build/AWS_IOT/production/mcc_generated_files/src/cpuint.o
 .text          0x00000000        0x0 build/AWS_IOT/production/mcc_generated_files/src/spi0.o
 .data          0x00000000        0x0 build/AWS_IOT/production/mcc_generated_files/src/spi0.o
 .bss           0x00000000        0x0 build/AWS_IOT/production/mcc_generated_files/src/spi0.o
 .text.SPI0_Enable
                0x00000000        0xc build/AWS_IOT/production/mcc_generated_files/src/spi0.o
 .text.SPI0_Disable
                0x00000000        0xc build/AWS_IOT/production/mcc_generated_files/src/spi0.o
 .text.SPI0_Selected
                0x00000000        0x4 build/AWS_IOT/production/mcc_generated_files/src/spi0.o
 .text.SPI0_GetRxData
                0x00000000        0x6 build/AWS_IOT/production/mcc_generated_files/src/spi0.o
 .text.SPI0_WriteTxData
                0x00000000        0x6 build/AWS_IOT/production/mcc_generated_files/src/spi0.o
 .text.SPI0_WaitDataready
                0x00000000        0xa build/AWS_IOT/production/mcc_generated_files/src/spi0.o
 .text          0x00000000        0x0 build/AWS_IOT/production/mcc_generated_files/src/protected_io.o
 .data          0x00000000        0x0 build/AWS_IOT/production/mcc_generated_files/src/protected_io.o
 .bss           0x00000000        0x0 build/AWS_IOT/production/mcc_generated_files/src/protected_io.o
 .text          0x00000000        0x0 build/AWS_IOT/production/mcc_generated_files/src/rtc.o
 .data          0x00000000        0x0 build/AWS_IOT/production/mcc_generated_files/src/rtc.o
 .bss           0x00000000        0x0 build/AWS_IOT/production/mcc_generated_files/src/rtc.o
 .text.RTC_SetCMPIsrCallback
                0x00000000        0xa build/AWS_IOT/production/mcc_generated_files/src/rtc.o
 .text.RTC_WritePeroid
                0x00000000       0x12 build/AWS_IOT/production/mcc_generated_files/src/rtc.o
 .text.RTC_ReadPeriod
                0x00000000        0xa build/AWS_IOT/production/mcc_generated_files/src/rtc.o
 .text.RTC_EnableCMPInterrupt
                0x00000000        0xc build/AWS_IOT/production/mcc_generated_files/src/rtc.o
 .text.RTC_DisableCMPInterrupt
                0x00000000        0xc build/AWS_IOT/production/mcc_generated_files/src/rtc.o
 .text          0x00000000        0x0 dist/AWS_IOT/production/__pa_temp_4543/twi0_master.o
 .data          0x00000000        0x0 dist/AWS_IOT/production/__pa_temp_4543/twi0_master.o
 .bss           0x00000000        0x0 dist/AWS_IOT/production/__pa_temp_4543/twi0_master.o
 .text.I2C0_SetWriteCollisionCallback
                0x00000000        0xa dist/AWS_IOT/production/__pa_temp_4543/twi0_master.o
 .text.I2C0_SetDataNackCallback
                0x00000000        0xa dist/AWS_IOT/production/__pa_temp_4543/twi0_master.o
 .text.I2C0_SetTimeoutCallback
                0x00000000        0xa dist/AWS_IOT/production/__pa_temp_4543/twi0_master.o
 .text.I2C0_SetAddress
                0x00000000        0x6 dist/AWS_IOT/production/__pa_temp_4543/twi0_master.o
 .text.I2C0_MasterOpen
                0x00000000        0x8 dist/AWS_IOT/production/__pa_temp_4543/twi0_master.o
 .text.I2C0_MasterClose
                0x00000000        0x6 dist/AWS_IOT/production/__pa_temp_4543/twi0_master.o
 .text.I2C0_MasterEnableIrq
                0x00000000        0xc dist/AWS_IOT/production/__pa_temp_4543/twi0_master.o
 .text.I2C0_MasterIsIrqEnabled
                0x00000000       0x1e dist/AWS_IOT/production/__pa_temp_4543/twi0_master.o
 .text.I2C0_SetTimeout
                0x00000000       0x1a dist/AWS_IOT/production/__pa_temp_4543/twi0_master.o
 .text.I2C0_MasterGetRxData
                0x00000000        0x6 dist/AWS_IOT/production/__pa_temp_4543/twi0_master.o
 .text.I2C0_MasterTxData
                0x00000000        0x6 dist/AWS_IOT/production/__pa_temp_4543/twi0_master.o
 .text.I2C0_MasterTxAddr
                0x00000000        0x6 dist/AWS_IOT/production/__pa_temp_4543/twi0_master.o
 .text.I2C0_SetReturnStopCallback
                0x00000000        0x4 dist/AWS_IOT/production/__pa_temp_4543/twi0_master.o
 .text.I2C0_SetReturnResetCallback
                0x00000000        0x4 dist/AWS_IOT/production/__pa_temp_4543/twi0_master.o
 .text.I2C0_SetRestartReadCallback
                0x00000000        0x4 dist/AWS_IOT/production/__pa_temp_4543/twi0_master.o
 .text          0x00000000        0x0 build/AWS_IOT/production/mcc_generated_files/src/adc0.o
 .data          0x00000000        0x0 build/AWS_IOT/production/mcc_generated_files/src/adc0.o
 .bss           0x00000000        0x0 build/AWS_IOT/production/mcc_generated_files/src/adc0.o
 .text.ADC0_Enable
                0x00000000        0xc build/AWS_IOT/production/mcc_generated_files/src/adc0.o
 .text.ADC0_Disable
                0x00000000        0xc build/AWS_IOT/production/mcc_generated_files/src/adc0.o
 .text.ADC0_EnableAutoTrigger
                0x00000000        0xc build/AWS_IOT/production/mcc_generated_files/src/adc0.o
 .text.ADC0_DisableAutoTrigger
                0x00000000        0xc build/AWS_IOT/production/mcc_generated_files/src/adc0.o
 .text.ADC0_SetWindowHigh
                0x00000000        0xa build/AWS_IOT/production/mcc_generated_files/src/adc0.o
 .text.ADC0_SetWindowLow
                0x00000000        0xa build/AWS_IOT/production/mcc_generated_files/src/adc0.o
 .text.ADC0_SetWindowMode
                0x00000000        0x6 build/AWS_IOT/production/mcc_generated_files/src/adc0.o
 .text.ADC0_SetWindowChannel
                0x00000000        0x6 build/AWS_IOT/production/mcc_generated_files/src/adc0.o
 .text.ADC0_StartConversion
                0x00000000        0xc build/AWS_IOT/production/mcc_generated_files/src/adc0.o
 .text.ADC0_GetConversionResult
                0x00000000        0xa build/AWS_IOT/production/mcc_generated_files/src/adc0.o
 .text.ADC0_GetWindowResult
                0x00000000       0x10 build/AWS_IOT/production/mcc_generated_files/src/adc0.o
 .text.ADC0_GetResolution
                0x00000000       0x10 build/AWS_IOT/production/mcc_generated_files/src/adc0.o
 .text.ADC0_RegisterWindowCallback
                0x00000000        0xa build/AWS_IOT/production/mcc_generated_files/src/adc0.o
 .text          0x00000000        0x0 build/AWS_IOT/production/mcc_generated_files/src/usart2.o
 .data          0x00000000        0x0 build/AWS_IOT/production/mcc_generated_files/src/usart2.o
 .bss           0x00000000        0x0 build/AWS_IOT/production/mcc_generated_files/src/usart2.o
 .text.USART2_SetISRCb
                0x00000000       0x1e build/AWS_IOT/production/mcc_generated_files/src/usart2.o
 .text.USART2_SetRXISRCb
                0x00000000        0xa build/AWS_IOT/production/mcc_generated_files/src/usart2.o
 .text.USART2_SetTXISRCb
                0x00000000        0xa build/AWS_IOT/production/mcc_generated_files/src/usart2.o
 .text.USART2_IsTxReady
                0x00000000        0xe build/AWS_IOT/production/mcc_generated_files/src/usart2.o
 .text.USART2_IsTxBusy
                0x00000000       0x10 build/AWS_IOT/production/mcc_generated_files/src/usart2.o
 .text.USART2_IsTxDone
                0x00000000        0xc build/AWS_IOT/production/mcc_generated_files/src/usart2.o
 .text.USART2_Enable
                0x00000000        0xc build/AWS_IOT/production/mcc_generated_files/src/usart2.o
 .text.USART2_EnableRx
                0x00000000        0xc build/AWS_IOT/production/mcc_generated_files/src/usart2.o
 .text.USART2_EnableTx
                0x00000000        0xc build/AWS_IOT/production/mcc_generated_files/src/usart2.o
 .text.USART2_Disable
                0x00000000        0xc build/AWS_IOT/production/mcc_generated_files/src/usart2.o
 .text.USART2_GetData
                0x00000000        0x6 build/AWS_IOT/production/mcc_generated_files/src/usart2.o
 .text          0x00000000        0x0 dist/AWS_IOT/production/__pa_temp_4543/winc_spi.o
 .data          0x00000000        0x0 dist/AWS_IOT/production/__pa_temp_4543/winc_spi.o
 .bss           0x00000000        0x0 dist/AWS_IOT/production/__pa_temp_4543/winc_spi.o
 .text.winc_bus_write_reg_no_rsp
                0x00000000       0x64 dist/AWS_IOT/production/__pa_temp_4543/winc_spi.o
 .text.winc_bus_reset
                0x00000000        0xe dist/AWS_IOT/production/__pa_temp_4543/winc_spi.o
 .rodata.u8CmdBuf.3406
                0x00000000        0x4 dist/AWS_IOT/production/__pa_temp_4543/winc_spi.o
 .text          0x00000000        0x0 dist/AWS_IOT/production/__pa_temp_4543/winc_adapter.o
 .data          0x00000000        0x0 dist/AWS_IOT/production/__pa_temp_4543/winc_adapter.o
 .bss           0x00000000        0x0 dist/AWS_IOT/production/__pa_temp_4543/winc_adapter.o
 .text          0x00000000        0x0 dist/AWS_IOT/production/__pa_temp_4543/winc_hif.o
 .data          0x00000000        0x0 dist/AWS_IOT/production/__pa_temp_4543/winc_hif.o
 .bss           0x00000000        0x0 dist/AWS_IOT/production/__pa_temp_4543/winc_hif.o
 .text.winc_hif_set_power_save
                0x00000000        0x6 dist/AWS_IOT/production/__pa_temp_4543/winc_hif.o
 .text          0x00000000        0x0 dist/AWS_IOT/production/__pa_temp_4543/winc_asic.o
 .data          0x00000000        0x0 dist/AWS_IOT/production/__pa_temp_4543/winc_asic.o
 .bss           0x00000000        0x0 dist/AWS_IOT/production/__pa_temp_4543/winc_asic.o
 .text.winc_chip_reset
                0x00000000       0x1e dist/AWS_IOT/production/__pa_temp_4543/winc_asic.o
 .text.winc_chip_deinit
                0x00000000        0xe dist/AWS_IOT/production/__pa_temp_4543/winc_asic.o
 .text.winc_chip_get_otp_mac_address
                0x00000000       0x7e dist/AWS_IOT/production/__pa_temp_4543/winc_asic.o
 .text.winc_chip_get_mac_address
                0x00000000       0x4c dist/AWS_IOT/production/__pa_temp_4543/winc_asic.o
 .__pa__244     0x00000000       0x1a dist/AWS_IOT/production/__pa_temp_4543/winc_asic.o
 .__pa__250     0x00000000       0x1a dist/AWS_IOT/production/__pa_temp_4543/winc_asic.o
 .text          0x00000000        0x0 dist/AWS_IOT/production/__pa_temp_4543/winc_drv.o
 .data          0x00000000        0x0 dist/AWS_IOT/production/__pa_temp_4543/winc_drv.o
 .bss           0x00000000        0x0 dist/AWS_IOT/production/__pa_temp_4543/winc_drv.o
 .text.winc_drv_deinit
                0x00000000       0x2c dist/AWS_IOT/production/__pa_temp_4543/winc_drv.o
 .text          0x00000000        0x0 dist/AWS_IOT/production/__pa_temp_4543/m2m_ssl.o
 .data          0x00000000        0x0 dist/AWS_IOT/production/__pa_temp_4543/m2m_ssl.o
 .bss           0x00000000        0x0 dist/AWS_IOT/production/__pa_temp_4543/m2m_ssl.o
 .text.m2m_ssl_send_certs_to_winc
                0x00000000      0x1aa dist/AWS_IOT/production/__pa_temp_4543/m2m_ssl.o
 .__pa__265     0x00000000       0x10 dist/AWS_IOT/production/__pa_temp_4543/m2m_ssl.o
 .__pa__267     0x00000000       0x14 dist/AWS_IOT/production/__pa_temp_4543/m2m_ssl.o
 .text          0x00000000        0x0 dist/AWS_IOT/production/__pa_temp_4543/m2m_wifi.o
 .data          0x00000000        0x0 dist/AWS_IOT/production/__pa_temp_4543/m2m_wifi.o
 .bss           0x00000000        0x0 dist/AWS_IOT/production/__pa_temp_4543/m2m_wifi.o
 .text.m2m_wifi_send_crl
                0x00000000       0x38 dist/AWS_IOT/production/__pa_temp_4543/m2m_wifi.o
 .text.m2m_wifi_deinit
                0x00000000       0x10 dist/AWS_IOT/production/__pa_temp_4543/m2m_wifi.o
 .text.m2m_wifi_delete_sc
                0x00000000       0x3a dist/AWS_IOT/production/__pa_temp_4543/m2m_wifi.o
 .text.m2m_wifi_connect_1x_tls
                0x00000000      0x1f8 dist/AWS_IOT/production/__pa_temp_4543/m2m_wifi.o
 .text.m2m_wifi_set_mac_address
                0x00000000       0x34 dist/AWS_IOT/production/__pa_temp_4543/m2m_wifi.o
 .text.m2m_wifi_set_static_ip
                0x00000000        0xe dist/AWS_IOT/production/__pa_temp_4543/m2m_wifi.o
 .text.m2m_wifi_enable_dhcp
                0x00000000       0x18 dist/AWS_IOT/production/__pa_temp_4543/m2m_wifi.o
 .text.m2m_wifi_set_lsn_int
                0x00000000        0xe dist/AWS_IOT/production/__pa_temp_4543/m2m_wifi.o
 .text.m2m_wifi_set_cust_InfoElement
                0x00000000       0x22 dist/AWS_IOT/production/__pa_temp_4543/m2m_wifi.o
 .text.m2m_wifi_set_scan_options
                0x00000000       0x34 dist/AWS_IOT/production/__pa_temp_4543/m2m_wifi.o
 .text.m2m_wifi_set_scan_region
                0x00000000       0x28 dist/AWS_IOT/production/__pa_temp_4543/m2m_wifi.o
 .text.m2m_wifi_request_scan
                0x00000000       0x4a dist/AWS_IOT/production/__pa_temp_4543/m2m_wifi.o
 .text.m2m_wifi_request_scan_passive
                0x00000000       0x50 dist/AWS_IOT/production/__pa_temp_4543/m2m_wifi.o
 .text.m2m_wifi_request_scan_ssid_list
                0x00000000       0x9e dist/AWS_IOT/production/__pa_temp_4543/m2m_wifi.o
 .text.m2m_wifi_wps
                0x00000000       0x40 dist/AWS_IOT/production/__pa_temp_4543/m2m_wifi.o
 .text.m2m_wifi_wps_disable
                0x00000000       0x10 dist/AWS_IOT/production/__pa_temp_4543/m2m_wifi.o
 .text.m2m_wifi_req_client_ctrl
                0x00000000        0x4 dist/AWS_IOT/production/__pa_temp_4543/m2m_wifi.o
 .text.m2m_wifi_req_server_init
                0x00000000        0x4 dist/AWS_IOT/production/__pa_temp_4543/m2m_wifi.o
 .text.m2m_wifi_p2p
                0x00000000       0x34 dist/AWS_IOT/production/__pa_temp_4543/m2m_wifi.o
 .text.m2m_wifi_p2p_disconnect
                0x00000000       0x10 dist/AWS_IOT/production/__pa_temp_4543/m2m_wifi.o
 .text.m2m_wifi_enable_ap_ext
                0x00000000       0x42 dist/AWS_IOT/production/__pa_temp_4543/m2m_wifi.o
 .text.m2m_wifi_enable_ap
                0x00000000       0x34 dist/AWS_IOT/production/__pa_temp_4543/m2m_wifi.o
 .text.m2m_wifi_set_gains
                0x00000000       0x16 dist/AWS_IOT/production/__pa_temp_4543/m2m_wifi.o
 .text.m2m_wifi_disable_ap
                0x00000000       0x10 dist/AWS_IOT/production/__pa_temp_4543/m2m_wifi.o
 .text.m2m_wifi_req_curr_rssi
                0x00000000       0x10 dist/AWS_IOT/production/__pa_temp_4543/m2m_wifi.o
 .text.m2m_wifi_send_ethernet_pkt
                0x00000000       0x60 dist/AWS_IOT/production/__pa_temp_4543/m2m_wifi.o
 .text.m2m_wifi_get_otp_mac_address
                0x00000000       0x38 dist/AWS_IOT/production/__pa_temp_4543/m2m_wifi.o
 .text.m2m_wifi_get_mac_address
                0x00000000       0x28 dist/AWS_IOT/production/__pa_temp_4543/m2m_wifi.o
 .text.m2m_wifi_req_scan_result
                0x00000000       0x24 dist/AWS_IOT/production/__pa_temp_4543/m2m_wifi.o
 .text.m2m_wifi_get_num_ap_found
                0x00000000        0x6 dist/AWS_IOT/production/__pa_temp_4543/m2m_wifi.o
 .text.m2m_wifi_get_sleep_mode
                0x00000000        0x6 dist/AWS_IOT/production/__pa_temp_4543/m2m_wifi.o
 .text.m2m_wifi_set_sleep_mode
                0x00000000       0x46 dist/AWS_IOT/production/__pa_temp_4543/m2m_wifi.o
 .text.m2m_wifi_request_sleep
                0x00000000       0x3c dist/AWS_IOT/production/__pa_temp_4543/m2m_wifi.o
 .text.m2m_wifi_set_device_name
                0x00000000       0x3e dist/AWS_IOT/production/__pa_temp_4543/m2m_wifi.o
 .text.m2m_wifi_stop_provision_mode
                0x00000000       0x10 dist/AWS_IOT/production/__pa_temp_4543/m2m_wifi.o
 .text.m2m_wifi_get_connection_info
                0x00000000       0x10 dist/AWS_IOT/production/__pa_temp_4543/m2m_wifi.o
 .text.m2m_wifi_set_system_time
                0x00000000       0x28 dist/AWS_IOT/production/__pa_temp_4543/m2m_wifi.o
 .text.m2m_wifi_enable_sntp
                0x00000000       0x18 dist/AWS_IOT/production/__pa_temp_4543/m2m_wifi.o
 .text.m2m_wifi_set_power_profile
                0x00000000       0x24 dist/AWS_IOT/production/__pa_temp_4543/m2m_wifi.o
 .text.m2m_wifi_set_tx_power
                0x00000000       0x24 dist/AWS_IOT/production/__pa_temp_4543/m2m_wifi.o
 .text.m2m_wifi_set_gain_table_idx
                0x00000000       0x24 dist/AWS_IOT/production/__pa_temp_4543/m2m_wifi.o
 .text.m2m_wifi_enable_firmware_logs
                0x00000000       0x24 dist/AWS_IOT/production/__pa_temp_4543/m2m_wifi.o
 .text.m2m_wifi_set_battery_voltage
                0x00000000       0x2c dist/AWS_IOT/production/__pa_temp_4543/m2m_wifi.o
 .text.m2m_wifi_prng_get_random_bytes
                0x00000000       0x48 dist/AWS_IOT/production/__pa_temp_4543/m2m_wifi.o
 .text.m2m_wifi_conf_auto_rate
                0x00000000        0xe dist/AWS_IOT/production/__pa_temp_4543/m2m_wifi.o
 .text.m2m_wifi_get_state
                0x00000000        0x6 dist/AWS_IOT/production/__pa_temp_4543/m2m_wifi.o
 .text.m2m_wifi_enable_roaming
                0x00000000       0x32 dist/AWS_IOT/production/__pa_temp_4543/m2m_wifi.o
 .text.m2m_wifi_disable_roaming
                0x00000000       0x26 dist/AWS_IOT/production/__pa_temp_4543/m2m_wifi.o
 .bss.genuPsMode
                0x00000000        0x1 dist/AWS_IOT/production/__pa_temp_4543/m2m_wifi.o
 .__pa__186     0x00000000        0xe dist/AWS_IOT/production/__pa_temp_4543/m2m_wifi.o
 .text          0x00000000        0x0 build/AWS_IOT/production/mcc_generated_files/winc/m2m/m2m_periph.o
 .data          0x00000000        0x0 build/AWS_IOT/production/mcc_generated_files/winc/m2m/m2m_periph.o
 .bss           0x00000000        0x0 build/AWS_IOT/production/mcc_generated_files/winc/m2m/m2m_periph.o
 .debug_info    0x00000000      0x258 build/AWS_IOT/production/mcc_generated_files/winc/m2m/m2m_periph.o
 .debug_abbrev  0x00000000       0x1b build/AWS_IOT/production/mcc_generated_files/winc/m2m/m2m_periph.o
 .debug_aranges
                0x00000000       0x18 build/AWS_IOT/production/mcc_generated_files/winc/m2m/m2m_periph.o
 .debug_line    0x00000000       0x1a build/AWS_IOT/production/mcc_generated_files/winc/m2m/m2m_periph.o
 .debug_str     0x00000000        0x0 build/AWS_IOT/production/mcc_generated_files/winc/m2m/m2m_periph.o
 .comment       0x00000000       0x30 build/AWS_IOT/production/mcc_generated_files/winc/m2m/m2m_periph.o
 .text          0x00000000        0x0 dist/AWS_IOT/production/__pa_temp_4543/m2m_ota.o
 .data          0x00000000        0x0 dist/AWS_IOT/production/__pa_temp_4543/m2m_ota.o
 .bss           0x00000000        0x0 dist/AWS_IOT/production/__pa_temp_4543/m2m_ota.o
 .text.m2m_ota_cb
                0x00000000      0x172 dist/AWS_IOT/production/__pa_temp_4543/m2m_ota.o
 .text.m2m_ota_init
                0x00000000       0x20 dist/AWS_IOT/production/__pa_temp_4543/m2m_ota.o
 .text.m2m_ota_notif_set_url
                0x00000000       0x18 dist/AWS_IOT/production/__pa_temp_4543/m2m_ota.o
 .text.m2m_ota_notif_check_for_update
                0x00000000       0x10 dist/AWS_IOT/production/__pa_temp_4543/m2m_ota.o
 .text.m2m_ota_notif_sched
                0x00000000       0x10 dist/AWS_IOT/production/__pa_temp_4543/m2m_ota.o
 .text.m2m_ota_start_update
                0x00000000       0x18 dist/AWS_IOT/production/__pa_temp_4543/m2m_ota.o
 .text.m2m_ota_rollback
                0x00000000       0x10 dist/AWS_IOT/production/__pa_temp_4543/m2m_ota.o
 .text.m2m_ota_abort
                0x00000000       0x10 dist/AWS_IOT/production/__pa_temp_4543/m2m_ota.o
 .text.m2m_ota_switch_firmware
                0x00000000       0x10 dist/AWS_IOT/production/__pa_temp_4543/m2m_ota.o
 .text.m2m_ota_get_firmware_version
                0x00000000       0x36 dist/AWS_IOT/production/__pa_temp_4543/m2m_ota.o
 .text.m2m_ota_host_file_get
                0x00000000       0x5c dist/AWS_IOT/production/__pa_temp_4543/m2m_ota.o
 .text.m2m_ota_host_file_read_hif
                0x00000000       0x64 dist/AWS_IOT/production/__pa_temp_4543/m2m_ota.o
 .text.m2m_ota_host_file_read_spi
                0x00000000      0x128 dist/AWS_IOT/production/__pa_temp_4543/m2m_ota.o
 .text.m2m_ota_host_file_erase
                0x00000000       0x36 dist/AWS_IOT/production/__pa_temp_4543/m2m_ota.o
 .bss.u32FlashHFDSize.3510
                0x00000000        0x4 dist/AWS_IOT/production/__pa_temp_4543/m2m_ota.o
 .bss.u32FlashHFDStart.3509
                0x00000000        0x4 dist/AWS_IOT/production/__pa_temp_4543/m2m_ota.o
 .data.gu8CurrFileHandlerID
                0x00000000        0x1 dist/AWS_IOT/production/__pa_temp_4543/m2m_ota.o
 .bss.FileBlock
                0x00000000        0x8 dist/AWS_IOT/production/__pa_temp_4543/m2m_ota.o
 .bss.gpfHFDEraseCb
                0x00000000        0x2 dist/AWS_IOT/production/__pa_temp_4543/m2m_ota.o
 .bss.gpfHFDReadCb
                0x00000000        0x2 dist/AWS_IOT/production/__pa_temp_4543/m2m_ota.o
 .bss.gpfHFDGetCb
                0x00000000        0x2 dist/AWS_IOT/production/__pa_temp_4543/m2m_ota.o
 .bss.gpfOtaNotifCb
                0x00000000        0x2 dist/AWS_IOT/production/__pa_temp_4543/m2m_ota.o
 .bss.gpfOtaUpdateCb
                0x00000000        0x2 dist/AWS_IOT/production/__pa_temp_4543/m2m_ota.o
 .__pa__113     0x00000000        0xc dist/AWS_IOT/production/__pa_temp_4543/m2m_ota.o
 .__pa__264     0x00000000        0xa dist/AWS_IOT/production/__pa_temp_4543/m2m_ota.o
 .text          0x00000000        0x0 dist/AWS_IOT/production/__pa_temp_4543/m2m_fwinfo.o
 .data          0x00000000        0x0 dist/AWS_IOT/production/__pa_temp_4543/m2m_fwinfo.o
 .bss           0x00000000        0x0 dist/AWS_IOT/production/__pa_temp_4543/m2m_fwinfo.o
 .text          0x00000000        0x0 build/AWS_IOT/production/mcc_generated_files/winc/m2m/m2m_crypto.o
 .data          0x00000000        0x0 build/AWS_IOT/production/mcc_generated_files/winc/m2m/m2m_crypto.o
 .bss           0x00000000        0x0 build/AWS_IOT/production/mcc_generated_files/winc/m2m/m2m_crypto.o
 .debug_info    0x00000000      0x258 build/AWS_IOT/production/mcc_generated_files/winc/m2m/m2m_crypto.o
 .debug_abbrev  0x00000000       0x1b build/AWS_IOT/production/mcc_generated_files/winc/m2m/m2m_crypto.o
 .debug_aranges
                0x00000000       0x18 build/AWS_IOT/production/mcc_generated_files/winc/m2m/m2m_crypto.o
 .debug_line    0x00000000       0x1a build/AWS_IOT/production/mcc_generated_files/winc/m2m/m2m_crypto.o
 .debug_str     0x00000000        0x0 build/AWS_IOT/production/mcc_generated_files/winc/m2m/m2m_crypto.o
 .comment       0x00000000       0x30 build/AWS_IOT/production/mcc_generated_files/winc/m2m/m2m_crypto.o
 .text          0x00000000        0x0 dist/AWS_IOT/production/__pa_temp_4543/socket.o
 .data          0x00000000        0x0 dist/AWS_IOT/production/__pa_temp_4543/socket.o
 .bss           0x00000000        0x0 dist/AWS_IOT/production/__pa_temp_4543/socket.o
 .text.registerSocketEventCallback
                0x00000000        0xa dist/AWS_IOT/production/__pa_temp_4543/socket.o
 .text.registerSocketResolveCallback
                0x00000000        0xa dist/AWS_IOT/production/__pa_temp_4543/socket.o
 .text.bind     0x00000000       0x6c dist/AWS_IOT/production/__pa_temp_4543/socket.o
 .text.listen   0x00000000       0x4c dist/AWS_IOT/production/__pa_temp_4543/socket.o
 .text.accept   0x00000000       0x1a dist/AWS_IOT/production/__pa_temp_4543/socket.o
 .text.sendto   0x00000000       0xbe dist/AWS_IOT/production/__pa_temp_4543/socket.o
 .text.recvfrom
                0x00000000       0x9e dist/AWS_IOT/production/__pa_temp_4543/socket.o
 .text.inet_addr
                0x00000000       0xb0 dist/AWS_IOT/production/__pa_temp_4543/socket.o
 .text.inet_ntop
                0x00000000       0xb2 dist/AWS_IOT/production/__pa_temp_4543/socket.o
 .text.setsockopt
                0x00000000      0x156 dist/AWS_IOT/production/__pa_temp_4543/socket.o
 .text.getsockopt
                0x00000000        0x4 dist/AWS_IOT/production/__pa_temp_4543/socket.o
 .text.m2m_ping_req
                0x00000000       0x8a dist/AWS_IOT/production/__pa_temp_4543/socket.o
 .__pa__23      0x00000000        0xa dist/AWS_IOT/production/__pa_temp_4543/socket.o
 .__pa__79      0x00000000        0xa dist/AWS_IOT/production/__pa_temp_4543/socket.o
 .__pa__146     0x00000000        0xa dist/AWS_IOT/production/__pa_temp_4543/socket.o
 .text          0x00000000        0x0 dist/AWS_IOT/production/__pa_temp_4543/flexible_flash.o
 .data          0x00000000        0x0 dist/AWS_IOT/production/__pa_temp_4543/flexible_flash.o
 .bss           0x00000000        0x0 dist/AWS_IOT/production/__pa_temp_4543/flexible_flash.o
 .text.spi_flexible_flash_find_section
                0x00000000      0x11a dist/AWS_IOT/production/__pa_temp_4543/flexible_flash.o
 .debug_info    0x00000000      0x440 dist/AWS_IOT/production/__pa_temp_4543/flexible_flash.o
 .debug_abbrev  0x00000000       0xd1 dist/AWS_IOT/production/__pa_temp_4543/flexible_flash.o
 .debug_loc     0x00000000      0x1da dist/AWS_IOT/production/__pa_temp_4543/flexible_flash.o
 .debug_aranges
                0x00000000       0x20 dist/AWS_IOT/production/__pa_temp_4543/flexible_flash.o
 .debug_ranges  0x00000000       0x28 dist/AWS_IOT/production/__pa_temp_4543/flexible_flash.o
 .debug_line    0x00000000      0x11d dist/AWS_IOT/production/__pa_temp_4543/flexible_flash.o
 .debug_str     0x00000000        0xf dist/AWS_IOT/production/__pa_temp_4543/flexible_flash.o
 .comment       0x00000000       0x30 dist/AWS_IOT/production/__pa_temp_4543/flexible_flash.o
 .debug_frame   0x00000000       0x80 dist/AWS_IOT/production/__pa_temp_4543/flexible_flash.o
 .text          0x00000000        0x0 dist/AWS_IOT/production/__pa_temp_4543/spi_flash.o
 .data          0x00000000        0x0 dist/AWS_IOT/production/__pa_temp_4543/spi_flash.o
 .bss           0x00000000        0x0 dist/AWS_IOT/production/__pa_temp_4543/spi_flash.o
 .text.spi_flash_write_enable
                0x00000000       0x5c dist/AWS_IOT/production/__pa_temp_4543/spi_flash.o
 .text.spi_flash_read_status_reg
                0x00000000       0x84 dist/AWS_IOT/production/__pa_temp_4543/spi_flash.o
 .text.spi_flash_pp
                0x00000000      0x160 dist/AWS_IOT/production/__pa_temp_4543/spi_flash.o
 .text.spi_flash_enable
                0x00000000       0xd6 dist/AWS_IOT/production/__pa_temp_4543/spi_flash.o
 .text.spi_flash_write
                0x00000000       0xc2 dist/AWS_IOT/production/__pa_temp_4543/spi_flash.o
 .text.spi_flash_erase
                0x00000000      0x120 dist/AWS_IOT/production/__pa_temp_4543/spi_flash.o
 .text.spi_flash_get_size
                0x00000000       0xfa dist/AWS_IOT/production/__pa_temp_4543/spi_flash.o
 .bss.gu32InternalFlashSize
                0x00000000        0x4 dist/AWS_IOT/production/__pa_temp_4543/spi_flash.o
 .__pa__10      0x00000000       0x12 dist/AWS_IOT/production/__pa_temp_4543/spi_flash.o
 .__pa__20      0x00000000       0x10 dist/AWS_IOT/production/__pa_temp_4543/spi_flash.o
 .__pa__179     0x00000000       0x10 dist/AWS_IOT/production/__pa_temp_4543/spi_flash.o
 .__pa__180     0x00000000       0x10 dist/AWS_IOT/production/__pa_temp_4543/spi_flash.o
 .__pa__203     0x00000000       0x12 dist/AWS_IOT/production/__pa_temp_4543/spi_flash.o
 .__pa__214     0x00000000       0x12 dist/AWS_IOT/production/__pa_temp_4543/spi_flash.o
 .__pa__239     0x00000000       0x14 dist/AWS_IOT/production/__pa_temp_4543/spi_flash.o
 .__pa__260     0x00000000       0x12 dist/AWS_IOT/production/__pa_temp_4543/spi_flash.o
 .text          0x00000000        0x0 build/AWS_IOT/production/mcc_generated_files/mcc.o
 .data          0x00000000        0x0 build/AWS_IOT/production/mcc_generated_files/mcc.o
 .bss           0x00000000        0x0 build/AWS_IOT/production/mcc_generated_files/mcc.o
 .text          0x00000000        0x0 build/AWS_IOT/production/mcc_generated_files/delay.o
 .data          0x00000000        0x0 build/AWS_IOT/production/mcc_generated_files/delay.o
 .bss           0x00000000        0x0 build/AWS_IOT/production/mcc_generated_files/delay.o
 .text.DELAY_microseconds
                0x00000000       0x2a build/AWS_IOT/production/mcc_generated_files/delay.o
 .text          0x00000000        0x0 build/AWS_IOT/production/mcc_generated_files/device_config.o
 .data          0x00000000        0x0 build/AWS_IOT/production/mcc_generated_files/device_config.o
 .bss           0x00000000        0x0 build/AWS_IOT/production/mcc_generated_files/device_config.o
 .text          0x00000000        0x0 dist/AWS_IOT/production/__pa_temp_4543/application_manager.o
 .data          0x00000000        0x0 dist/AWS_IOT/production/__pa_temp_4543/application_manager.o
 .bss           0x00000000        0x0 dist/AWS_IOT/production/__pa_temp_4543/application_manager.o
 .text          0x00000000        0x0 dist/AWS_IOT/production/__pa_temp_4543/debug_print.o
 .data          0x00000000        0x0 dist/AWS_IOT/production/__pa_temp_4543/debug_print.o
 .bss           0x00000000        0x0 dist/AWS_IOT/production/__pa_temp_4543/debug_print.o
 .text          0x00000000        0x0 build/AWS_IOT/production/mcc_generated_files/led.o
 .data          0x00000000        0x0 build/AWS_IOT/production/mcc_generated_files/led.o
 .bss           0x00000000        0x0 build/AWS_IOT/production/mcc_generated_files/led.o
 .text          0x00000000        0x0 dist/AWS_IOT/production/__pa_temp_4543/sensors_handling.o
 .data          0x00000000        0x0 dist/AWS_IOT/production/__pa_temp_4543/sensors_handling.o
 .bss           0x00000000        0x0 dist/AWS_IOT/production/__pa_temp_4543/sensors_handling.o
 .text          0x00000000        0x0 dist/AWS_IOT/production/__pa_temp_4543/time_service.o
 .data          0x00000000        0x0 dist/AWS_IOT/production/__pa_temp_4543/time_service.o
 .bss           0x00000000        0x0 dist/AWS_IOT/production/__pa_temp_4543/time_service.o
 .text.timeTicker
                0x00000000       0x2c dist/AWS_IOT/production/__pa_temp_4543/time_service.o
 .text.TIME_setCurrent
                0x00000000       0x12 dist/AWS_IOT/production/__pa_temp_4543/time_service.o
 .text.TIME_startTask
                0x00000000       0x10 dist/AWS_IOT/production/__pa_temp_4543/time_service.o
 .text.TIME_endTask
                0x00000000        0x8 dist/AWS_IOT/production/__pa_temp_4543/time_service.o
 .text.TIME_getOffset_UNIX
                0x00000000        0xa dist/AWS_IOT/production/__pa_temp_4543/time_service.o
 .text.TIME_GetcTime
                0x00000000       0x24 dist/AWS_IOT/production/__pa_temp_4543/time_service.o
 .data.timeTask
                0x00000000        0xa dist/AWS_IOT/production/__pa_temp_4543/time_service.o
 .text          0x00000000        0x0 build/AWS_IOT/production/mcc_generated_files/CryptoAuthenticationLibrary/CryptoAuth_init.o
 .data          0x00000000        0x0 build/AWS_IOT/production/mcc_generated_files/CryptoAuthenticationLibrary/CryptoAuth_init.o
 .bss           0x00000000        0x0 build/AWS_IOT/production/mcc_generated_files/CryptoAuthenticationLibrary/CryptoAuth_init.o
 .data._gMyDevice
                0x00000000        0x4 build/AWS_IOT/production/mcc_generated_files/CryptoAuthenticationLibrary/CryptoAuth_init.o
 COMMON         0x00000000       0x17 build/AWS_IOT/production/mcc_generated_files/CryptoAuthenticationLibrary/CryptoAuth_init.o
 .text          0x00000000        0x0 build/AWS_IOT/production/main.o
 .data          0x00000000        0x0 build/AWS_IOT/production/main.o
 .bss           0x00000000        0x0 build/AWS_IOT/production/main.o
 .text          0x00000000        0x0 /opt/microchip/xc8/v2.10/avr/bin/../lib/gcc/avr/5.4.0/avrxmega3/libgcc.a(_udivmodqi4.o)
 .data          0x00000000        0x0 /opt/microchip/xc8/v2.10/avr/bin/../lib/gcc/avr/5.4.0/avrxmega3/libgcc.a(_udivmodqi4.o)
 .bss           0x00000000        0x0 /opt/microchip/xc8/v2.10/avr/bin/../lib/gcc/avr/5.4.0/avrxmega3/libgcc.a(_udivmodqi4.o)
 .text.libgcc.mul
                0x00000000        0x0 /opt/microchip/xc8/v2.10/avr/bin/../lib/gcc/avr/5.4.0/avrxmega3/libgcc.a(_udivmodqi4.o)
 .text.libgcc.div
                0x00000000       0x18 /opt/microchip/xc8/v2.10/avr/bin/../lib/gcc/avr/5.4.0/avrxmega3/libgcc.a(_udivmodqi4.o)
 .text.libgcc   0x00000000        0x0 /opt/microchip/xc8/v2.10/avr/bin/../lib/gcc/avr/5.4.0/avrxmega3/libgcc.a(_udivmodqi4.o)
 .text.libgcc.prologue
                0x00000000        0x0 /opt/microchip/xc8/v2.10/avr/bin/../lib/gcc/avr/5.4.0/avrxmega3/libgcc.a(_udivmodqi4.o)
 .text.libgcc.builtins
                0x00000000        0x0 /opt/microchip/xc8/v2.10/avr/bin/../lib/gcc/avr/5.4.0/avrxmega3/libgcc.a(_udivmodqi4.o)
 .text.libgcc.fmul
                0x00000000        0x0 /opt/microchip/xc8/v2.10/avr/bin/../lib/gcc/avr/5.4.0/avrxmega3/libgcc.a(_udivmodqi4.o)
 .text.libgcc.fixed
                0x00000000        0x0 /opt/microchip/xc8/v2.10/avr/bin/../lib/gcc/avr/5.4.0/avrxmega3/libgcc.a(_udivmodqi4.o)
 .text          0x00000000        0x0 /opt/microchip/xc8/v2.10/avr/bin/../lib/gcc/avr/5.4.0/avrxmega3/libgcc.a(_udivmodhi4.o)
 .data          0x00000000        0x0 /opt/microchip/xc8/v2.10/avr/bin/../lib/gcc/avr/5.4.0/avrxmega3/libgcc.a(_udivmodhi4.o)
 .bss           0x00000000        0x0 /opt/microchip/xc8/v2.10/avr/bin/../lib/gcc/avr/5.4.0/avrxmega3/libgcc.a(_udivmodhi4.o)
 .text.libgcc.mul
                0x00000000        0x0 /opt/microchip/xc8/v2.10/avr/bin/../lib/gcc/avr/5.4.0/avrxmega3/libgcc.a(_udivmodhi4.o)
 .text.libgcc   0x00000000        0x0 /opt/microchip/xc8/v2.10/avr/bin/../lib/gcc/avr/5.4.0/avrxmega3/libgcc.a(_udivmodhi4.o)
 .text.libgcc.prologue
                0x00000000        0x0 /opt/microchip/xc8/v2.10/avr/bin/../lib/gcc/avr/5.4.0/avrxmega3/libgcc.a(_udivmodhi4.o)
 .text.libgcc.builtins
                0x00000000        0x0 /opt/microchip/xc8/v2.10/avr/bin/../lib/gcc/avr/5.4.0/avrxmega3/libgcc.a(_udivmodhi4.o)
 .text.libgcc.fmul
                0x00000000        0x0 /opt/microchip/xc8/v2.10/avr/bin/../lib/gcc/avr/5.4.0/avrxmega3/libgcc.a(_udivmodhi4.o)
 .text.libgcc.fixed
                0x00000000        0x0 /opt/microchip/xc8/v2.10/avr/bin/../lib/gcc/avr/5.4.0/avrxmega3/libgcc.a(_udivmodhi4.o)
 .text          0x00000000        0x0 /opt/microchip/xc8/v2.10/avr/bin/../lib/gcc/avr/5.4.0/avrxmega3/libgcc.a(_divmodhi4.o)
 .data          0x00000000        0x0 /opt/microchip/xc8/v2.10/avr/bin/../lib/gcc/avr/5.4.0/avrxmega3/libgcc.a(_divmodhi4.o)
 .bss           0x00000000        0x0 /opt/microchip/xc8/v2.10/avr/bin/../lib/gcc/avr/5.4.0/avrxmega3/libgcc.a(_divmodhi4.o)
 .text.libgcc.mul
                0x00000000        0x0 /opt/microchip/xc8/v2.10/avr/bin/../lib/gcc/avr/5.4.0/avrxmega3/libgcc.a(_divmodhi4.o)
 .text.libgcc   0x00000000        0x0 /opt/microchip/xc8/v2.10/avr/bin/../lib/gcc/avr/5.4.0/avrxmega3/libgcc.a(_divmodhi4.o)
 .text.libgcc.prologue
                0x00000000        0x0 /opt/microchip/xc8/v2.10/avr/bin/../lib/gcc/avr/5.4.0/avrxmega3/libgcc.a(_divmodhi4.o)
 .text.libgcc.builtins
                0x00000000        0x0 /opt/microchip/xc8/v2.10/avr/bin/../lib/gcc/avr/5.4.0/avrxmega3/libgcc.a(_divmodhi4.o)
 .text.libgcc.fmul
                0x00000000        0x0 /opt/microchip/xc8/v2.10/avr/bin/../lib/gcc/avr/5.4.0/avrxmega3/libgcc.a(_divmodhi4.o)
 .text.libgcc.fixed
                0x00000000        0x0 /opt/microchip/xc8/v2.10/avr/bin/../lib/gcc/avr/5.4.0/avrxmega3/libgcc.a(_divmodhi4.o)
 .text          0x00000000        0x0 /opt/microchip/xc8/v2.10/avr/bin/../lib/gcc/avr/5.4.0/avrxmega3/libgcc.a(_udivmodsi4.o)
 .data          0x00000000        0x0 /opt/microchip/xc8/v2.10/avr/bin/../lib/gcc/avr/5.4.0/avrxmega3/libgcc.a(_udivmodsi4.o)
 .bss           0x00000000        0x0 /opt/microchip/xc8/v2.10/avr/bin/../lib/gcc/avr/5.4.0/avrxmega3/libgcc.a(_udivmodsi4.o)
 .text.libgcc.mul
                0x00000000        0x0 /opt/microchip/xc8/v2.10/avr/bin/../lib/gcc/avr/5.4.0/avrxmega3/libgcc.a(_udivmodsi4.o)
 .text.libgcc   0x00000000        0x0 /opt/microchip/xc8/v2.10/avr/bin/../lib/gcc/avr/5.4.0/avrxmega3/libgcc.a(_udivmodsi4.o)
 .text.libgcc.prologue
                0x00000000        0x0 /opt/microchip/xc8/v2.10/avr/bin/../lib/gcc/avr/5.4.0/avrxmega3/libgcc.a(_udivmodsi4.o)
 .text.libgcc.builtins
                0x00000000        0x0 /opt/microchip/xc8/v2.10/avr/bin/../lib/gcc/avr/5.4.0/avrxmega3/libgcc.a(_udivmodsi4.o)
 .text.libgcc.fmul
                0x00000000        0x0 /opt/microchip/xc8/v2.10/avr/bin/../lib/gcc/avr/5.4.0/avrxmega3/libgcc.a(_udivmodsi4.o)
 .text.libgcc.fixed
                0x00000000        0x0 /opt/microchip/xc8/v2.10/avr/bin/../lib/gcc/avr/5.4.0/avrxmega3/libgcc.a(_udivmodsi4.o)
 .text          0x00000000        0x0 /opt/microchip/xc8/v2.10/avr/bin/../lib/gcc/avr/5.4.0/avrxmega3/libgcc.a(_divmodsi4.o)
 .data          0x00000000        0x0 /opt/microchip/xc8/v2.10/avr/bin/../lib/gcc/avr/5.4.0/avrxmega3/libgcc.a(_divmodsi4.o)
 .bss           0x00000000        0x0 /opt/microchip/xc8/v2.10/avr/bin/../lib/gcc/avr/5.4.0/avrxmega3/libgcc.a(_divmodsi4.o)
 .text.libgcc.mul
                0x00000000        0x0 /opt/microchip/xc8/v2.10/avr/bin/../lib/gcc/avr/5.4.0/avrxmega3/libgcc.a(_divmodsi4.o)
 .text.libgcc   0x00000000        0x0 /opt/microchip/xc8/v2.10/avr/bin/../lib/gcc/avr/5.4.0/avrxmega3/libgcc.a(_divmodsi4.o)
 .text.libgcc.prologue
                0x00000000        0x0 /opt/microchip/xc8/v2.10/avr/bin/../lib/gcc/avr/5.4.0/avrxmega3/libgcc.a(_divmodsi4.o)
 .text.libgcc.builtins
                0x00000000        0x0 /opt/microchip/xc8/v2.10/avr/bin/../lib/gcc/avr/5.4.0/avrxmega3/libgcc.a(_divmodsi4.o)
 .text.libgcc.fmul
                0x00000000        0x0 /opt/microchip/xc8/v2.10/avr/bin/../lib/gcc/avr/5.4.0/avrxmega3/libgcc.a(_divmodsi4.o)
 .text.libgcc.fixed
                0x00000000        0x0 /opt/microchip/xc8/v2.10/avr/bin/../lib/gcc/avr/5.4.0/avrxmega3/libgcc.a(_divmodsi4.o)
 .text          0x00000000        0x0 /opt/microchip/xc8/v2.10/avr/bin/../lib/gcc/avr/5.4.0/avrxmega3/libgcc.a(_exit.o)
 .data          0x00000000        0x0 /opt/microchip/xc8/v2.10/avr/bin/../lib/gcc/avr/5.4.0/avrxmega3/libgcc.a(_exit.o)
 .bss           0x00000000        0x0 /opt/microchip/xc8/v2.10/avr/bin/../lib/gcc/avr/5.4.0/avrxmega3/libgcc.a(_exit.o)
 .text.libgcc.mul
                0x00000000        0x0 /opt/microchip/xc8/v2.10/avr/bin/../lib/gcc/avr/5.4.0/avrxmega3/libgcc.a(_exit.o)
 .text.libgcc.div
                0x00000000        0x0 /opt/microchip/xc8/v2.10/avr/bin/../lib/gcc/avr/5.4.0/avrxmega3/libgcc.a(_exit.o)
 .text.libgcc   0x00000000        0x0 /opt/microchip/xc8/v2.10/avr/bin/../lib/gcc/avr/5.4.0/avrxmega3/libgcc.a(_exit.o)
 .text.libgcc.prologue
                0x00000000        0x0 /opt/microchip/xc8/v2.10/avr/bin/../lib/gcc/avr/5.4.0/avrxmega3/libgcc.a(_exit.o)
 .text.libgcc.builtins
                0x00000000        0x0 /opt/microchip/xc8/v2.10/avr/bin/../lib/gcc/avr/5.4.0/avrxmega3/libgcc.a(_exit.o)
 .text.libgcc.fmul
                0x00000000        0x0 /opt/microchip/xc8/v2.10/avr/bin/../lib/gcc/avr/5.4.0/avrxmega3/libgcc.a(_exit.o)
 .text.libgcc.fixed
                0x00000000        0x0 /opt/microchip/xc8/v2.10/avr/bin/../lib/gcc/avr/5.4.0/avrxmega3/libgcc.a(_exit.o)
 .text          0x00000000        0x0 /opt/microchip/xc8/v2.10/avr/bin/../lib/gcc/avr/5.4.0/avrxmega3/libgcc.a(_tablejump2.o)
 .data          0x00000000        0x0 /opt/microchip/xc8/v2.10/avr/bin/../lib/gcc/avr/5.4.0/avrxmega3/libgcc.a(_tablejump2.o)
 .bss           0x00000000        0x0 /opt/microchip/xc8/v2.10/avr/bin/../lib/gcc/avr/5.4.0/avrxmega3/libgcc.a(_tablejump2.o)
 .text.libgcc.mul
                0x00000000        0x0 /opt/microchip/xc8/v2.10/avr/bin/../lib/gcc/avr/5.4.0/avrxmega3/libgcc.a(_tablejump2.o)
 .text.libgcc.div
                0x00000000        0x0 /opt/microchip/xc8/v2.10/avr/bin/../lib/gcc/avr/5.4.0/avrxmega3/libgcc.a(_tablejump2.o)
 .text.libgcc.prologue
                0x00000000        0x0 /opt/microchip/xc8/v2.10/avr/bin/../lib/gcc/avr/5.4.0/avrxmega3/libgcc.a(_tablejump2.o)
 .text.libgcc.builtins
                0x00000000        0x0 /opt/microchip/xc8/v2.10/avr/bin/../lib/gcc/avr/5.4.0/avrxmega3/libgcc.a(_tablejump2.o)
 .text.libgcc.fmul
                0x00000000        0x0 /opt/microchip/xc8/v2.10/avr/bin/../lib/gcc/avr/5.4.0/avrxmega3/libgcc.a(_tablejump2.o)
 .text.libgcc.fixed
                0x00000000        0x0 /opt/microchip/xc8/v2.10/avr/bin/../lib/gcc/avr/5.4.0/avrxmega3/libgcc.a(_tablejump2.o)
 .text          0x00000000        0x0 /opt/microchip/xc8/v2.10/avr/bin/../lib/gcc/avr/5.4.0/avrxmega3/libgcc.a(_copy_data.o)
 .data          0x00000000        0x0 /opt/microchip/xc8/v2.10/avr/bin/../lib/gcc/avr/5.4.0/avrxmega3/libgcc.a(_copy_data.o)
 .bss           0x00000000        0x0 /opt/microchip/xc8/v2.10/avr/bin/../lib/gcc/avr/5.4.0/avrxmega3/libgcc.a(_copy_data.o)
 .text.libgcc.mul
                0x00000000        0x0 /opt/microchip/xc8/v2.10/avr/bin/../lib/gcc/avr/5.4.0/avrxmega3/libgcc.a(_copy_data.o)
 .text.libgcc.div
                0x00000000        0x0 /opt/microchip/xc8/v2.10/avr/bin/../lib/gcc/avr/5.4.0/avrxmega3/libgcc.a(_copy_data.o)
 .text.libgcc   0x00000000        0x0 /opt/microchip/xc8/v2.10/avr/bin/../lib/gcc/avr/5.4.0/avrxmega3/libgcc.a(_copy_data.o)
 .text.libgcc.prologue
                0x00000000        0x0 /opt/microchip/xc8/v2.10/avr/bin/../lib/gcc/avr/5.4.0/avrxmega3/libgcc.a(_copy_data.o)
 .text.libgcc.builtins
                0x00000000        0x0 /opt/microchip/xc8/v2.10/avr/bin/../lib/gcc/avr/5.4.0/avrxmega3/libgcc.a(_copy_data.o)
 .text.libgcc.fmul
                0x00000000        0x0 /opt/microchip/xc8/v2.10/avr/bin/../lib/gcc/avr/5.4.0/avrxmega3/libgcc.a(_copy_data.o)
 .text.libgcc.fixed
                0x00000000        0x0 /opt/microchip/xc8/v2.10/avr/bin/../lib/gcc/avr/5.4.0/avrxmega3/libgcc.a(_copy_data.o)
 .text          0x00000000        0x0 /opt/microchip/xc8/v2.10/avr/bin/../lib/gcc/avr/5.4.0/avrxmega3/libgcc.a(_bswapsi2.o)
 .data          0x00000000        0x0 /opt/microchip/xc8/v2.10/avr/bin/../lib/gcc/avr/5.4.0/avrxmega3/libgcc.a(_bswapsi2.o)
 .bss           0x00000000        0x0 /opt/microchip/xc8/v2.10/avr/bin/../lib/gcc/avr/5.4.0/avrxmega3/libgcc.a(_bswapsi2.o)
 .text.libgcc.mul
                0x00000000        0x0 /opt/microchip/xc8/v2.10/avr/bin/../lib/gcc/avr/5.4.0/avrxmega3/libgcc.a(_bswapsi2.o)
 .text.libgcc.div
                0x00000000        0x0 /opt/microchip/xc8/v2.10/avr/bin/../lib/gcc/avr/5.4.0/avrxmega3/libgcc.a(_bswapsi2.o)
 .text.libgcc   0x00000000        0x0 /opt/microchip/xc8/v2.10/avr/bin/../lib/gcc/avr/5.4.0/avrxmega3/libgcc.a(_bswapsi2.o)
 .text.libgcc.prologue
                0x00000000        0x0 /opt/microchip/xc8/v2.10/avr/bin/../lib/gcc/avr/5.4.0/avrxmega3/libgcc.a(_bswapsi2.o)
 .text.libgcc.builtins
                0x00000000        0xe /opt/microchip/xc8/v2.10/avr/bin/../lib/gcc/avr/5.4.0/avrxmega3/libgcc.a(_bswapsi2.o)
 .text.libgcc.fmul
                0x00000000        0x0 /opt/microchip/xc8/v2.10/avr/bin/../lib/gcc/avr/5.4.0/avrxmega3/libgcc.a(_bswapsi2.o)
 .text.libgcc.fixed
                0x00000000        0x0 /opt/microchip/xc8/v2.10/avr/bin/../lib/gcc/avr/5.4.0/avrxmega3/libgcc.a(_bswapsi2.o)
 .text          0x00000000        0x0 /opt/microchip/xc8/v2.10/avr/bin/../lib/gcc/avr/5.4.0/avrxmega3/libgcc.a(_umulhisi3.o)
 .data          0x00000000        0x0 /opt/microchip/xc8/v2.10/avr/bin/../lib/gcc/avr/5.4.0/avrxmega3/libgcc.a(_umulhisi3.o)
 .bss           0x00000000        0x0 /opt/microchip/xc8/v2.10/avr/bin/../lib/gcc/avr/5.4.0/avrxmega3/libgcc.a(_umulhisi3.o)
 .text.libgcc.div
                0x00000000        0x0 /opt/microchip/xc8/v2.10/avr/bin/../lib/gcc/avr/5.4.0/avrxmega3/libgcc.a(_umulhisi3.o)
 .text.libgcc   0x00000000        0x0 /opt/microchip/xc8/v2.10/avr/bin/../lib/gcc/avr/5.4.0/avrxmega3/libgcc.a(_umulhisi3.o)
 .text.libgcc.prologue
                0x00000000        0x0 /opt/microchip/xc8/v2.10/avr/bin/../lib/gcc/avr/5.4.0/avrxmega3/libgcc.a(_umulhisi3.o)
 .text.libgcc.builtins
                0x00000000        0x0 /opt/microchip/xc8/v2.10/avr/bin/../lib/gcc/avr/5.4.0/avrxmega3/libgcc.a(_umulhisi3.o)
 .text.libgcc.fmul
                0x00000000        0x0 /opt/microchip/xc8/v2.10/avr/bin/../lib/gcc/avr/5.4.0/avrxmega3/libgcc.a(_umulhisi3.o)
 .text.libgcc.fixed
                0x00000000        0x0 /opt/microchip/xc8/v2.10/avr/bin/../lib/gcc/avr/5.4.0/avrxmega3/libgcc.a(_umulhisi3.o)
 .text          0x00000000        0x0 /opt/microchip/xc8/v2.10/avr/bin/../lib/gcc/avr/5.4.0/avrxmega3/libgcc.a(_usmulhisi3.o)
 .data          0x00000000        0x0 /opt/microchip/xc8/v2.10/avr/bin/../lib/gcc/avr/5.4.0/avrxmega3/libgcc.a(_usmulhisi3.o)
 .bss           0x00000000        0x0 /opt/microchip/xc8/v2.10/avr/bin/../lib/gcc/avr/5.4.0/avrxmega3/libgcc.a(_usmulhisi3.o)
 .text.libgcc.div
                0x00000000        0x0 /opt/microchip/xc8/v2.10/avr/bin/../lib/gcc/avr/5.4.0/avrxmega3/libgcc.a(_usmulhisi3.o)
 .text.libgcc   0x00000000        0x0 /opt/microchip/xc8/v2.10/avr/bin/../lib/gcc/avr/5.4.0/avrxmega3/libgcc.a(_usmulhisi3.o)
 .text.libgcc.prologue
                0x00000000        0x0 /opt/microchip/xc8/v2.10/avr/bin/../lib/gcc/avr/5.4.0/avrxmega3/libgcc.a(_usmulhisi3.o)
 .text.libgcc.builtins
                0x00000000        0x0 /opt/microchip/xc8/v2.10/avr/bin/../lib/gcc/avr/5.4.0/avrxmega3/libgcc.a(_usmulhisi3.o)
 .text.libgcc.fmul
                0x00000000        0x0 /opt/microchip/xc8/v2.10/avr/bin/../lib/gcc/avr/5.4.0/avrxmega3/libgcc.a(_usmulhisi3.o)
 .text.libgcc.fixed
                0x00000000        0x0 /opt/microchip/xc8/v2.10/avr/bin/../lib/gcc/avr/5.4.0/avrxmega3/libgcc.a(_usmulhisi3.o)
 .text          0x00000000        0x0 /opt/microchip/xc8/v2.10/avr/bin/../lib/gcc/avr/5.4.0/avrxmega3/libgcc.a(_muluhisi3.o)
 .data          0x00000000        0x0 /opt/microchip/xc8/v2.10/avr/bin/../lib/gcc/avr/5.4.0/avrxmega3/libgcc.a(_muluhisi3.o)
 .bss           0x00000000        0x0 /opt/microchip/xc8/v2.10/avr/bin/../lib/gcc/avr/5.4.0/avrxmega3/libgcc.a(_muluhisi3.o)
 .text.libgcc.div
                0x00000000        0x0 /opt/microchip/xc8/v2.10/avr/bin/../lib/gcc/avr/5.4.0/avrxmega3/libgcc.a(_muluhisi3.o)
 .text.libgcc   0x00000000        0x0 /opt/microchip/xc8/v2.10/avr/bin/../lib/gcc/avr/5.4.0/avrxmega3/libgcc.a(_muluhisi3.o)
 .text.libgcc.prologue
                0x00000000        0x0 /opt/microchip/xc8/v2.10/avr/bin/../lib/gcc/avr/5.4.0/avrxmega3/libgcc.a(_muluhisi3.o)
 .text.libgcc.builtins
                0x00000000        0x0 /opt/microchip/xc8/v2.10/avr/bin/../lib/gcc/avr/5.4.0/avrxmega3/libgcc.a(_muluhisi3.o)
 .text.libgcc.fmul
                0x00000000        0x0 /opt/microchip/xc8/v2.10/avr/bin/../lib/gcc/avr/5.4.0/avrxmega3/libgcc.a(_muluhisi3.o)
 .text.libgcc.fixed
                0x00000000        0x0 /opt/microchip/xc8/v2.10/avr/bin/../lib/gcc/avr/5.4.0/avrxmega3/libgcc.a(_muluhisi3.o)
 .text          0x00000000        0x0 /opt/microchip/xc8/v2.10/avr/bin/../lib/gcc/avr/5.4.0/avrxmega3/libgcc.a(_mulshisi3.o)
 .data          0x00000000        0x0 /opt/microchip/xc8/v2.10/avr/bin/../lib/gcc/avr/5.4.0/avrxmega3/libgcc.a(_mulshisi3.o)
 .bss           0x00000000        0x0 /opt/microchip/xc8/v2.10/avr/bin/../lib/gcc/avr/5.4.0/avrxmega3/libgcc.a(_mulshisi3.o)
 .text.libgcc.mul
                0x00000000       0x10 /opt/microchip/xc8/v2.10/avr/bin/../lib/gcc/avr/5.4.0/avrxmega3/libgcc.a(_mulshisi3.o)
 .text.libgcc.div
                0x00000000        0x0 /opt/microchip/xc8/v2.10/avr/bin/../lib/gcc/avr/5.4.0/avrxmega3/libgcc.a(_mulshisi3.o)
 .text.libgcc   0x00000000        0x0 /opt/microchip/xc8/v2.10/avr/bin/../lib/gcc/avr/5.4.0/avrxmega3/libgcc.a(_mulshisi3.o)
 .text.libgcc.prologue
                0x00000000        0x0 /opt/microchip/xc8/v2.10/avr/bin/../lib/gcc/avr/5.4.0/avrxmega3/libgcc.a(_mulshisi3.o)
 .text.libgcc.builtins
                0x00000000        0x0 /opt/microchip/xc8/v2.10/avr/bin/../lib/gcc/avr/5.4.0/avrxmega3/libgcc.a(_mulshisi3.o)
 .text.libgcc.fmul
                0x00000000        0x0 /opt/microchip/xc8/v2.10/avr/bin/../lib/gcc/avr/5.4.0/avrxmega3/libgcc.a(_mulshisi3.o)
 .text.libgcc.fixed
                0x00000000        0x0 /opt/microchip/xc8/v2.10/avr/bin/../lib/gcc/avr/5.4.0/avrxmega3/libgcc.a(_mulshisi3.o)
 .text          0x00000000        0x0 /opt/microchip/xc8/v2.10/avr/bin/../lib/gcc/avr/5.4.0/../../../../avr/lib/avrxmega3/libc.a(atoi_M.o)
 .data          0x00000000        0x0 /opt/microchip/xc8/v2.10/avr/bin/../lib/gcc/avr/5.4.0/../../../../avr/lib/avrxmega3/libc.a(atoi_M.o)
 .bss           0x00000000        0x0 /opt/microchip/xc8/v2.10/avr/bin/../lib/gcc/avr/5.4.0/../../../../avr/lib/avrxmega3/libc.a(atoi_M.o)
 .text          0x00000000        0x0 /opt/microchip/xc8/v2.10/avr/bin/../lib/gcc/avr/5.4.0/../../../../avr/lib/avrxmega3/libc.a(tolower.o)
 .data          0x00000000        0x0 /opt/microchip/xc8/v2.10/avr/bin/../lib/gcc/avr/5.4.0/../../../../avr/lib/avrxmega3/libc.a(tolower.o)
 .bss           0x00000000        0x0 /opt/microchip/xc8/v2.10/avr/bin/../lib/gcc/avr/5.4.0/../../../../avr/lib/avrxmega3/libc.a(tolower.o)
 .text.avrlibc  0x00000000       0x10 /opt/microchip/xc8/v2.10/avr/bin/../lib/gcc/avr/5.4.0/../../../../avr/lib/avrxmega3/libc.a(tolower.o)
 .text          0x00000000        0x0 /opt/microchip/xc8/v2.10/avr/bin/../lib/gcc/avr/5.4.0/../../../../avr/lib/avrxmega3/libc.a(toupper.o)
 .data          0x00000000        0x0 /opt/microchip/xc8/v2.10/avr/bin/../lib/gcc/avr/5.4.0/../../../../avr/lib/avrxmega3/libc.a(toupper.o)
 .bss           0x00000000        0x0 /opt/microchip/xc8/v2.10/avr/bin/../lib/gcc/avr/5.4.0/../../../../avr/lib/avrxmega3/libc.a(toupper.o)
 .text.avrlibc  0x00000000       0x10 /opt/microchip/xc8/v2.10/avr/bin/../lib/gcc/avr/5.4.0/../../../../avr/lib/avrxmega3/libc.a(toupper.o)
 .text          0x00000000        0x0 /opt/microchip/xc8/v2.10/avr/bin/../lib/gcc/avr/5.4.0/../../../../avr/lib/avrxmega3/libc.a(strtok.o)
 .data          0x00000000        0x0 /opt/microchip/xc8/v2.10/avr/bin/../lib/gcc/avr/5.4.0/../../../../avr/lib/avrxmega3/libc.a(strtok.o)
 .text          0x00000000        0x0 /opt/microchip/xc8/v2.10/avr/bin/../lib/gcc/avr/5.4.0/../../../../avr/lib/avrxmega3/libc.a(memcmp.o)
 .data          0x00000000        0x0 /opt/microchip/xc8/v2.10/avr/bin/../lib/gcc/avr/5.4.0/../../../../avr/lib/avrxmega3/libc.a(memcmp.o)
 .bss           0x00000000        0x0 /opt/microchip/xc8/v2.10/avr/bin/../lib/gcc/avr/5.4.0/../../../../avr/lib/avrxmega3/libc.a(memcmp.o)
 .text          0x00000000        0x0 /opt/microchip/xc8/v2.10/avr/bin/../lib/gcc/avr/5.4.0/../../../../avr/lib/avrxmega3/libc.a(memcpy.o)
 .data          0x00000000        0x0 /opt/microchip/xc8/v2.10/avr/bin/../lib/gcc/avr/5.4.0/../../../../avr/lib/avrxmega3/libc.a(memcpy.o)
 .bss           0x00000000        0x0 /opt/microchip/xc8/v2.10/avr/bin/../lib/gcc/avr/5.4.0/../../../../avr/lib/avrxmega3/libc.a(memcpy.o)
 .text          0x00000000        0x0 /opt/microchip/xc8/v2.10/avr/bin/../lib/gcc/avr/5.4.0/../../../../avr/lib/avrxmega3/libc.a(memmove.o)
 .data          0x00000000        0x0 /opt/microchip/xc8/v2.10/avr/bin/../lib/gcc/avr/5.4.0/../../../../avr/lib/avrxmega3/libc.a(memmove.o)
 .bss           0x00000000        0x0 /opt/microchip/xc8/v2.10/avr/bin/../lib/gcc/avr/5.4.0/../../../../avr/lib/avrxmega3/libc.a(memmove.o)
 .text.avrlibc  0x00000000       0x24 /opt/microchip/xc8/v2.10/avr/bin/../lib/gcc/avr/5.4.0/../../../../avr/lib/avrxmega3/libc.a(memmove.o)
 .text          0x00000000        0x0 /opt/microchip/xc8/v2.10/avr/bin/../lib/gcc/avr/5.4.0/../../../../avr/lib/avrxmega3/libc.a(memset.o)
 .data          0x00000000        0x0 /opt/microchip/xc8/v2.10/avr/bin/../lib/gcc/avr/5.4.0/../../../../avr/lib/avrxmega3/libc.a(memset.o)
 .bss           0x00000000        0x0 /opt/microchip/xc8/v2.10/avr/bin/../lib/gcc/avr/5.4.0/../../../../avr/lib/avrxmega3/libc.a(memset.o)
 .text          0x00000000        0x0 /opt/microchip/xc8/v2.10/avr/bin/../lib/gcc/avr/5.4.0/../../../../avr/lib/avrxmega3/libc.a(strchr.o)
 .data          0x00000000        0x0 /opt/microchip/xc8/v2.10/avr/bin/../lib/gcc/avr/5.4.0/../../../../avr/lib/avrxmega3/libc.a(strchr.o)
 .bss           0x00000000        0x0 /opt/microchip/xc8/v2.10/avr/bin/../lib/gcc/avr/5.4.0/../../../../avr/lib/avrxmega3/libc.a(strchr.o)
 .text          0x00000000        0x0 /opt/microchip/xc8/v2.10/avr/bin/../lib/gcc/avr/5.4.0/../../../../avr/lib/avrxmega3/libc.a(strcmp.o)
 .data          0x00000000        0x0 /opt/microchip/xc8/v2.10/avr/bin/../lib/gcc/avr/5.4.0/../../../../avr/lib/avrxmega3/libc.a(strcmp.o)
 .bss           0x00000000        0x0 /opt/microchip/xc8/v2.10/avr/bin/../lib/gcc/avr/5.4.0/../../../../avr/lib/avrxmega3/libc.a(strcmp.o)
 .text          0x00000000        0x0 /opt/microchip/xc8/v2.10/avr/bin/../lib/gcc/avr/5.4.0/../../../../avr/lib/avrxmega3/libc.a(strcpy.o)
 .data          0x00000000        0x0 /opt/microchip/xc8/v2.10/avr/bin/../lib/gcc/avr/5.4.0/../../../../avr/lib/avrxmega3/libc.a(strcpy.o)
 .bss           0x00000000        0x0 /opt/microchip/xc8/v2.10/avr/bin/../lib/gcc/avr/5.4.0/../../../../avr/lib/avrxmega3/libc.a(strcpy.o)
 .text          0x00000000        0x0 /opt/microchip/xc8/v2.10/avr/bin/../lib/gcc/avr/5.4.0/../../../../avr/lib/avrxmega3/libc.a(strncmp.o)
 .data          0x00000000        0x0 /opt/microchip/xc8/v2.10/avr/bin/../lib/gcc/avr/5.4.0/../../../../avr/lib/avrxmega3/libc.a(strncmp.o)
 .bss           0x00000000        0x0 /opt/microchip/xc8/v2.10/avr/bin/../lib/gcc/avr/5.4.0/../../../../avr/lib/avrxmega3/libc.a(strncmp.o)
 .text          0x00000000        0x0 /opt/microchip/xc8/v2.10/avr/bin/../lib/gcc/avr/5.4.0/../../../../avr/lib/avrxmega3/libc.a(strncpy.o)
 .data          0x00000000        0x0 /opt/microchip/xc8/v2.10/avr/bin/../lib/gcc/avr/5.4.0/../../../../avr/lib/avrxmega3/libc.a(strncpy.o)
 .bss           0x00000000        0x0 /opt/microchip/xc8/v2.10/avr/bin/../lib/gcc/avr/5.4.0/../../../../avr/lib/avrxmega3/libc.a(strncpy.o)
 .text          0x00000000        0x0 /opt/microchip/xc8/v2.10/avr/bin/../lib/gcc/avr/5.4.0/../../../../avr/lib/avrxmega3/libc.a(strstr.o)
 .data          0x00000000        0x0 /opt/microchip/xc8/v2.10/avr/bin/../lib/gcc/avr/5.4.0/../../../../avr/lib/avrxmega3/libc.a(strstr.o)
 .bss           0x00000000        0x0 /opt/microchip/xc8/v2.10/avr/bin/../lib/gcc/avr/5.4.0/../../../../avr/lib/avrxmega3/libc.a(strstr.o)
 .text          0x00000000        0x0 /opt/microchip/xc8/v2.10/avr/bin/../lib/gcc/avr/5.4.0/../../../../avr/lib/avrxmega3/libc.a(strtok_r.o)
 .data          0x00000000        0x0 /opt/microchip/xc8/v2.10/avr/bin/../lib/gcc/avr/5.4.0/../../../../avr/lib/avrxmega3/libc.a(strtok_r.o)
 .bss           0x00000000        0x0 /opt/microchip/xc8/v2.10/avr/bin/../lib/gcc/avr/5.4.0/../../../../avr/lib/avrxmega3/libc.a(strtok_r.o)
 .text          0x00000000        0x0 /opt/microchip/xc8/v2.10/avr/bin/../lib/gcc/avr/5.4.0/../../../../avr/lib/avrxmega3/libc.a(mulsi10.o)
 .data          0x00000000        0x0 /opt/microchip/xc8/v2.10/avr/bin/../lib/gcc/avr/5.4.0/../../../../avr/lib/avrxmega3/libc.a(mulsi10.o)
 .bss           0x00000000        0x0 /opt/microchip/xc8/v2.10/avr/bin/../lib/gcc/avr/5.4.0/../../../../avr/lib/avrxmega3/libc.a(mulsi10.o)
 .text          0x00000000        0x0 /opt/microchip/xc8/v2.10/avr/bin/../lib/gcc/avr/5.4.0/../../../../avr/lib/avrxmega3/libc.a(iob.o)
 .data          0x00000000        0x0 /opt/microchip/xc8/v2.10/avr/bin/../lib/gcc/avr/5.4.0/../../../../avr/lib/avrxmega3/libc.a(iob.o)
 .bss           0x00000000        0x0 /opt/microchip/xc8/v2.10/avr/bin/../lib/gcc/avr/5.4.0/../../../../avr/lib/avrxmega3/libc.a(iob.o)
 .text          0x00000000        0x0 /opt/microchip/xc8/v2.10/avr/bin/../lib/gcc/avr/5.4.0/../../../../avr/lib/avrxmega3/libc.a(printf.o)
 .data          0x00000000        0x0 /opt/microchip/xc8/v2.10/avr/bin/../lib/gcc/avr/5.4.0/../../../../avr/lib/avrxmega3/libc.a(printf.o)
 .bss           0x00000000        0x0 /opt/microchip/xc8/v2.10/avr/bin/../lib/gcc/avr/5.4.0/../../../../avr/lib/avrxmega3/libc.a(printf.o)
 .text          0x00000000        0x0 /opt/microchip/xc8/v2.10/avr/bin/../lib/gcc/avr/5.4.0/../../../../avr/lib/avrxmega3/libc.a(snprintf.o)
 .data          0x00000000        0x0 /opt/microchip/xc8/v2.10/avr/bin/../lib/gcc/avr/5.4.0/../../../../avr/lib/avrxmega3/libc.a(snprintf.o)
 .bss           0x00000000        0x0 /opt/microchip/xc8/v2.10/avr/bin/../lib/gcc/avr/5.4.0/../../../../avr/lib/avrxmega3/libc.a(snprintf.o)
 .text.avrlibc  0x00000000       0x60 /opt/microchip/xc8/v2.10/avr/bin/../lib/gcc/avr/5.4.0/../../../../avr/lib/avrxmega3/libc.a(snprintf.o)
 .comment       0x00000000       0x2d /opt/microchip/xc8/v2.10/avr/bin/../lib/gcc/avr/5.4.0/../../../../avr/lib/avrxmega3/libc.a(snprintf.o)
 .text          0x00000000        0x0 /opt/microchip/xc8/v2.10/avr/bin/../lib/gcc/avr/5.4.0/../../../../avr/lib/avrxmega3/libc.a(sprintf.o)
 .data          0x00000000        0x0 /opt/microchip/xc8/v2.10/avr/bin/../lib/gcc/avr/5.4.0/../../../../avr/lib/avrxmega3/libc.a(sprintf.o)
 .bss           0x00000000        0x0 /opt/microchip/xc8/v2.10/avr/bin/../lib/gcc/avr/5.4.0/../../../../avr/lib/avrxmega3/libc.a(sprintf.o)
 .text          0x00000000        0x0 /opt/microchip/xc8/v2.10/avr/bin/../lib/gcc/avr/5.4.0/../../../../avr/lib/avrxmega3/libc.a(vprintf.o)
 .data          0x00000000        0x0 /opt/microchip/xc8/v2.10/avr/bin/../lib/gcc/avr/5.4.0/../../../../avr/lib/avrxmega3/libc.a(vprintf.o)
 .bss           0x00000000        0x0 /opt/microchip/xc8/v2.10/avr/bin/../lib/gcc/avr/5.4.0/../../../../avr/lib/avrxmega3/libc.a(vprintf.o)
 .text          0x00000000       0x36 /opt/microchip/xc8/v2.10/avr/bin/../lib/gcc/avr/5.4.0/../../../../avr/lib/avrxmega3/libc.a(ctime.o)
 .data          0x00000000        0x0 /opt/microchip/xc8/v2.10/avr/bin/../lib/gcc/avr/5.4.0/../../../../avr/lib/avrxmega3/libc.a(ctime.o)
 .bss           0x00000000        0x0 /opt/microchip/xc8/v2.10/avr/bin/../lib/gcc/avr/5.4.0/../../../../avr/lib/avrxmega3/libc.a(ctime.o)
 .comment       0x00000000       0x2d /opt/microchip/xc8/v2.10/avr/bin/../lib/gcc/avr/5.4.0/../../../../avr/lib/avrxmega3/libc.a(ctime.o)
 .data          0x00000000        0x0 /opt/microchip/xc8/v2.10/avr/bin/../lib/gcc/avr/5.4.0/../../../../avr/lib/avrxmega3/libc.a(difftime.o)
 .bss           0x00000000        0x0 /opt/microchip/xc8/v2.10/avr/bin/../lib/gcc/avr/5.4.0/../../../../avr/lib/avrxmega3/libc.a(difftime.o)
 .data          0x00000000        0x0 /opt/microchip/xc8/v2.10/avr/bin/../lib/gcc/avr/5.4.0/../../../../avr/lib/avrxmega3/libc.a(localtime_r.o)
 .bss           0x00000000        0x0 /opt/microchip/xc8/v2.10/avr/bin/../lib/gcc/avr/5.4.0/../../../../avr/lib/avrxmega3/libc.a(localtime_r.o)
 .data          0x00000000        0x0 /opt/microchip/xc8/v2.10/avr/bin/../lib/gcc/avr/5.4.0/../../../../avr/lib/avrxmega3/libc.a(mktime.o)
 .bss           0x00000000        0x0 /opt/microchip/xc8/v2.10/avr/bin/../lib/gcc/avr/5.4.0/../../../../avr/lib/avrxmega3/libc.a(mktime.o)
 .data          0x00000000        0x0 /opt/microchip/xc8/v2.10/avr/bin/../lib/gcc/avr/5.4.0/../../../../avr/lib/avrxmega3/libc.a(set_system_time.o)
 .bss           0x00000000        0x0 /opt/microchip/xc8/v2.10/avr/bin/../lib/gcc/avr/5.4.0/../../../../avr/lib/avrxmega3/libc.a(set_system_time.o)
 .text          0x00000000        0x0 /opt/microchip/xc8/v2.10/avr/bin/../lib/gcc/avr/5.4.0/../../../../avr/lib/avrxmega3/libc.a(system_time.o)
 .data          0x00000000        0x0 /opt/microchip/xc8/v2.10/avr/bin/../lib/gcc/avr/5.4.0/../../../../avr/lib/avrxmega3/libc.a(system_time.o)
 .bss           0x00000000        0x0 /opt/microchip/xc8/v2.10/avr/bin/../lib/gcc/avr/5.4.0/../../../../avr/lib/avrxmega3/libc.a(system_time.o)
 .text          0x00000000        0x0 /opt/microchip/xc8/v2.10/avr/bin/../lib/gcc/avr/5.4.0/../../../../avr/lib/avrxmega3/libc.a(utc_offset.o)
 .data          0x00000000        0x0 /opt/microchip/xc8/v2.10/avr/bin/../lib/gcc/avr/5.4.0/../../../../avr/lib/avrxmega3/libc.a(utc_offset.o)
 .bss           0x00000000        0x0 /opt/microchip/xc8/v2.10/avr/bin/../lib/gcc/avr/5.4.0/../../../../avr/lib/avrxmega3/libc.a(utc_offset.o)
 .text          0x00000000        0x0 /opt/microchip/xc8/v2.10/avr/bin/../lib/gcc/avr/5.4.0/../../../../avr/lib/avrxmega3/libc.a(vfprintf_std.o)
 .data          0x00000000        0x0 /opt/microchip/xc8/v2.10/avr/bin/../lib/gcc/avr/5.4.0/../../../../avr/lib/avrxmega3/libc.a(vfprintf_std.o)
 .bss           0x00000000        0x0 /opt/microchip/xc8/v2.10/avr/bin/../lib/gcc/avr/5.4.0/../../../../avr/lib/avrxmega3/libc.a(vfprintf_std.o)
 .text          0x00000000        0x0 /opt/microchip/xc8/v2.10/avr/bin/../lib/gcc/avr/5.4.0/../../../../avr/lib/avrxmega3/libc.a(strnlen_P.o)
 .data          0x00000000        0x0 /opt/microchip/xc8/v2.10/avr/bin/../lib/gcc/avr/5.4.0/../../../../avr/lib/avrxmega3/libc.a(strnlen_P.o)
 .bss           0x00000000        0x0 /opt/microchip/xc8/v2.10/avr/bin/../lib/gcc/avr/5.4.0/../../../../avr/lib/avrxmega3/libc.a(strnlen_P.o)
 .text          0x00000000        0x0 /opt/microchip/xc8/v2.10/avr/bin/../lib/gcc/avr/5.4.0/../../../../avr/lib/avrxmega3/libc.a(strnlen.o)
 .data          0x00000000        0x0 /opt/microchip/xc8/v2.10/avr/bin/../lib/gcc/avr/5.4.0/../../../../avr/lib/avrxmega3/libc.a(strnlen.o)
 .bss           0x00000000        0x0 /opt/microchip/xc8/v2.10/avr/bin/../lib/gcc/avr/5.4.0/../../../../avr/lib/avrxmega3/libc.a(strnlen.o)
 .text          0x00000000        0x0 /opt/microchip/xc8/v2.10/avr/bin/../lib/gcc/avr/5.4.0/../../../../avr/lib/avrxmega3/libc.a(ultoa_invert.o)
 .data          0x00000000        0x0 /opt/microchip/xc8/v2.10/avr/bin/../lib/gcc/avr/5.4.0/../../../../avr/lib/avrxmega3/libc.a(ultoa_invert.o)
 .bss           0x00000000        0x0 /opt/microchip/xc8/v2.10/avr/bin/../lib/gcc/avr/5.4.0/../../../../avr/lib/avrxmega3/libc.a(ultoa_invert.o)
 .text          0x00000000        0x0 /opt/microchip/xc8/v2.10/avr/bin/../lib/gcc/avr/5.4.0/../../../../avr/lib/avrxmega3/libc.a(asc_store.o)
 .data          0x00000000        0x2 /opt/microchip/xc8/v2.10/avr/bin/../lib/gcc/avr/5.4.0/../../../../avr/lib/avrxmega3/libc.a(asc_store.o)
 .bss           0x00000000        0x0 /opt/microchip/xc8/v2.10/avr/bin/../lib/gcc/avr/5.4.0/../../../../avr/lib/avrxmega3/libc.a(asc_store.o)
 .comment       0x00000000       0x2d /opt/microchip/xc8/v2.10/avr/bin/../lib/gcc/avr/5.4.0/../../../../avr/lib/avrxmega3/libc.a(asc_store.o)
 COMMON         0x00000000       0x1a /opt/microchip/xc8/v2.10/avr/bin/../lib/gcc/avr/5.4.0/../../../../avr/lib/avrxmega3/libc.a(asc_store.o)
 .text          0x00000000       0xfc /opt/microchip/xc8/v2.10/avr/bin/../lib/gcc/avr/5.4.0/../../../../avr/lib/avrxmega3/libc.a(asctime_r.o)
 .data          0x00000000        0x0 /opt/microchip/xc8/v2.10/avr/bin/../lib/gcc/avr/5.4.0/../../../../avr/lib/avrxmega3/libc.a(asctime_r.o)
 .bss           0x00000000        0x0 /opt/microchip/xc8/v2.10/avr/bin/../lib/gcc/avr/5.4.0/../../../../avr/lib/avrxmega3/libc.a(asctime_r.o)
 .progmemx.data
                0x00000000       0x3b /opt/microchip/xc8/v2.10/avr/bin/../lib/gcc/avr/5.4.0/../../../../avr/lib/avrxmega3/libc.a(asctime_r.o)
 .comment       0x00000000       0x2d /opt/microchip/xc8/v2.10/avr/bin/../lib/gcc/avr/5.4.0/../../../../avr/lib/avrxmega3/libc.a(asctime_r.o)
 .text          0x00000000        0x0 /opt/microchip/xc8/v2.10/avr/bin/../lib/gcc/avr/5.4.0/../../../../avr/lib/avrxmega3/libc.a(dst_pointer.o)
 .data          0x00000000        0x0 /opt/microchip/xc8/v2.10/avr/bin/../lib/gcc/avr/5.4.0/../../../../avr/lib/avrxmega3/libc.a(dst_pointer.o)
 .bss           0x00000000        0x0 /opt/microchip/xc8/v2.10/avr/bin/../lib/gcc/avr/5.4.0/../../../../avr/lib/avrxmega3/libc.a(dst_pointer.o)
 .data          0x00000000        0x0 /opt/microchip/xc8/v2.10/avr/bin/../lib/gcc/avr/5.4.0/../../../../avr/lib/avrxmega3/libc.a(gmtime_r.o)
 .bss           0x00000000        0x0 /opt/microchip/xc8/v2.10/avr/bin/../lib/gcc/avr/5.4.0/../../../../avr/lib/avrxmega3/libc.a(gmtime_r.o)
 .data          0x00000000        0x0 /opt/microchip/xc8/v2.10/avr/bin/../lib/gcc/avr/5.4.0/../../../../avr/lib/avrxmega3/libc.a(mk_gmtime.o)
 .bss           0x00000000        0x0 /opt/microchip/xc8/v2.10/avr/bin/../lib/gcc/avr/5.4.0/../../../../avr/lib/avrxmega3/libc.a(mk_gmtime.o)
 .text          0x00000000       0x24 /opt/microchip/xc8/v2.10/avr/bin/../lib/gcc/avr/5.4.0/../../../../avr/lib/avrxmega3/libc.a(print_lz.o)
 .data          0x00000000        0x0 /opt/microchip/xc8/v2.10/avr/bin/../lib/gcc/avr/5.4.0/../../../../avr/lib/avrxmega3/libc.a(print_lz.o)
 .bss           0x00000000        0x0 /opt/microchip/xc8/v2.10/avr/bin/../lib/gcc/avr/5.4.0/../../../../avr/lib/avrxmega3/libc.a(print_lz.o)
 .comment       0x00000000       0x2d /opt/microchip/xc8/v2.10/avr/bin/../lib/gcc/avr/5.4.0/../../../../avr/lib/avrxmega3/libc.a(print_lz.o)
 .data          0x00000000        0x0 /opt/microchip/xc8/v2.10/avr/bin/../lib/gcc/avr/5.4.0/../../../../avr/lib/avrxmega3/libc.a(isLeap.o)
 .bss           0x00000000        0x0 /opt/microchip/xc8/v2.10/avr/bin/../lib/gcc/avr/5.4.0/../../../../avr/lib/avrxmega3/libc.a(isLeap.o)
 .text          0x00000000        0x0 /opt/microchip/xc8/v2.10/avr/bin/../lib/gcc/avr/5.4.0/avrxmega3/libgcc.a(_mulsi3.o)
 .data          0x00000000        0x0 /opt/microchip/xc8/v2.10/avr/bin/../lib/gcc/avr/5.4.0/avrxmega3/libgcc.a(_mulsi3.o)
 .bss           0x00000000        0x0 /opt/microchip/xc8/v2.10/avr/bin/../lib/gcc/avr/5.4.0/avrxmega3/libgcc.a(_mulsi3.o)
 .text.libgcc.div
                0x00000000        0x0 /opt/microchip/xc8/v2.10/avr/bin/../lib/gcc/avr/5.4.0/avrxmega3/libgcc.a(_mulsi3.o)
 .text.libgcc   0x00000000        0x0 /opt/microchip/xc8/v2.10/avr/bin/../lib/gcc/avr/5.4.0/avrxmega3/libgcc.a(_mulsi3.o)
 .text.libgcc.prologue
                0x00000000        0x0 /opt/microchip/xc8/v2.10/avr/bin/../lib/gcc/avr/5.4.0/avrxmega3/libgcc.a(_mulsi3.o)
 .text.libgcc.builtins
                0x00000000        0x0 /opt/microchip/xc8/v2.10/avr/bin/../lib/gcc/avr/5.4.0/avrxmega3/libgcc.a(_mulsi3.o)
 .text.libgcc.fmul
                0x00000000        0x0 /opt/microchip/xc8/v2.10/avr/bin/../lib/gcc/avr/5.4.0/avrxmega3/libgcc.a(_mulsi3.o)
 .text.libgcc.fixed
                0x00000000        0x0 /opt/microchip/xc8/v2.10/avr/bin/../lib/gcc/avr/5.4.0/avrxmega3/libgcc.a(_mulsi3.o)
 .text          0x00000000        0x0 /opt/microchip/xc8/v2.10/avr/bin/../lib/gcc/avr/5.4.0/avrxmega3/libgcc.a(_prologue.o)
 .data          0x00000000        0x0 /opt/microchip/xc8/v2.10/avr/bin/../lib/gcc/avr/5.4.0/avrxmega3/libgcc.a(_prologue.o)
 .bss           0x00000000        0x0 /opt/microchip/xc8/v2.10/avr/bin/../lib/gcc/avr/5.4.0/avrxmega3/libgcc.a(_prologue.o)
 .text.libgcc.mul
                0x00000000        0x0 /opt/microchip/xc8/v2.10/avr/bin/../lib/gcc/avr/5.4.0/avrxmega3/libgcc.a(_prologue.o)
 .text.libgcc.div
                0x00000000        0x0 /opt/microchip/xc8/v2.10/avr/bin/../lib/gcc/avr/5.4.0/avrxmega3/libgcc.a(_prologue.o)
 .text.libgcc   0x00000000        0x0 /opt/microchip/xc8/v2.10/avr/bin/../lib/gcc/avr/5.4.0/avrxmega3/libgcc.a(_prologue.o)
 .text.libgcc.builtins
                0x00000000        0x0 /opt/microchip/xc8/v2.10/avr/bin/../lib/gcc/avr/5.4.0/avrxmega3/libgcc.a(_prologue.o)
 .text.libgcc.fmul
                0x00000000        0x0 /opt/microchip/xc8/v2.10/avr/bin/../lib/gcc/avr/5.4.0/avrxmega3/libgcc.a(_prologue.o)
 .text.libgcc.fixed
                0x00000000        0x0 /opt/microchip/xc8/v2.10/avr/bin/../lib/gcc/avr/5.4.0/avrxmega3/libgcc.a(_prologue.o)
 .text          0x00000000        0x0 /opt/microchip/xc8/v2.10/avr/bin/../lib/gcc/avr/5.4.0/avrxmega3/libgcc.a(_epilogue.o)
 .data          0x00000000        0x0 /opt/microchip/xc8/v2.10/avr/bin/../lib/gcc/avr/5.4.0/avrxmega3/libgcc.a(_epilogue.o)
 .bss           0x00000000        0x0 /opt/microchip/xc8/v2.10/avr/bin/../lib/gcc/avr/5.4.0/avrxmega3/libgcc.a(_epilogue.o)
 .text.libgcc.mul
                0x00000000        0x0 /opt/microchip/xc8/v2.10/avr/bin/../lib/gcc/avr/5.4.0/avrxmega3/libgcc.a(_epilogue.o)
 .text.libgcc.div
                0x00000000        0x0 /opt/microchip/xc8/v2.10/avr/bin/../lib/gcc/avr/5.4.0/avrxmega3/libgcc.a(_epilogue.o)
 .text.libgcc   0x00000000        0x0 /opt/microchip/xc8/v2.10/avr/bin/../lib/gcc/avr/5.4.0/avrxmega3/libgcc.a(_epilogue.o)
 .text.libgcc.builtins
                0x00000000        0x0 /opt/microchip/xc8/v2.10/avr/bin/../lib/gcc/avr/5.4.0/avrxmega3/libgcc.a(_epilogue.o)
 .text.libgcc.fmul
                0x00000000        0x0 /opt/microchip/xc8/v2.10/avr/bin/../lib/gcc/avr/5.4.0/avrxmega3/libgcc.a(_epilogue.o)
 .text.libgcc.fixed
                0x00000000        0x0 /opt/microchip/xc8/v2.10/avr/bin/../lib/gcc/avr/5.4.0/avrxmega3/libgcc.a(_epilogue.o)

Memory Configuration

Name             Origin             Length             Attributes
text             0x00000000         0x0000c000         xr
data             0x00802800         0x00001800         rw !x
eeprom           0x00810000         0x00000100         rw !x
fuse             0x00820000         0x00000009         rw !x
lock             0x00830000         0x00000400         rw !x
signature        0x00840000         0x00000400         rw !x
user_signatures  0x00850000         0x00000400         rw !x
*default*        0x00000000         0xffffffff

Linker script and memory map

LOAD dist/AWS_IOT/production/__pa_temp_4543/libgcc_a__negsi2.o
LOAD dist/AWS_IOT/production/__pa_temp_4543/libc_a_puts.o
LOAD dist/AWS_IOT/production/__pa_temp_4543/libc_a_fputc.o
LOAD dist/AWS_IOT/production/__pa_temp_4543/libc_a_atol.o
Address of section .data set to 0x802800
                0x00004000                __RODATA_PM_OFFSET__ = 0x4000
LOAD /opt/microchip/mplabx/v5.30/packs/Microchip/ATmega_DFP/2.0.12/gcc/dev/atmega4808/avrxmega3/crtatmega4808.o
                0x00000001                __MPLAB_BUILD = 0x1
LOAD dist/AWS_IOT/production/__pa_temp_4543/cli.o
LOAD dist/AWS_IOT/production/__pa_temp_4543/crypto_client.o
LOAD dist/AWS_IOT/production/__pa_temp_4543/cloud_service.o
LOAD dist/AWS_IOT/production/__pa_temp_4543/wifi_service.o
LOAD dist/AWS_IOT/production/__pa_temp_4543/mqtt_service.o
LOAD dist/AWS_IOT/production/__pa_temp_4543/aws_cloud_service.o
LOAD build/AWS_IOT/production/mcc_generated_files/credentials_storage/credentials_storage.o
LOAD dist/AWS_IOT/production/__pa_temp_4543/atcacert_client.o
LOAD dist/AWS_IOT/production/__pa_temp_4543/atcacert_date.o
LOAD dist/AWS_IOT/production/__pa_temp_4543/atcacert_def.o
LOAD dist/AWS_IOT/production/__pa_temp_4543/atcacert_der.o
LOAD dist/AWS_IOT/production/__pa_temp_4543/atcacert_host_hw.o
LOAD dist/AWS_IOT/production/__pa_temp_4543/atcacert_host_sw.o
LOAD dist/AWS_IOT/production/__pa_temp_4543/atcacert_pem.o
LOAD dist/AWS_IOT/production/__pa_temp_4543/atca_basic.o
LOAD dist/AWS_IOT/production/__pa_temp_4543/atca_basic_checkmac.o
LOAD dist/AWS_IOT/production/__pa_temp_4543/atca_basic_counter.o
LOAD dist/AWS_IOT/production/__pa_temp_4543/atca_basic_derivekey.o
LOAD dist/AWS_IOT/production/__pa_temp_4543/atca_basic_ecdh.o
LOAD dist/AWS_IOT/production/__pa_temp_4543/atca_basic_gendig.o
LOAD dist/AWS_IOT/production/__pa_temp_4543/atca_basic_genkey.o
LOAD dist/AWS_IOT/production/__pa_temp_4543/atca_basic_hmac.o
LOAD dist/AWS_IOT/production/__pa_temp_4543/atca_basic_info.o
LOAD dist/AWS_IOT/production/__pa_temp_4543/atca_basic_kdf.o
LOAD dist/AWS_IOT/production/__pa_temp_4543/atca_basic_lock.o
LOAD dist/AWS_IOT/production/__pa_temp_4543/atca_basic_mac.o
LOAD dist/AWS_IOT/production/__pa_temp_4543/atca_basic_nonce.o
LOAD dist/AWS_IOT/production/__pa_temp_4543/atca_basic_privwrite.o
LOAD dist/AWS_IOT/production/__pa_temp_4543/atca_basic_random.o
LOAD dist/AWS_IOT/production/__pa_temp_4543/atca_basic_read.o
LOAD dist/AWS_IOT/production/__pa_temp_4543/atca_basic_secureboot.o
LOAD dist/AWS_IOT/production/__pa_temp_4543/atca_basic_selftest.o
LOAD dist/AWS_IOT/production/__pa_temp_4543/atca_basic_sha.o
LOAD dist/AWS_IOT/production/__pa_temp_4543/atca_basic_sign.o
LOAD dist/AWS_IOT/production/__pa_temp_4543/atca_basic_updateextra.o
LOAD dist/AWS_IOT/production/__pa_temp_4543/atca_basic_verify.o
LOAD dist/AWS_IOT/production/__pa_temp_4543/atca_basic_write.o
LOAD dist/AWS_IOT/production/__pa_temp_4543/atca_helpers.o
LOAD dist/AWS_IOT/production/__pa_temp_4543/sha1_routines.o
LOAD dist/AWS_IOT/production/__pa_temp_4543/sha2_routines.o
LOAD build/AWS_IOT/production/mcc_generated_files/CryptoAuthenticationLibrary/crypto/atca_crypto_sw_ecdsa.o
LOAD build/AWS_IOT/production/mcc_generated_files/CryptoAuthenticationLibrary/crypto/atca_crypto_sw_rand.o
LOAD dist/AWS_IOT/production/__pa_temp_4543/atca_crypto_sw_sha1.o
LOAD dist/AWS_IOT/production/__pa_temp_4543/atca_crypto_sw_sha2.o
LOAD dist/AWS_IOT/production/__pa_temp_4543/atca_hal.o
LOAD dist/AWS_IOT/production/__pa_temp_4543/atca_i2c_hal.o
LOAD dist/AWS_IOT/production/__pa_temp_4543/hal_i2c_timer.o
LOAD dist/AWS_IOT/production/__pa_temp_4543/atca_host.o
LOAD dist/AWS_IOT/production/__pa_temp_4543/atca_jwt.o
LOAD build/AWS_IOT/production/mcc_generated_files/CryptoAuthenticationLibrary/atca_cfgs.o
LOAD dist/AWS_IOT/production/__pa_temp_4543/atca_command.o
LOAD build/AWS_IOT/production/mcc_generated_files/CryptoAuthenticationLibrary/atca_device.o
LOAD dist/AWS_IOT/production/__pa_temp_4543/atca_execution.o
LOAD dist/AWS_IOT/production/__pa_temp_4543/atca_iface.o
LOAD build/AWS_IOT/production/mcc_generated_files/drivers/spi_master.o
LOAD dist/AWS_IOT/production/__pa_temp_4543/timeout.o
LOAD dist/AWS_IOT/production/__pa_temp_4543/i2c_simple_master.o
LOAD dist/AWS_IOT/production/__pa_temp_4543/mqtt_comm_layer.o
LOAD dist/AWS_IOT/production/__pa_temp_4543/mqtt_core.o
LOAD dist/AWS_IOT/production/__pa_temp_4543/mqtt_exchange_buffer.o
LOAD build/AWS_IOT/production/mcc_generated_files/mqtt/mqtt_packetTransfer_interface.o
LOAD dist/AWS_IOT/production/__pa_temp_4543/mqtt_winc_adapter.o
LOAD dist/AWS_IOT/production/__pa_temp_4543/pin_manager.o
LOAD build/AWS_IOT/production/mcc_generated_files/src/cpuint.o
LOAD build/AWS_IOT/production/mcc_generated_files/src/spi0.o
LOAD build/AWS_IOT/production/mcc_generated_files/src/protected_io.o
LOAD build/AWS_IOT/production/mcc_generated_files/src/rtc.o
LOAD dist/AWS_IOT/production/__pa_temp_4543/twi0_master.o
LOAD build/AWS_IOT/production/mcc_generated_files/src/adc0.o
LOAD build/AWS_IOT/production/mcc_generated_files/src/usart2.o
LOAD dist/AWS_IOT/production/__pa_temp_4543/winc_spi.o
LOAD dist/AWS_IOT/production/__pa_temp_4543/winc_adapter.o
LOAD dist/AWS_IOT/production/__pa_temp_4543/winc_hif.o
LOAD dist/AWS_IOT/production/__pa_temp_4543/winc_asic.o
LOAD dist/AWS_IOT/production/__pa_temp_4543/winc_drv.o
LOAD dist/AWS_IOT/production/__pa_temp_4543/m2m_ssl.o
LOAD dist/AWS_IOT/production/__pa_temp_4543/m2m_wifi.o
LOAD build/AWS_IOT/production/mcc_generated_files/winc/m2m/m2m_periph.o
LOAD dist/AWS_IOT/production/__pa_temp_4543/m2m_ota.o
LOAD dist/AWS_IOT/production/__pa_temp_4543/m2m_fwinfo.o
LOAD build/AWS_IOT/production/mcc_generated_files/winc/m2m/m2m_crypto.o
LOAD dist/AWS_IOT/production/__pa_temp_4543/socket.o
LOAD dist/AWS_IOT/production/__pa_temp_4543/flexible_flash.o
LOAD dist/AWS_IOT/production/__pa_temp_4543/spi_flash.o
LOAD build/AWS_IOT/production/mcc_generated_files/mcc.o
LOAD build/AWS_IOT/production/mcc_generated_files/delay.o
LOAD build/AWS_IOT/production/mcc_generated_files/device_config.o
LOAD dist/AWS_IOT/production/__pa_temp_4543/application_manager.o
LOAD dist/AWS_IOT/production/__pa_temp_4543/debug_print.o
LOAD build/AWS_IOT/production/mcc_generated_files/led.o
LOAD dist/AWS_IOT/production/__pa_temp_4543/sensors_handling.o
LOAD dist/AWS_IOT/production/__pa_temp_4543/time_service.o
LOAD build/AWS_IOT/production/mcc_generated_files/CryptoAuthenticationLibrary/CryptoAuth_init.o
LOAD build/AWS_IOT/production/main.o
START GROUP
LOAD /opt/microchip/xc8/v2.10/avr/bin/../lib/gcc/avr/5.4.0/../../../../avr/lib/avrxmega3/libm.a
END GROUP
START GROUP
LOAD /opt/microchip/xc8/v2.10/avr/bin/../lib/gcc/avr/5.4.0/avrxmega3/libgcc.a
LOAD /opt/microchip/xc8/v2.10/avr/bin/../lib/gcc/avr/5.4.0/../../../../avr/lib/avrxmega3/libm.a
LOAD /opt/microchip/xc8/v2.10/avr/bin/../lib/gcc/avr/5.4.0/../../../../avr/lib/avrxmega3/libc.a
LOAD /opt/microchip/mplabx/v5.30/packs/Microchip/ATmega_DFP/2.0.12/gcc/dev/atmega4808/avrxmega3/libatmega4808.a
END GROUP
                [0x00000000]                __TEXT_REGION_ORIGIN__ = DEFINED (__TEXT_REGION_ORIGIN__)?__TEXT_REGION_ORIGIN__:0x0
                [0x00802800]                __DATA_REGION_ORIGIN__ = DEFINED (__DATA_REGION_ORIGIN__)?__DATA_REGION_ORIGIN__:0x802000
                [0x0000c000]                __TEXT_REGION_LENGTH__ = DEFINED (__TEXT_REGION_LENGTH__)?__TEXT_REGION_LENGTH__:0x100000
                [0x00001800]                __DATA_REGION_LENGTH__ = DEFINED (__DATA_REGION_LENGTH__)?__DATA_REGION_LENGTH__:0xffa0
                [0x00000100]                __EEPROM_REGION_LENGTH__ = DEFINED (__EEPROM_REGION_LENGTH__)?__EEPROM_REGION_LENGTH__:0x10000
                [0x00000009]                __FUSE_REGION_LENGTH__ = DEFINED (__FUSE_REGION_LENGTH__)?__FUSE_REGION_LENGTH__:0x400
                0x00000400                __LOCK_REGION_LENGTH__ = DEFINED (__LOCK_REGION_LENGTH__)?__LOCK_REGION_LENGTH__:0x400
                0x00000400                __SIGNATURE_REGION_LENGTH__ = DEFINED (__SIGNATURE_REGION_LENGTH__)?__SIGNATURE_REGION_LENGTH__:0x400
                0x00000400                __USER_SIGNATURE_REGION_LENGTH__ = DEFINED (__USER_SIGNATURE_REGION_LENGTH__)?__USER_SIGNATURE_REGION_LENGTH__:0x400
                0x00008000                __RODATA_PM_OFFSET__ = DEFINED (__RODATA_PM_OFFSET__)?__RODATA_PM_OFFSET__:0x8000

.hash
 *(.hash)

.dynsym
 *(.dynsym)

.dynstr
 *(.dynstr)

.gnu.version
 *(.gnu.version)

.gnu.version_d
 *(.gnu.version_d)

.gnu.version_r
 *(.gnu.version_r)

.rel.init
 *(.rel.init)

.rela.init
 *(.rela.init)

.rel.text
 *(.rel.text)
 *(.rel.text.*)
 *(.rel.gnu.linkonce.t*)

.rela.text
 *(.rela.text)
 *(.rela.text.*)
 *(.rela.gnu.linkonce.t*)

.rel.fini
 *(.rel.fini)

.rela.fini
 *(.rela.fini)

.rel.rodata
 *(.rel.rodata)
 *(.rel.rodata.*)
 *(.rel.gnu.linkonce.r*)

.rela.rodata
 *(.rela.rodata)
 *(.rela.rodata.*)
 *(.rela.gnu.linkonce.r*)

.rel.data
 *(.rel.data)
 *(.rel.data.*)
 *(.rel.gnu.linkonce.d*)

.rela.data
 *(.rela.data)
 *(.rela.data.*)
 *(.rela.gnu.linkonce.d*)

.rel.ctors
 *(.rel.ctors)

.rela.ctors
 *(.rela.ctors)

.rel.dtors
 *(.rel.dtors)

.rela.dtors
 *(.rela.dtors)

.rel.got
 *(.rel.got)

.rela.got
 *(.rela.got)

.rel.bss
 *(.rel.bss)

.rela.bss
 *(.rela.bss)

.rel.plt
 *(.rel.plt)

.rela.plt
 *(.rela.plt)

.text           0x00000000      0x448
 *(.vectors)
 .vectors       0x00000000       0x90 /opt/microchip/mplabx/v5.30/packs/Microchip/ATmega_DFP/2.0.12/gcc/dev/atmega4808/avrxmega3/crtatmega4808.o
                0x00000000                __vectors
                0x00000000                __vector_default
 *(.vectors)
 *(.progmem.gcc*)
 .progmem.gcc_sw_table.LED_service
                0x00000090       0x40 build/AWS_IOT/production/mcc_generated_files/led.o
 *(.dinit)
 .dinit         0x000000d0      0x324 data_init
                0x000003f4                . = ALIGN (0x2)
                0x000003f4                __trampolines_start = .
 *(.trampolines)
 .trampolines   0x000003f4        0x0 linker stubs
 *(.trampolines*)
                0x000003f4                __trampolines_end = .
 *libprintf_flt.a:*(.progmem.data)
 *libc.a:*(.progmem.data)
                0x000003f4                . = ALIGN (0x2)
 *(.jumptables)
 *(.jumptables*)
 *(.lowtext)
 *(.lowtext*)
                0x000003f4                __ctors_start = .
 *(.ctors)
                0x000003f4                __ctors_end = .
                0x000003f4                __dtors_start = .
 *(.dtors)
                0x000003f4                __dtors_end = .
 SORT(*)(.ctors)
 SORT(*)(.dtors)
 *(.init0)
 .init0         0x000003f4        0x0 /opt/microchip/mplabx/v5.30/packs/Microchip/ATmega_DFP/2.0.12/gcc/dev/atmega4808/avrxmega3/crtatmega4808.o
                0x000003f4                __init
 *(.init0)
 *(.init1)
 *(.init1)
 *(.init2)
 .init2         0x000003f4        0xc /opt/microchip/mplabx/v5.30/packs/Microchip/ATmega_DFP/2.0.12/gcc/dev/atmega4808/avrxmega3/crtatmega4808.o
 *(.init2)
 *(.init3)
 *(.init3)
 *(.init4)
 .init4         0x00000400       0x3c /opt/microchip/xc8/v2.10/avr/bin/../lib/gcc/avr/5.4.0/avrxmega3/libgcc.a(_copy_data.o)
                0x00000400                __do_copy_data
                0x0000042e                __do_clear_bss
 *(.init4)
 *(.init5)
 *(.init5)
 *(.init6)
 *(.init6)
 *(.init7)
 *(.init7)
 *(.init8)
 *(.init8)
 *(.init9)
 .init9         0x0000043c        0x8 /opt/microchip/mplabx/v5.30/packs/Microchip/ATmega_DFP/2.0.12/gcc/dev/atmega4808/avrxmega3/crtatmega4808.o
 *(.init9)
                0x00000444                . = ALIGN (0x2)
 *(.fini9)
 .fini9         0x00000444        0x0 /opt/microchip/xc8/v2.10/avr/bin/../lib/gcc/avr/5.4.0/avrxmega3/libgcc.a(_exit.o)
                0x00000444                exit
                0x00000444                _exit
 *(.fini9)
 *(.fini8)
 *(.fini8)
 *(.fini7)
 *(.fini7)
 *(.fini6)
 *(.fini6)
 *(.fini5)
 *(.fini5)
 *(.fini4)
 *(.fini4)
 *(.fini3)
 *(.fini3)
 *(.fini2)
 *(.fini2)
 *(.fini1)
 *(.fini1)
 *(.fini0)
 .fini0         0x00000444        0x4 /opt/microchip/xc8/v2.10/avr/bin/../lib/gcc/avr/5.4.0/avrxmega3/libgcc.a(_exit.o)
 *(.fini0)
                0x00000448                _etext = .

.rodata         0x00804448      0x695 load address 0x00000448
 *(.rodata)
 .rodata        0x00804448      0x207 dist/AWS_IOT/production/__pa_temp_4543/cli.o
 .rodata        0x0080464f       0x41 dist/AWS_IOT/production/__pa_temp_4543/crypto_client.o
 .rodata        0x00804690       0xe4 dist/AWS_IOT/production/__pa_temp_4543/wifi_service.o
 .rodata        0x00804774        0x8 dist/AWS_IOT/production/__pa_temp_4543/atca_hal.o
 .rodata        0x0080477c       0xe2 dist/AWS_IOT/production/__pa_temp_4543/application_manager.o
 .rodata        0x0080485e       0xbd dist/AWS_IOT/production/__pa_temp_4543/debug_print.o
 *(.rodata*)
 .rodata.commands
                0x0080491b       0x20 dist/AWS_IOT/production/__pa_temp_4543/cli.o
                0x0080491b                commands
 .rodata.device_execution_time_608_m2
                0x0080493b       0x42 dist/AWS_IOT/production/__pa_temp_4543/atca_execution.o
 .rodata.device_execution_time_608_m1
                0x0080497d       0x42 dist/AWS_IOT/production/__pa_temp_4543/atca_execution.o
 .rodata.device_execution_time_608_m0
                0x008049bf       0x42 dist/AWS_IOT/production/__pa_temp_4543/atca_execution.o
 .rodata.device_execution_time_508
                0x00804a01       0x3c dist/AWS_IOT/production/__pa_temp_4543/atca_execution.o
 .rodata.device_execution_time_108
                0x00804a3d       0x39 dist/AWS_IOT/production/__pa_temp_4543/atca_execution.o
 .rodata.device_execution_time_204
                0x00804a76       0x2a dist/AWS_IOT/production/__pa_temp_4543/atca_execution.o
 .rodata.spiMaster
                0x00804aa0       0x14 build/AWS_IOT/production/mcc_generated_files/drivers/spi_master.o
                0x00804aa0                spiMaster
 .rodata.u8CmdBuf.3402
                0x00804ab4        0x9 dist/AWS_IOT/production/__pa_temp_4543/winc_spi.o
 .rodata.gHifCallbacks
                0x00804abd        0xe dist/AWS_IOT/production/__pa_temp_4543/winc_hif.o
 .rodata.level_strings
                0x00804acb        0x8 dist/AWS_IOT/production/__pa_temp_4543/debug_print.o
 .rodata.severity_strings
                0x00804ad3        0xa dist/AWS_IOT/production/__pa_temp_4543/debug_print.o
 *(.gnu.linkonce.r*)

.data           0x00802800        0x0 load address 0x00000add
                [!provide]                PROVIDE (__data_start, .)
 *(.gnu.linkonce.d*)
                0x00802800                . = ALIGN (0x2)
                0x00802800                _edata = .
                [!provide]                PROVIDE (__data_end, .)

.bss            0x00802800      0x142
                [!provide]                PROVIDE (__bss_start, .)
 *(COMMON)
 COMMON         0x00802800        0x9 dist/AWS_IOT/production/__pa_temp_4543/crypto_client.o
                0x00802800                g_serial_number
 COMMON         0x00802809       0x10 dist/AWS_IOT/production/__pa_temp_4543/cloud_service.o
                0x00802809                cloudStatus
                0x0080280a                mqttBrokerIP
                0x0080280e                shared_networking_params
                0x0080280f                cloud_packetReceiveCallBackTable
 COMMON         0x00802819       0x16 dist/AWS_IOT/production/__pa_temp_4543/wifi_service.o
                0x00802819                prevNTPServerName
                0x0080282d                callback_funcPtr
 COMMON         0x0080282f       0x29 dist/AWS_IOT/production/__pa_temp_4543/mqtt_service.o
                0x0080282f                cid
 COMMON         0x00802858        0x4 dist/AWS_IOT/production/__pa_temp_4543/aws_cloud_service.o
                0x00802858                imqtt_publishReceiveCallBackTable
 COMMON         0x0080285c       0x54 build/AWS_IOT/production/mcc_generated_files/credentials_storage/credentials_storage.o
                0x0080285c                ssid
                0x0080287b                pass
                0x0080289a                ntpServerName
                0x008028ae                authType
 COMMON         0x008028b0       0x1b dist/AWS_IOT/production/__pa_temp_4543/atca_basic.o
                0x008028b0                g_atcab_device
                0x008028b4                g_atcab_iface
                0x008028c7                g_atcab_command
 COMMON         0x008028cb        0x2 build/AWS_IOT/production/mcc_generated_files/mqtt/mqtt_packetTransfer_interface.o
                0x008028cb                publishRecvCallback
 COMMON         0x008028cd       0x65 dist/AWS_IOT/production/__pa_temp_4543/application_manager.o
                0x008028cd                mqttSubscribeTopic
                0x00802931                retValCryptoClientSerialNumber
 COMMON         0x00802932        0x6 /opt/microchip/xc8/v2.10/avr/bin/../lib/gcc/avr/5.4.0/../../../../avr/lib/avrxmega3/libc.a(iob.o)
                0x00802932                __iob
 COMMON         0x00802938        0x4 /opt/microchip/xc8/v2.10/avr/bin/../lib/gcc/avr/5.4.0/../../../../avr/lib/avrxmega3/libc.a(system_time.o)
                0x00802938                __system_time
 COMMON         0x0080293c        0x4 /opt/microchip/xc8/v2.10/avr/bin/../lib/gcc/avr/5.4.0/../../../../avr/lib/avrxmega3/libc.a(utc_offset.o)
                0x0080293c                __utc_offset
 COMMON         0x00802940        0x2 /opt/microchip/xc8/v2.10/avr/bin/../lib/gcc/avr/5.4.0/../../../../avr/lib/avrxmega3/libc.a(dst_pointer.o)
                0x00802940                __dst_ptr
                [!provide]                PROVIDE (__bss_end, .)
                0x00000add                __data_load_start = LOADADDR (.data)
                0x00000add                __data_load_end = (__data_load_start + SIZEOF (.data))

.noinit         0x00802942        0x0
                [!provide]                PROVIDE (__noinit_start, .)
 *(.noinit*)
                [!provide]                PROVIDE (__noinit_end, .)
                0x00802942                _end = .

.eeprom         0x00810000        0x0
 *(.eeprom*)
                0x00810000                __eeprom_end = .

.fuse           0x00820000        0x9
 *(.fuse)
 .fuse          0x00820000        0x9 build/AWS_IOT/production/mcc_generated_files/device_config.o
                0x00820000                __fuse
 *(.lfuse)
 *(.hfuse)
 *(.efuse)

.lock
 *(.lock*)

.signature
 *(.signature*)

.user_signatures
 *(.user_signatures*)

.stab
 *(.stab)

.stabstr
 *(.stabstr)

.stab.excl
 *(.stab.excl)

.stab.exclstr
 *(.stab.exclstr)

.stab.index
 *(.stab.index)

.stab.indexstr
 *(.stab.indexstr)

.comment        0x00000000       0x5b
 *(.comment)
 .comment       0x00000000       0x2c dist/AWS_IOT/production/__pa_temp_4543/libc_a_puts.o
                                 0x2d (size before relaxing)
 .comment       0x0000002c       0x2d dist/AWS_IOT/production/__pa_temp_4543/libc_a_fputc.o
 .comment       0x0000002c       0x2f dist/AWS_IOT/production/__pa_temp_4543/cli.o
                                 0x30 (size before relaxing)
 .comment       0x0000005b       0x30 dist/AWS_IOT/production/__pa_temp_4543/crypto_client.o
 .comment       0x0000005b       0x30 dist/AWS_IOT/production/__pa_temp_4543/cloud_service.o
 .comment       0x0000005b       0x30 dist/AWS_IOT/production/__pa_temp_4543/wifi_service.o
 .comment       0x0000005b       0x30 dist/AWS_IOT/production/__pa_temp_4543/mqtt_service.o
 .comment       0x0000005b       0x30 dist/AWS_IOT/production/__pa_temp_4543/aws_cloud_service.o
 .comment       0x0000005b       0x30 build/AWS_IOT/production/mcc_generated_files/credentials_storage/credentials_storage.o
 .comment       0x0000005b       0x30 dist/AWS_IOT/production/__pa_temp_4543/atcacert_client.o
 .comment       0x0000005b       0x30 dist/AWS_IOT/production/__pa_temp_4543/atcacert_date.o
 .comment       0x0000005b       0x30 dist/AWS_IOT/production/__pa_temp_4543/atcacert_def.o
 .comment       0x0000005b       0x30 dist/AWS_IOT/production/__pa_temp_4543/atca_basic.o
 .comment       0x0000005b       0x30 dist/AWS_IOT/production/__pa_temp_4543/atca_basic_ecdh.o
 .comment       0x0000005b       0x30 dist/AWS_IOT/production/__pa_temp_4543/atca_basic_genkey.o
 .comment       0x0000005b       0x30 dist/AWS_IOT/production/__pa_temp_4543/atca_basic_lock.o
 .comment       0x0000005b       0x30 dist/AWS_IOT/production/__pa_temp_4543/atca_basic_nonce.o
 .comment       0x0000005b       0x30 dist/AWS_IOT/production/__pa_temp_4543/atca_basic_random.o
 .comment       0x0000005b       0x30 dist/AWS_IOT/production/__pa_temp_4543/atca_basic_read.o
 .comment       0x0000005b       0x30 dist/AWS_IOT/production/__pa_temp_4543/atca_basic_secureboot.o
 .comment       0x0000005b       0x30 dist/AWS_IOT/production/__pa_temp_4543/atca_basic_sha.o
 .comment       0x0000005b       0x30 dist/AWS_IOT/production/__pa_temp_4543/atca_basic_sign.o
 .comment       0x0000005b       0x30 dist/AWS_IOT/production/__pa_temp_4543/atca_basic_updateextra.o
 .comment       0x0000005b       0x30 dist/AWS_IOT/production/__pa_temp_4543/atca_basic_verify.o
 .comment       0x0000005b       0x30 dist/AWS_IOT/production/__pa_temp_4543/atca_basic_write.o
 .comment       0x0000005b       0x30 dist/AWS_IOT/production/__pa_temp_4543/sha1_routines.o
 .comment       0x0000005b       0x30 dist/AWS_IOT/production/__pa_temp_4543/atca_hal.o
 .comment       0x0000005b       0x30 dist/AWS_IOT/production/__pa_temp_4543/atca_i2c_hal.o
 .comment       0x0000005b       0x30 dist/AWS_IOT/production/__pa_temp_4543/hal_i2c_timer.o
 .comment       0x0000005b       0x30 dist/AWS_IOT/production/__pa_temp_4543/atca_command.o
 .comment       0x0000005b       0x30 build/AWS_IOT/production/mcc_generated_files/CryptoAuthenticationLibrary/atca_device.o
 .comment       0x0000005b       0x30 dist/AWS_IOT/production/__pa_temp_4543/atca_execution.o
 .comment       0x0000005b       0x30 dist/AWS_IOT/production/__pa_temp_4543/atca_iface.o
 .comment       0x0000005b       0x30 build/AWS_IOT/production/mcc_generated_files/drivers/spi_master.o
 .comment       0x0000005b       0x30 dist/AWS_IOT/production/__pa_temp_4543/timeout.o
 .comment       0x0000005b       0x30 dist/AWS_IOT/production/__pa_temp_4543/i2c_simple_master.o
 .comment       0x0000005b       0x30 dist/AWS_IOT/production/__pa_temp_4543/mqtt_comm_layer.o
 .comment       0x0000005b       0x30 dist/AWS_IOT/production/__pa_temp_4543/mqtt_core.o
 .comment       0x0000005b       0x30 dist/AWS_IOT/production/__pa_temp_4543/mqtt_exchange_buffer.o
 .comment       0x0000005b       0x30 build/AWS_IOT/production/mcc_generated_files/mqtt/mqtt_packetTransfer_interface.o
 .comment       0x0000005b       0x30 dist/AWS_IOT/production/__pa_temp_4543/mqtt_winc_adapter.o
 .comment       0x0000005b       0x30 dist/AWS_IOT/production/__pa_temp_4543/pin_manager.o
 .comment       0x0000005b       0x30 build/AWS_IOT/production/mcc_generated_files/src/cpuint.o
 .comment       0x0000005b       0x30 build/AWS_IOT/production/mcc_generated_files/src/spi0.o
 .comment       0x0000005b       0x30 build/AWS_IOT/production/mcc_generated_files/src/rtc.o
 .comment       0x0000005b       0x30 dist/AWS_IOT/production/__pa_temp_4543/twi0_master.o
 .comment       0x0000005b       0x30 build/AWS_IOT/production/mcc_generated_files/src/adc0.o
 .comment       0x0000005b       0x30 build/AWS_IOT/production/mcc_generated_files/src/usart2.o
 .comment       0x0000005b       0x30 dist/AWS_IOT/production/__pa_temp_4543/winc_spi.o
 .comment       0x0000005b       0x30 dist/AWS_IOT/production/__pa_temp_4543/winc_adapter.o
 .comment       0x0000005b       0x30 dist/AWS_IOT/production/__pa_temp_4543/winc_hif.o
 .comment       0x0000005b       0x30 dist/AWS_IOT/production/__pa_temp_4543/winc_asic.o
 .comment       0x0000005b       0x30 dist/AWS_IOT/production/__pa_temp_4543/winc_drv.o
 .comment       0x0000005b       0x30 dist/AWS_IOT/production/__pa_temp_4543/m2m_ssl.o
 .comment       0x0000005b       0x30 dist/AWS_IOT/production/__pa_temp_4543/m2m_wifi.o
 .comment       0x0000005b       0x30 dist/AWS_IOT/production/__pa_temp_4543/m2m_ota.o
 .comment       0x0000005b       0x30 dist/AWS_IOT/production/__pa_temp_4543/m2m_fwinfo.o
 .comment       0x0000005b       0x30 dist/AWS_IOT/production/__pa_temp_4543/socket.o
 .comment       0x0000005b       0x30 dist/AWS_IOT/production/__pa_temp_4543/spi_flash.o
 .comment       0x0000005b       0x30 build/AWS_IOT/production/mcc_generated_files/mcc.o
 .comment       0x0000005b       0x30 build/AWS_IOT/production/mcc_generated_files/delay.o
 .comment       0x0000005b       0x30 build/AWS_IOT/production/mcc_generated_files/device_config.o
 .comment       0x0000005b       0x30 dist/AWS_IOT/production/__pa_temp_4543/application_manager.o
 .comment       0x0000005b       0x30 dist/AWS_IOT/production/__pa_temp_4543/debug_print.o
 .comment       0x0000005b       0x30 build/AWS_IOT/production/mcc_generated_files/led.o
 .comment       0x0000005b       0x30 dist/AWS_IOT/production/__pa_temp_4543/sensors_handling.o
 .comment       0x0000005b       0x30 dist/AWS_IOT/production/__pa_temp_4543/time_service.o
 .comment       0x0000005b       0x30 build/AWS_IOT/production/mcc_generated_files/CryptoAuthenticationLibrary/CryptoAuth_init.o
 .comment       0x0000005b       0x30 build/AWS_IOT/production/main.o
 .comment       0x0000005b       0x2d /opt/microchip/xc8/v2.10/avr/bin/../lib/gcc/avr/5.4.0/../../../../avr/lib/avrxmega3/libc.a(atoi_M.o)
 .comment       0x0000005b       0x2d /opt/microchip/xc8/v2.10/avr/bin/../lib/gcc/avr/5.4.0/../../../../avr/lib/avrxmega3/libc.a(strtok.o)
 .comment       0x0000005b       0x2d /opt/microchip/xc8/v2.10/avr/bin/../lib/gcc/avr/5.4.0/../../../../avr/lib/avrxmega3/libc.a(iob.o)
 .comment       0x0000005b       0x2d /opt/microchip/xc8/v2.10/avr/bin/../lib/gcc/avr/5.4.0/../../../../avr/lib/avrxmega3/libc.a(printf.o)
 .comment       0x0000005b       0x2d /opt/microchip/xc8/v2.10/avr/bin/../lib/gcc/avr/5.4.0/../../../../avr/lib/avrxmega3/libc.a(sprintf.o)
 .comment       0x0000005b       0x2d /opt/microchip/xc8/v2.10/avr/bin/../lib/gcc/avr/5.4.0/../../../../avr/lib/avrxmega3/libc.a(vprintf.o)
 .comment       0x0000005b       0x2d /opt/microchip/xc8/v2.10/avr/bin/../lib/gcc/avr/5.4.0/../../../../avr/lib/avrxmega3/libc.a(difftime.o)
 .comment       0x0000005b       0x2d /opt/microchip/xc8/v2.10/avr/bin/../lib/gcc/avr/5.4.0/../../../../avr/lib/avrxmega3/libc.a(localtime_r.o)
 .comment       0x0000005b       0x2d /opt/microchip/xc8/v2.10/avr/bin/../lib/gcc/avr/5.4.0/../../../../avr/lib/avrxmega3/libc.a(mktime.o)
 .comment       0x0000005b       0x2d /opt/microchip/xc8/v2.10/avr/bin/../lib/gcc/avr/5.4.0/../../../../avr/lib/avrxmega3/libc.a(set_system_time.o)
 .comment       0x0000005b       0x2d /opt/microchip/xc8/v2.10/avr/bin/../lib/gcc/avr/5.4.0/../../../../avr/lib/avrxmega3/libc.a(system_time.o)
 .comment       0x0000005b       0x2d /opt/microchip/xc8/v2.10/avr/bin/../lib/gcc/avr/5.4.0/../../../../avr/lib/avrxmega3/libc.a(utc_offset.o)
 .comment       0x0000005b       0x2d /opt/microchip/xc8/v2.10/avr/bin/../lib/gcc/avr/5.4.0/../../../../avr/lib/avrxmega3/libc.a(vfprintf_std.o)
 .comment       0x0000005b       0x2d /opt/microchip/xc8/v2.10/avr/bin/../lib/gcc/avr/5.4.0/../../../../avr/lib/avrxmega3/libc.a(dst_pointer.o)
 .comment       0x0000005b       0x2d /opt/microchip/xc8/v2.10/avr/bin/../lib/gcc/avr/5.4.0/../../../../avr/lib/avrxmega3/libc.a(gmtime_r.o)
 .comment       0x0000005b       0x2d /opt/microchip/xc8/v2.10/avr/bin/../lib/gcc/avr/5.4.0/../../../../avr/lib/avrxmega3/libc.a(mk_gmtime.o)
 .comment       0x0000005b       0x2d /opt/microchip/xc8/v2.10/avr/bin/../lib/gcc/avr/5.4.0/../../../../avr/lib/avrxmega3/libc.a(isLeap.o)

.note.gnu.build-id
 *(.note.gnu.build-id)

.debug
 *(.debug)

.line
 *(.line)

.debug_srcinfo
 *(.debug_srcinfo)

.debug_sfnames
 *(.debug_sfnames)

.debug_aranges  0x00000000     0x1d18
 *(.debug_aranges)
 .debug_aranges
                0x00000000       0x70 dist/AWS_IOT/production/__pa_temp_4543/cli.o
 .debug_aranges
                0x00000070       0x58 dist/AWS_IOT/production/__pa_temp_4543/crypto_client.o
 .debug_aranges
                0x000000c8       0x70 dist/AWS_IOT/production/__pa_temp_4543/cloud_service.o
 .debug_aranges
                0x00000138       0x70 dist/AWS_IOT/production/__pa_temp_4543/wifi_service.o
 .debug_aranges
                0x000001a8       0x50 dist/AWS_IOT/production/__pa_temp_4543/mqtt_service.o
 .debug_aranges
                0x000001f8       0x60 dist/AWS_IOT/production/__pa_temp_4543/aws_cloud_service.o
 .debug_aranges
                0x00000258       0x20 build/AWS_IOT/production/mcc_generated_files/credentials_storage/credentials_storage.o
 .debug_aranges
                0x00000278       0x48 dist/AWS_IOT/production/__pa_temp_4543/atcacert_client.o
 .debug_aranges
                0x000002c0       0xb0 dist/AWS_IOT/production/__pa_temp_4543/atcacert_date.o
 .debug_aranges
                0x00000370      0x158 dist/AWS_IOT/production/__pa_temp_4543/atcacert_def.o
 .debug_aranges
                0x000004c8       0x80 dist/AWS_IOT/production/__pa_temp_4543/atca_basic.o
 .debug_aranges
                0x00000548       0x48 dist/AWS_IOT/production/__pa_temp_4543/atca_basic_ecdh.o
 .debug_aranges
                0x00000590       0x30 dist/AWS_IOT/production/__pa_temp_4543/atca_basic_genkey.o
 .debug_aranges
                0x000005c0       0x48 dist/AWS_IOT/production/__pa_temp_4543/atca_basic_lock.o
 .debug_aranges
                0x00000608       0x38 dist/AWS_IOT/production/__pa_temp_4543/atca_basic_nonce.o
 .debug_aranges
                0x00000640       0x20 dist/AWS_IOT/production/__pa_temp_4543/atca_basic_random.o
 .debug_aranges
                0x00000660       0x68 dist/AWS_IOT/production/__pa_temp_4543/atca_basic_read.o
 .debug_aranges
                0x000006c8       0x28 dist/AWS_IOT/production/__pa_temp_4543/atca_basic_secureboot.o
 .debug_aranges
                0x000006f0       0x90 dist/AWS_IOT/production/__pa_temp_4543/atca_basic_sha.o
 .debug_aranges
                0x00000780       0x30 dist/AWS_IOT/production/__pa_temp_4543/atca_basic_sign.o
 .debug_aranges
                0x000007b0       0x20 dist/AWS_IOT/production/__pa_temp_4543/atca_basic_updateextra.o
 .debug_aranges
                0x000007d0       0x58 dist/AWS_IOT/production/__pa_temp_4543/atca_basic_verify.o
 .debug_aranges
                0x00000828       0x50 dist/AWS_IOT/production/__pa_temp_4543/atca_basic_write.o
 .debug_aranges
                0x00000878       0x40 dist/AWS_IOT/production/__pa_temp_4543/sha1_routines.o
 .debug_aranges
                0x000008b8       0x30 dist/AWS_IOT/production/__pa_temp_4543/atca_hal.o
 .debug_aranges
                0x000008e8       0x60 dist/AWS_IOT/production/__pa_temp_4543/atca_i2c_hal.o
 .debug_aranges
                0x00000948       0x28 dist/AWS_IOT/production/__pa_temp_4543/hal_i2c_timer.o
 .debug_aranges
                0x00000970      0x110 dist/AWS_IOT/production/__pa_temp_4543/atca_command.o
 .debug_aranges
                0x00000a80       0x38 build/AWS_IOT/production/mcc_generated_files/CryptoAuthenticationLibrary/atca_device.o
 .debug_aranges
                0x00000ab8       0x28 dist/AWS_IOT/production/__pa_temp_4543/atca_execution.o
 .debug_aranges
                0x00000ae0       0x70 dist/AWS_IOT/production/__pa_temp_4543/atca_iface.o
 .debug_aranges
                0x00000b50       0x28 build/AWS_IOT/production/mcc_generated_files/drivers/spi_master.o
 .debug_aranges
                0x00000b78       0xc0 dist/AWS_IOT/production/__pa_temp_4543/timeout.o
 .debug_aranges
                0x00000c38       0x78 dist/AWS_IOT/production/__pa_temp_4543/i2c_simple_master.o
 .debug_aranges
                0x00000cb0       0x48 dist/AWS_IOT/production/__pa_temp_4543/mqtt_comm_layer.o
 .debug_aranges
                0x00000cf8       0xb0 dist/AWS_IOT/production/__pa_temp_4543/mqtt_core.o
 .debug_aranges
                0x00000da8       0x38 dist/AWS_IOT/production/__pa_temp_4543/mqtt_exchange_buffer.o
 .debug_aranges
                0x00000de0       0x28 build/AWS_IOT/production/mcc_generated_files/mqtt/mqtt_packetTransfer_interface.o
 .debug_aranges
                0x00000e08       0xc8 dist/AWS_IOT/production/__pa_temp_4543/mqtt_winc_adapter.o
 .debug_aranges
                0x00000ed0       0xd0 dist/AWS_IOT/production/__pa_temp_4543/pin_manager.o
 .debug_aranges
                0x00000fa0       0x20 build/AWS_IOT/production/mcc_generated_files/src/cpuint.o
 .debug_aranges
                0x00000fc0       0x90 build/AWS_IOT/production/mcc_generated_files/src/spi0.o
 .debug_aranges
                0x00001050       0x20 build/AWS_IOT/production/mcc_generated_files/src/protected_io.o
 .debug_aranges
                0x00001070       0x90 build/AWS_IOT/production/mcc_generated_files/src/rtc.o
 .debug_aranges
                0x00001100      0x1e0 dist/AWS_IOT/production/__pa_temp_4543/twi0_master.o
 .debug_aranges
                0x000012e0       0xa8 build/AWS_IOT/production/mcc_generated_files/src/adc0.o
 .debug_aranges
                0x00001388       0xc0 build/AWS_IOT/production/mcc_generated_files/src/usart2.o
 .debug_aranges
                0x00001448       0x98 dist/AWS_IOT/production/__pa_temp_4543/winc_spi.o
 .debug_aranges
                0x000014e0       0x78 dist/AWS_IOT/production/__pa_temp_4543/winc_adapter.o
 .debug_aranges
                0x00001558       0x68 dist/AWS_IOT/production/__pa_temp_4543/winc_hif.o
 .debug_aranges
                0x000015c0       0x68 dist/AWS_IOT/production/__pa_temp_4543/winc_asic.o
 .debug_aranges
                0x00001628       0x30 dist/AWS_IOT/production/__pa_temp_4543/winc_drv.o
 .debug_aranges
                0x00001658       0x60 dist/AWS_IOT/production/__pa_temp_4543/m2m_ssl.o
 .debug_aranges
                0x000016b8      0x240 dist/AWS_IOT/production/__pa_temp_4543/m2m_wifi.o
 .debug_aranges
                0x000018f8       0x88 dist/AWS_IOT/production/__pa_temp_4543/m2m_ota.o
 .debug_aranges
                0x00001980       0x28 dist/AWS_IOT/production/__pa_temp_4543/m2m_fwinfo.o
 .debug_aranges
                0x000019a8       0xc8 dist/AWS_IOT/production/__pa_temp_4543/socket.o
 .debug_aranges
                0x00001a70       0x60 dist/AWS_IOT/production/__pa_temp_4543/spi_flash.o
 .debug_aranges
                0x00001ad0       0x50 build/AWS_IOT/production/mcc_generated_files/mcc.o
 .debug_aranges
                0x00001b20       0x28 build/AWS_IOT/production/mcc_generated_files/delay.o
 .debug_aranges
                0x00001b48       0x18 build/AWS_IOT/production/mcc_generated_files/device_config.o
 .debug_aranges
                0x00001b60       0x58 dist/AWS_IOT/production/__pa_temp_4543/application_manager.o
 .debug_aranges
                0x00001bb8       0x38 dist/AWS_IOT/production/__pa_temp_4543/debug_print.o
 .debug_aranges
                0x00001bf0       0x50 build/AWS_IOT/production/mcc_generated_files/led.o
 .debug_aranges
                0x00001c40       0x28 dist/AWS_IOT/production/__pa_temp_4543/sensors_handling.o
 .debug_aranges
                0x00001c68       0x70 dist/AWS_IOT/production/__pa_temp_4543/time_service.o
 .debug_aranges
                0x00001cd8       0x20 build/AWS_IOT/production/mcc_generated_files/CryptoAuthenticationLibrary/CryptoAuth_init.o
 .debug_aranges
                0x00001cf8       0x20 build/AWS_IOT/production/main.o

.debug_pubnames
 *(.debug_pubnames)

.debug_info     0x00000000    0x4a7e5
 *(.debug_info .gnu.linkonce.wi.*)
 .debug_info    0x00000000     0x229c /opt/microchip/mplabx/v5.30/packs/Microchip/ATmega_DFP/2.0.12/gcc/dev/atmega4808/avrxmega3/crtatmega4808.o
 .debug_info    0x0000229c     0x11fe dist/AWS_IOT/production/__pa_temp_4543/cli.o
 .debug_info    0x0000349a     0x1955 dist/AWS_IOT/production/__pa_temp_4543/crypto_client.o
 .debug_info    0x00004def     0x1897 dist/AWS_IOT/production/__pa_temp_4543/cloud_service.o
 .debug_info    0x00006686     0x1e6d dist/AWS_IOT/production/__pa_temp_4543/wifi_service.o
 .debug_info    0x000084f3      0xced dist/AWS_IOT/production/__pa_temp_4543/mqtt_service.o
 .debug_info    0x000091e0     0x13fb dist/AWS_IOT/production/__pa_temp_4543/aws_cloud_service.o
 .debug_info    0x0000a5db      0x331 build/AWS_IOT/production/mcc_generated_files/credentials_storage/credentials_storage.o
 .debug_info    0x0000a90c     0x18d2 dist/AWS_IOT/production/__pa_temp_4543/atcacert_client.o
 .debug_info    0x0000c1de     0x1a5d dist/AWS_IOT/production/__pa_temp_4543/atcacert_date.o
 .debug_info    0x0000dc3b     0x4703 dist/AWS_IOT/production/__pa_temp_4543/atcacert_def.o
 .debug_info    0x0001233e     0x1218 dist/AWS_IOT/production/__pa_temp_4543/atca_basic.o
 .debug_info    0x00013556     0x121c dist/AWS_IOT/production/__pa_temp_4543/atca_basic_ecdh.o
 .debug_info    0x00014772      0xe82 dist/AWS_IOT/production/__pa_temp_4543/atca_basic_genkey.o
 .debug_info    0x000155f4      0xeca dist/AWS_IOT/production/__pa_temp_4543/atca_basic_lock.o
 .debug_info    0x000164be      0xefc dist/AWS_IOT/production/__pa_temp_4543/atca_basic_nonce.o
 .debug_info    0x000173ba      0xd1c dist/AWS_IOT/production/__pa_temp_4543/atca_basic_random.o
 .debug_info    0x000180d6     0x1b3d dist/AWS_IOT/production/__pa_temp_4543/atca_basic_read.o
 .debug_info    0x00019c13     0x1317 dist/AWS_IOT/production/__pa_temp_4543/atca_basic_secureboot.o
 .debug_info    0x0001af2a     0x19df dist/AWS_IOT/production/__pa_temp_4543/atca_basic_sha.o
 .debug_info    0x0001c909      0xf41 dist/AWS_IOT/production/__pa_temp_4543/atca_basic_sign.o
 .debug_info    0x0001d84a      0xd35 dist/AWS_IOT/production/__pa_temp_4543/atca_basic_updateextra.o
 .debug_info    0x0001e57f     0x17dd dist/AWS_IOT/production/__pa_temp_4543/atca_basic_verify.o
 .debug_info    0x0001fd5c     0x19c5 dist/AWS_IOT/production/__pa_temp_4543/atca_basic_write.o
 .debug_info    0x00021721      0x6b3 dist/AWS_IOT/production/__pa_temp_4543/sha1_routines.o
 .debug_info    0x00021dd4      0xd6a dist/AWS_IOT/production/__pa_temp_4543/atca_hal.o
 .debug_info    0x00022b3e      0xfcd dist/AWS_IOT/production/__pa_temp_4543/atca_i2c_hal.o
 .debug_info    0x00023b0b      0x3c1 dist/AWS_IOT/production/__pa_temp_4543/hal_i2c_timer.o
 .debug_info    0x00023ecc     0x1284 dist/AWS_IOT/production/__pa_temp_4543/atca_command.o
 .debug_info    0x00025150      0xcf8 build/AWS_IOT/production/mcc_generated_files/CryptoAuthenticationLibrary/atca_device.o
 .debug_info    0x00025e48     0x1006 dist/AWS_IOT/production/__pa_temp_4543/atca_execution.o
 .debug_info    0x00026e4e      0xfec dist/AWS_IOT/production/__pa_temp_4543/atca_iface.o
 .debug_info    0x00027e3a      0x4df build/AWS_IOT/production/mcc_generated_files/drivers/spi_master.o
 .debug_info    0x00028319      0xd72 dist/AWS_IOT/production/__pa_temp_4543/timeout.o
 .debug_info    0x0002908b      0xc32 dist/AWS_IOT/production/__pa_temp_4543/i2c_simple_master.o
 .debug_info    0x00029cbd      0x63a dist/AWS_IOT/production/__pa_temp_4543/mqtt_comm_layer.o
 .debug_info    0x0002a2f7     0x30e1 dist/AWS_IOT/production/__pa_temp_4543/mqtt_core.o
 .debug_info    0x0002d3d8      0x4c9 dist/AWS_IOT/production/__pa_temp_4543/mqtt_exchange_buffer.o
 .debug_info    0x0002d8a1      0x34f build/AWS_IOT/production/mcc_generated_files/mqtt/mqtt_packetTransfer_interface.o
 .debug_info    0x0002dbf0     0x2464 dist/AWS_IOT/production/__pa_temp_4543/mqtt_winc_adapter.o
 .debug_info    0x00030054     0x11c6 dist/AWS_IOT/production/__pa_temp_4543/pin_manager.o
 .debug_info    0x0003121a      0x3c8 build/AWS_IOT/production/mcc_generated_files/src/cpuint.o
 .debug_info    0x000315e2      0x78b build/AWS_IOT/production/mcc_generated_files/src/spi0.o
 .debug_info    0x00031d6d       0x95 build/AWS_IOT/production/mcc_generated_files/src/protected_io.o
 .debug_info    0x00031e02      0x89e build/AWS_IOT/production/mcc_generated_files/src/rtc.o
 .debug_info    0x000326a0     0x1978 dist/AWS_IOT/production/__pa_temp_4543/twi0_master.o
 .debug_info    0x00034018      0xb12 build/AWS_IOT/production/mcc_generated_files/src/adc0.o
 .debug_info    0x00034b2a      0xb0c build/AWS_IOT/production/mcc_generated_files/src/usart2.o
 .debug_info    0x00035636      0xe36 dist/AWS_IOT/production/__pa_temp_4543/winc_spi.o
 .debug_info    0x0003646c      0xb2b dist/AWS_IOT/production/__pa_temp_4543/winc_adapter.o
 .debug_info    0x00036f97      0xb49 dist/AWS_IOT/production/__pa_temp_4543/winc_hif.o
 .debug_info    0x00037ae0      0xddc dist/AWS_IOT/production/__pa_temp_4543/winc_asic.o
 .debug_info    0x000388bc      0x552 dist/AWS_IOT/production/__pa_temp_4543/winc_drv.o
 .debug_info    0x00038e0e      0xfe3 dist/AWS_IOT/production/__pa_temp_4543/m2m_ssl.o
 .debug_info    0x00039df1     0x5ab4 dist/AWS_IOT/production/__pa_temp_4543/m2m_wifi.o
 .debug_info    0x0003f8a5     0x18ea dist/AWS_IOT/production/__pa_temp_4543/m2m_ota.o
 .debug_info    0x0004118f      0x65b dist/AWS_IOT/production/__pa_temp_4543/m2m_fwinfo.o
 .debug_info    0x000417ea     0x248d dist/AWS_IOT/production/__pa_temp_4543/socket.o
 .debug_info    0x00043c77     0x14ea dist/AWS_IOT/production/__pa_temp_4543/spi_flash.o
 .debug_info    0x00045161      0xa55 build/AWS_IOT/production/mcc_generated_files/mcc.o
 .debug_info    0x00045bb6      0x3fa build/AWS_IOT/production/mcc_generated_files/delay.o
 .debug_info    0x00045fb0      0x7dc build/AWS_IOT/production/mcc_generated_files/device_config.o
 .debug_info    0x0004678c     0x15a4 dist/AWS_IOT/production/__pa_temp_4543/application_manager.o
 .debug_info    0x00047d30      0x65b dist/AWS_IOT/production/__pa_temp_4543/debug_print.o
 .debug_info    0x0004838b      0xa30 build/AWS_IOT/production/mcc_generated_files/led.o
 .debug_info    0x00048dbb      0x338 dist/AWS_IOT/production/__pa_temp_4543/sensors_handling.o
 .debug_info    0x000490f3      0x871 dist/AWS_IOT/production/__pa_temp_4543/time_service.o
 .debug_info    0x00049964      0xc9d build/AWS_IOT/production/mcc_generated_files/CryptoAuthenticationLibrary/CryptoAuth_init.o
 .debug_info    0x0004a601      0x1e4 build/AWS_IOT/production/main.o

.debug_abbrev   0x00000000     0xaa28
 *(.debug_abbrev)
 .debug_abbrev  0x00000000     0x20c2 /opt/microchip/mplabx/v5.30/packs/Microchip/ATmega_DFP/2.0.12/gcc/dev/atmega4808/avrxmega3/crtatmega4808.o
 .debug_abbrev  0x000020c2      0x424 dist/AWS_IOT/production/__pa_temp_4543/cli.o
 .debug_abbrev  0x000024e6      0x2e4 dist/AWS_IOT/production/__pa_temp_4543/crypto_client.o
 .debug_abbrev  0x000027ca      0x408 dist/AWS_IOT/production/__pa_temp_4543/cloud_service.o
 .debug_abbrev  0x00002bd2      0x314 dist/AWS_IOT/production/__pa_temp_4543/wifi_service.o
 .debug_abbrev  0x00002ee6      0x292 dist/AWS_IOT/production/__pa_temp_4543/mqtt_service.o
 .debug_abbrev  0x00003178      0x261 dist/AWS_IOT/production/__pa_temp_4543/aws_cloud_service.o
 .debug_abbrev  0x000033d9       0x5c build/AWS_IOT/production/mcc_generated_files/credentials_storage/credentials_storage.o
 .debug_abbrev  0x00003435      0x285 dist/AWS_IOT/production/__pa_temp_4543/atcacert_client.o
 .debug_abbrev  0x000036ba      0x324 dist/AWS_IOT/production/__pa_temp_4543/atcacert_date.o
 .debug_abbrev  0x000039de      0x3a9 dist/AWS_IOT/production/__pa_temp_4543/atcacert_def.o
 .debug_abbrev  0x00003d87      0x23b dist/AWS_IOT/production/__pa_temp_4543/atca_basic.o
 .debug_abbrev  0x00003fc2      0x1dc dist/AWS_IOT/production/__pa_temp_4543/atca_basic_ecdh.o
 .debug_abbrev  0x0000419e      0x18a dist/AWS_IOT/production/__pa_temp_4543/atca_basic_genkey.o
 .debug_abbrev  0x00004328      0x187 dist/AWS_IOT/production/__pa_temp_4543/atca_basic_lock.o
 .debug_abbrev  0x000044af      0x18e dist/AWS_IOT/production/__pa_temp_4543/atca_basic_nonce.o
 .debug_abbrev  0x0000463d      0x158 dist/AWS_IOT/production/__pa_temp_4543/atca_basic_random.o
 .debug_abbrev  0x00004795      0x35d dist/AWS_IOT/production/__pa_temp_4543/atca_basic_read.o
 .debug_abbrev  0x00004af2      0x1d2 dist/AWS_IOT/production/__pa_temp_4543/atca_basic_secureboot.o
 .debug_abbrev  0x00004cc4      0x2cb dist/AWS_IOT/production/__pa_temp_4543/atca_basic_sha.o
 .debug_abbrev  0x00004f8f      0x1c7 dist/AWS_IOT/production/__pa_temp_4543/atca_basic_sign.o
 .debug_abbrev  0x00005156      0x158 dist/AWS_IOT/production/__pa_temp_4543/atca_basic_updateextra.o
 .debug_abbrev  0x000052ae      0x2b0 dist/AWS_IOT/production/__pa_temp_4543/atca_basic_verify.o
 .debug_abbrev  0x0000555e      0x336 dist/AWS_IOT/production/__pa_temp_4543/atca_basic_write.o
 .debug_abbrev  0x00005894       0xf4 dist/AWS_IOT/production/__pa_temp_4543/sha1_routines.o
 .debug_abbrev  0x00005988      0x1aa dist/AWS_IOT/production/__pa_temp_4543/atca_hal.o
 .debug_abbrev  0x00005b32      0x1cd dist/AWS_IOT/production/__pa_temp_4543/atca_i2c_hal.o
 .debug_abbrev  0x00005cff      0x10d dist/AWS_IOT/production/__pa_temp_4543/hal_i2c_timer.o
 .debug_abbrev  0x00005e0c      0x1ab dist/AWS_IOT/production/__pa_temp_4543/atca_command.o
 .debug_abbrev  0x00005fb7      0x147 build/AWS_IOT/production/mcc_generated_files/CryptoAuthenticationLibrary/atca_device.o
 .debug_abbrev  0x000060fe      0x1b5 dist/AWS_IOT/production/__pa_temp_4543/atca_execution.o
 .debug_abbrev  0x000062b3      0x204 dist/AWS_IOT/production/__pa_temp_4543/atca_iface.o
 .debug_abbrev  0x000064b7      0x12c build/AWS_IOT/production/mcc_generated_files/drivers/spi_master.o
 .debug_abbrev  0x000065e3      0x2f5 dist/AWS_IOT/production/__pa_temp_4543/timeout.o
 .debug_abbrev  0x000068d8      0x14e dist/AWS_IOT/production/__pa_temp_4543/i2c_simple_master.o
 .debug_abbrev  0x00006a26      0x16a dist/AWS_IOT/production/__pa_temp_4543/mqtt_comm_layer.o
 .debug_abbrev  0x00006b90      0x36a dist/AWS_IOT/production/__pa_temp_4543/mqtt_core.o
 .debug_abbrev  0x00006efa       0xee dist/AWS_IOT/production/__pa_temp_4543/mqtt_exchange_buffer.o
 .debug_abbrev  0x00006fe8       0x9b build/AWS_IOT/production/mcc_generated_files/mqtt/mqtt_packetTransfer_interface.o
 .debug_abbrev  0x00007083      0x3ba dist/AWS_IOT/production/__pa_temp_4543/mqtt_winc_adapter.o
 .debug_abbrev  0x0000743d      0x1a7 dist/AWS_IOT/production/__pa_temp_4543/pin_manager.o
 .debug_abbrev  0x000075e4       0xfa build/AWS_IOT/production/mcc_generated_files/src/cpuint.o
 .debug_abbrev  0x000076de      0x1f3 build/AWS_IOT/production/mcc_generated_files/src/spi0.o
 .debug_abbrev  0x000078d1       0x14 build/AWS_IOT/production/mcc_generated_files/src/protected_io.o
 .debug_abbrev  0x000078e5      0x152 build/AWS_IOT/production/mcc_generated_files/src/rtc.o
 .debug_abbrev  0x00007a37      0x3d8 dist/AWS_IOT/production/__pa_temp_4543/twi0_master.o
 .debug_abbrev  0x00007e0f      0x23a build/AWS_IOT/production/mcc_generated_files/src/adc0.o
 .debug_abbrev  0x00008049      0x305 build/AWS_IOT/production/mcc_generated_files/src/usart2.o
 .debug_abbrev  0x0000834e      0x297 dist/AWS_IOT/production/__pa_temp_4543/winc_spi.o
 .debug_abbrev  0x000085e5      0x20e dist/AWS_IOT/production/__pa_temp_4543/winc_adapter.o
 .debug_abbrev  0x000087f3      0x20d dist/AWS_IOT/production/__pa_temp_4543/winc_hif.o
 .debug_abbrev  0x00008a00      0x1de dist/AWS_IOT/production/__pa_temp_4543/winc_asic.o
 .debug_abbrev  0x00008bde       0xac dist/AWS_IOT/production/__pa_temp_4543/winc_drv.o
 .debug_abbrev  0x00008c8a      0x244 dist/AWS_IOT/production/__pa_temp_4543/m2m_ssl.o
 .debug_abbrev  0x00008ece      0x3c8 dist/AWS_IOT/production/__pa_temp_4543/m2m_wifi.o
 .debug_abbrev  0x00009296      0x26c dist/AWS_IOT/production/__pa_temp_4543/m2m_ota.o
 .debug_abbrev  0x00009502      0x141 dist/AWS_IOT/production/__pa_temp_4543/m2m_fwinfo.o
 .debug_abbrev  0x00009643      0x358 dist/AWS_IOT/production/__pa_temp_4543/socket.o
 .debug_abbrev  0x0000999b      0x1d1 dist/AWS_IOT/production/__pa_temp_4543/spi_flash.o
 .debug_abbrev  0x00009b6c      0x172 build/AWS_IOT/production/mcc_generated_files/mcc.o
 .debug_abbrev  0x00009cde      0x11e build/AWS_IOT/production/mcc_generated_files/delay.o
 .debug_abbrev  0x00009dfc       0x85 build/AWS_IOT/production/mcc_generated_files/device_config.o
 .debug_abbrev  0x00009e81      0x3cf dist/AWS_IOT/production/__pa_temp_4543/application_manager.o
 .debug_abbrev  0x0000a250      0x18e dist/AWS_IOT/production/__pa_temp_4543/debug_print.o
 .debug_abbrev  0x0000a3de      0x21e build/AWS_IOT/production/mcc_generated_files/led.o
 .debug_abbrev  0x0000a5fc       0x90 dist/AWS_IOT/production/__pa_temp_4543/sensors_handling.o
 .debug_abbrev  0x0000a68c      0x205 dist/AWS_IOT/production/__pa_temp_4543/time_service.o
 .debug_abbrev  0x0000a891      0x13a build/AWS_IOT/production/mcc_generated_files/CryptoAuthenticationLibrary/CryptoAuth_init.o
 .debug_abbrev  0x0000a9cb       0x5d build/AWS_IOT/production/main.o

.debug_line     0x00000000    0x120e0
 *(.debug_line .debug_line.* .debug_line_end)
 .debug_line    0x00000000      0x16f /opt/microchip/mplabx/v5.30/packs/Microchip/ATmega_DFP/2.0.12/gcc/dev/atmega4808/avrxmega3/crtatmega4808.o
 .debug_line    0x0000016f      0x5f8 dist/AWS_IOT/production/__pa_temp_4543/cli.o
 .debug_line    0x00000767      0x4e5 dist/AWS_IOT/production/__pa_temp_4543/crypto_client.o
 .debug_line    0x00000c4c      0x615 dist/AWS_IOT/production/__pa_temp_4543/cloud_service.o
 .debug_line    0x00001261      0x613 dist/AWS_IOT/production/__pa_temp_4543/wifi_service.o
 .debug_line    0x00001874      0x2d5 dist/AWS_IOT/production/__pa_temp_4543/mqtt_service.o
 .debug_line    0x00001b49      0x596 dist/AWS_IOT/production/__pa_temp_4543/aws_cloud_service.o
 .debug_line    0x000020df       0x7d build/AWS_IOT/production/mcc_generated_files/credentials_storage/credentials_storage.o
 .debug_line    0x0000215c      0x53f dist/AWS_IOT/production/__pa_temp_4543/atcacert_client.o
 .debug_line    0x0000269b      0xb7d dist/AWS_IOT/production/__pa_temp_4543/atcacert_date.o
 .debug_line    0x00003218     0x14cb dist/AWS_IOT/production/__pa_temp_4543/atcacert_def.o
 .debug_line    0x000046e3      0x492 dist/AWS_IOT/production/__pa_temp_4543/atca_basic.o
 .debug_line    0x00004b75      0x360 dist/AWS_IOT/production/__pa_temp_4543/atca_basic_ecdh.o
 .debug_line    0x00004ed5      0x1cd dist/AWS_IOT/production/__pa_temp_4543/atca_basic_genkey.o
 .debug_line    0x000050a2      0x1f2 dist/AWS_IOT/production/__pa_temp_4543/atca_basic_lock.o
 .debug_line    0x00005294      0x231 dist/AWS_IOT/production/__pa_temp_4543/atca_basic_nonce.o
 .debug_line    0x000054c5      0x193 dist/AWS_IOT/production/__pa_temp_4543/atca_basic_random.o
 .debug_line    0x00005658      0x626 dist/AWS_IOT/production/__pa_temp_4543/atca_basic_read.o
 .debug_line    0x00005c7e      0x310 dist/AWS_IOT/production/__pa_temp_4543/atca_basic_secureboot.o
 .debug_line    0x00005f8e      0x574 dist/AWS_IOT/production/__pa_temp_4543/atca_basic_sha.o
 .debug_line    0x00006502      0x20d dist/AWS_IOT/production/__pa_temp_4543/atca_basic_sign.o
 .debug_line    0x0000670f      0x186 dist/AWS_IOT/production/__pa_temp_4543/atca_basic_updateextra.o
 .debug_line    0x00006895      0x4b1 dist/AWS_IOT/production/__pa_temp_4543/atca_basic_verify.o
 .debug_line    0x00006d46      0x64a dist/AWS_IOT/production/__pa_temp_4543/atca_basic_write.o
 .debug_line    0x00007390      0x332 dist/AWS_IOT/production/__pa_temp_4543/sha1_routines.o
 .debug_line    0x000076c2      0x1de dist/AWS_IOT/production/__pa_temp_4543/atca_hal.o
 .debug_line    0x000078a0      0x328 dist/AWS_IOT/production/__pa_temp_4543/atca_i2c_hal.o
 .debug_line    0x00007bc8      0x12b dist/AWS_IOT/production/__pa_temp_4543/hal_i2c_timer.o
 .debug_line    0x00007cf3      0x779 dist/AWS_IOT/production/__pa_temp_4543/atca_command.o
 .debug_line    0x0000846c      0x199 build/AWS_IOT/production/mcc_generated_files/CryptoAuthenticationLibrary/atca_device.o
 .debug_line    0x00008605      0x28d dist/AWS_IOT/production/__pa_temp_4543/atca_execution.o
 .debug_line    0x00008892      0x2c1 dist/AWS_IOT/production/__pa_temp_4543/atca_iface.o
 .debug_line    0x00008b53      0x137 build/AWS_IOT/production/mcc_generated_files/drivers/spi_master.o
 .debug_line    0x00008c8a      0x59b dist/AWS_IOT/production/__pa_temp_4543/timeout.o
 .debug_line    0x00009225      0x393 dist/AWS_IOT/production/__pa_temp_4543/i2c_simple_master.o
 .debug_line    0x000095b8      0x276 dist/AWS_IOT/production/__pa_temp_4543/mqtt_comm_layer.o
 .debug_line    0x0000982e      0xb31 dist/AWS_IOT/production/__pa_temp_4543/mqtt_core.o
 .debug_line    0x0000a35f      0x1e6 dist/AWS_IOT/production/__pa_temp_4543/mqtt_exchange_buffer.o
 .debug_line    0x0000a545       0xda build/AWS_IOT/production/mcc_generated_files/mqtt/mqtt_packetTransfer_interface.o
 .debug_line    0x0000a61f      0x769 dist/AWS_IOT/production/__pa_temp_4543/mqtt_winc_adapter.o
 .debug_line    0x0000ad88      0x528 dist/AWS_IOT/production/__pa_temp_4543/pin_manager.o
 .debug_line    0x0000b2b0      0x168 build/AWS_IOT/production/mcc_generated_files/src/cpuint.o
 .debug_line    0x0000b418      0x350 build/AWS_IOT/production/mcc_generated_files/src/spi0.o
 .debug_line    0x0000b768       0x66 build/AWS_IOT/production/mcc_generated_files/src/protected_io.o
 .debug_line    0x0000b7ce      0x2f3 build/AWS_IOT/production/mcc_generated_files/src/rtc.o
 .debug_line    0x0000bac1      0x9f2 dist/AWS_IOT/production/__pa_temp_4543/twi0_master.o
 .debug_line    0x0000c4b3      0x33e build/AWS_IOT/production/mcc_generated_files/src/adc0.o
 .debug_line    0x0000c7f1      0x42b build/AWS_IOT/production/mcc_generated_files/src/usart2.o
 .debug_line    0x0000cc1c      0x556 dist/AWS_IOT/production/__pa_temp_4543/winc_spi.o
 .debug_line    0x0000d172      0x3be dist/AWS_IOT/production/__pa_temp_4543/winc_adapter.o
 .debug_line    0x0000d530      0x36d dist/AWS_IOT/production/__pa_temp_4543/winc_hif.o
 .debug_line    0x0000d89d      0x369 dist/AWS_IOT/production/__pa_temp_4543/winc_asic.o
 .debug_line    0x0000dc06      0x1b6 dist/AWS_IOT/production/__pa_temp_4543/winc_drv.o
 .debug_line    0x0000ddbc      0x3f5 dist/AWS_IOT/production/__pa_temp_4543/m2m_ssl.o
 .debug_line    0x0000e1b1     0x111e dist/AWS_IOT/production/__pa_temp_4543/m2m_wifi.o
 .debug_line    0x0000f2cf      0x517 dist/AWS_IOT/production/__pa_temp_4543/m2m_ota.o
 .debug_line    0x0000f7e6      0x1d3 dist/AWS_IOT/production/__pa_temp_4543/m2m_fwinfo.o
 .debug_line    0x0000f9b9      0xd3f dist/AWS_IOT/production/__pa_temp_4543/socket.o
 .debug_line    0x000106f8      0x4b7 dist/AWS_IOT/production/__pa_temp_4543/spi_flash.o
 .debug_line    0x00010baf      0x346 build/AWS_IOT/production/mcc_generated_files/mcc.o
 .debug_line    0x00010ef5      0x10f build/AWS_IOT/production/mcc_generated_files/delay.o
 .debug_line    0x00011004       0xcd build/AWS_IOT/production/mcc_generated_files/device_config.o
 .debug_line    0x000110d1      0x61b dist/AWS_IOT/production/__pa_temp_4543/application_manager.o
 .debug_line    0x000116ec      0x15e dist/AWS_IOT/production/__pa_temp_4543/debug_print.o
 .debug_line    0x0001184a      0x382 build/AWS_IOT/production/mcc_generated_files/led.o
 .debug_line    0x00011bcc      0x11c dist/AWS_IOT/production/__pa_temp_4543/sensors_handling.o
 .debug_line    0x00011ce8      0x222 dist/AWS_IOT/production/__pa_temp_4543/time_service.o
 .debug_line    0x00011f0a      0x165 build/AWS_IOT/production/mcc_generated_files/CryptoAuthenticationLibrary/CryptoAuth_init.o
 .debug_line    0x0001206f       0x71 build/AWS_IOT/production/main.o

.debug_frame    0x00000000     0x6518
 *(.debug_frame)
 .debug_frame   0x00000000      0x170 dist/AWS_IOT/production/__pa_temp_4543/cli.o
 .debug_frame   0x00000170      0x1e0 dist/AWS_IOT/production/__pa_temp_4543/crypto_client.o
 .debug_frame   0x00000350       0xf8 dist/AWS_IOT/production/__pa_temp_4543/cloud_service.o
 .debug_frame   0x00000448      0x160 dist/AWS_IOT/production/__pa_temp_4543/wifi_service.o
 .debug_frame   0x000005a8       0xe8 dist/AWS_IOT/production/__pa_temp_4543/mqtt_service.o
 .debug_frame   0x00000690       0xe8 dist/AWS_IOT/production/__pa_temp_4543/aws_cloud_service.o
 .debug_frame   0x00000778       0x24 build/AWS_IOT/production/mcc_generated_files/credentials_storage/credentials_storage.o
 .debug_frame   0x0000079c      0x1ec dist/AWS_IOT/production/__pa_temp_4543/atcacert_client.o
 .debug_frame   0x00000988      0x364 dist/AWS_IOT/production/__pa_temp_4543/atcacert_date.o
 .debug_frame   0x00000cec      0xa04 dist/AWS_IOT/production/__pa_temp_4543/atcacert_def.o
 .debug_frame   0x000016f0      0x158 dist/AWS_IOT/production/__pa_temp_4543/atca_basic.o
 .debug_frame   0x00001848      0x178 dist/AWS_IOT/production/__pa_temp_4543/atca_basic_ecdh.o
 .debug_frame   0x000019c0       0x64 dist/AWS_IOT/production/__pa_temp_4543/atca_basic_genkey.o
 .debug_frame   0x00001a24       0x90 dist/AWS_IOT/production/__pa_temp_4543/atca_basic_lock.o
 .debug_frame   0x00001ab4       0x90 dist/AWS_IOT/production/__pa_temp_4543/atca_basic_nonce.o
 .debug_frame   0x00001b44       0x40 dist/AWS_IOT/production/__pa_temp_4543/atca_basic_random.o
 .debug_frame   0x00001b84      0x2d4 dist/AWS_IOT/production/__pa_temp_4543/atca_basic_read.o
 .debug_frame   0x00001e58       0xb8 dist/AWS_IOT/production/__pa_temp_4543/atca_basic_secureboot.o
 .debug_frame   0x00001f10      0x338 dist/AWS_IOT/production/__pa_temp_4543/atca_basic_sha.o
 .debug_frame   0x00002248       0x84 dist/AWS_IOT/production/__pa_temp_4543/atca_basic_sign.o
 .debug_frame   0x000022cc       0x40 dist/AWS_IOT/production/__pa_temp_4543/atca_basic_updateextra.o
 .debug_frame   0x0000230c      0x228 dist/AWS_IOT/production/__pa_temp_4543/atca_basic_verify.o
 .debug_frame   0x00002534      0x220 dist/AWS_IOT/production/__pa_temp_4543/atca_basic_write.o
 .debug_frame   0x00002754      0x178 dist/AWS_IOT/production/__pa_temp_4543/sha1_routines.o
 .debug_frame   0x000028cc       0x60 dist/AWS_IOT/production/__pa_temp_4543/atca_hal.o
 .debug_frame   0x0000292c      0x110 dist/AWS_IOT/production/__pa_temp_4543/atca_i2c_hal.o
 .debug_frame   0x00002a3c       0x34 dist/AWS_IOT/production/__pa_temp_4543/hal_i2c_timer.o
 .debug_frame   0x00002a70      0x238 dist/AWS_IOT/production/__pa_temp_4543/atca_command.o
 .debug_frame   0x00002ca8       0x68 build/AWS_IOT/production/mcc_generated_files/CryptoAuthenticationLibrary/atca_device.o
 .debug_frame   0x00002d10       0x74 dist/AWS_IOT/production/__pa_temp_4543/atca_execution.o
 .debug_frame   0x00002d84      0x110 dist/AWS_IOT/production/__pa_temp_4543/atca_iface.o
 .debug_frame   0x00002e94       0x34 build/AWS_IOT/production/mcc_generated_files/drivers/spi_master.o
 .debug_frame   0x00002ec8      0x29c dist/AWS_IOT/production/__pa_temp_4543/timeout.o
 .debug_frame   0x00003164      0x18c dist/AWS_IOT/production/__pa_temp_4543/i2c_simple_master.o
 .debug_frame   0x000032f0       0x90 dist/AWS_IOT/production/__pa_temp_4543/mqtt_comm_layer.o
 .debug_frame   0x00003380      0x248 dist/AWS_IOT/production/__pa_temp_4543/mqtt_core.o
 .debug_frame   0x000035c8       0x94 dist/AWS_IOT/production/__pa_temp_4543/mqtt_exchange_buffer.o
 .debug_frame   0x0000365c       0x34 build/AWS_IOT/production/mcc_generated_files/mqtt/mqtt_packetTransfer_interface.o
 .debug_frame   0x00003690      0x31c dist/AWS_IOT/production/__pa_temp_4543/mqtt_winc_adapter.o
 .debug_frame   0x000039ac      0x300 dist/AWS_IOT/production/__pa_temp_4543/pin_manager.o
 .debug_frame   0x00003cac       0x24 build/AWS_IOT/production/mcc_generated_files/src/cpuint.o
 .debug_frame   0x00003cd0      0x114 build/AWS_IOT/production/mcc_generated_files/src/spi0.o
 .debug_frame   0x00003de4      0x1b4 build/AWS_IOT/production/mcc_generated_files/src/rtc.o
 .debug_frame   0x00003f98      0x3dc dist/AWS_IOT/production/__pa_temp_4543/twi0_master.o
 .debug_frame   0x00004374      0x18c build/AWS_IOT/production/mcc_generated_files/src/adc0.o
 .debug_frame   0x00004500      0x210 build/AWS_IOT/production/mcc_generated_files/src/usart2.o
 .debug_frame   0x00004710      0x2ac dist/AWS_IOT/production/__pa_temp_4543/winc_spi.o
 .debug_frame   0x000049bc      0x170 dist/AWS_IOT/production/__pa_temp_4543/winc_adapter.o
 .debug_frame   0x00004b2c      0x16c dist/AWS_IOT/production/__pa_temp_4543/winc_hif.o
 .debug_frame   0x00004c98      0x194 dist/AWS_IOT/production/__pa_temp_4543/winc_asic.o
 .debug_frame   0x00004e2c       0x58 dist/AWS_IOT/production/__pa_temp_4543/winc_drv.o
 .debug_frame   0x00004e84      0x190 dist/AWS_IOT/production/__pa_temp_4543/m2m_ssl.o
 .debug_frame   0x00005014      0x8a8 dist/AWS_IOT/production/__pa_temp_4543/m2m_wifi.o
 .debug_frame   0x000058bc      0x184 dist/AWS_IOT/production/__pa_temp_4543/m2m_ota.o
 .debug_frame   0x00005a40       0x54 dist/AWS_IOT/production/__pa_temp_4543/m2m_fwinfo.o
 .debug_frame   0x00005a94      0x350 dist/AWS_IOT/production/__pa_temp_4543/socket.o
 .debug_frame   0x00005de4      0x26c dist/AWS_IOT/production/__pa_temp_4543/spi_flash.o
 .debug_frame   0x00006050       0x94 build/AWS_IOT/production/mcc_generated_files/mcc.o
 .debug_frame   0x000060e4       0x34 build/AWS_IOT/production/mcc_generated_files/delay.o
 .debug_frame   0x00006118      0x1b8 dist/AWS_IOT/production/__pa_temp_4543/application_manager.o
 .debug_frame   0x000062d0       0x64 dist/AWS_IOT/production/__pa_temp_4543/debug_print.o
 .debug_frame   0x00006334       0x84 build/AWS_IOT/production/mcc_generated_files/led.o
 .debug_frame   0x000063b8       0x34 dist/AWS_IOT/production/__pa_temp_4543/sensors_handling.o
 .debug_frame   0x000063ec       0xe4 dist/AWS_IOT/production/__pa_temp_4543/time_service.o
 .debug_frame   0x000064d0       0x24 build/AWS_IOT/production/mcc_generated_files/CryptoAuthenticationLibrary/CryptoAuth_init.o
 .debug_frame   0x000064f4       0x24 build/AWS_IOT/production/main.o

.debug_str      0x00000000     0x3759
 *(.debug_str)
 .debug_str     0x00000000      0xecd /opt/microchip/mplabx/v5.30/packs/Microchip/ATmega_DFP/2.0.12/gcc/dev/atmega4808/avrxmega3/crtatmega4808.o
 .debug_str     0x00000ecd       0xe7 dist/AWS_IOT/production/__pa_temp_4543/cli.o
 .debug_str     0x00000fb4      0x150 dist/AWS_IOT/production/__pa_temp_4543/crypto_client.o
 .debug_str     0x00001104      0x1d3 dist/AWS_IOT/production/__pa_temp_4543/cloud_service.o
 .debug_str     0x000012d7      0x21c dist/AWS_IOT/production/__pa_temp_4543/wifi_service.o
 .debug_str     0x000014f3       0xd9 dist/AWS_IOT/production/__pa_temp_4543/mqtt_service.o
 .debug_str     0x000015cc      0x182 dist/AWS_IOT/production/__pa_temp_4543/aws_cloud_service.o
 .debug_str     0x0000174e        0x0 build/AWS_IOT/production/mcc_generated_files/credentials_storage/credentials_storage.o
 .debug_str     0x0000174e      0x19f dist/AWS_IOT/production/__pa_temp_4543/atcacert_client.o
 .debug_str     0x000018ed       0x83 dist/AWS_IOT/production/__pa_temp_4543/atcacert_date.o
 .debug_str     0x00001970      0x2d6 dist/AWS_IOT/production/__pa_temp_4543/atcacert_def.o
 .debug_str     0x00001c46       0x9d dist/AWS_IOT/production/__pa_temp_4543/atca_basic.o
 .debug_str     0x00001ce3       0x6d dist/AWS_IOT/production/__pa_temp_4543/atca_basic_ecdh.o
 .debug_str     0x00001d50       0x30 dist/AWS_IOT/production/__pa_temp_4543/atca_basic_genkey.o
 .debug_str     0x00001d80       0x21 dist/AWS_IOT/production/__pa_temp_4543/atca_basic_lock.o
 .debug_str     0x00001da1       0x25 dist/AWS_IOT/production/__pa_temp_4543/atca_basic_nonce.o
 .debug_str     0x00001dc6       0x1e dist/AWS_IOT/production/__pa_temp_4543/atca_basic_random.o
 .debug_str     0x00001de4       0xc6 dist/AWS_IOT/production/__pa_temp_4543/atca_basic_read.o
 .debug_str     0x00001eaa       0xbf dist/AWS_IOT/production/__pa_temp_4543/atca_basic_secureboot.o
 .debug_str     0x00001f69       0x7d dist/AWS_IOT/production/__pa_temp_4543/atca_basic_sha.o
 .debug_str     0x00001fe6       0x4b dist/AWS_IOT/production/__pa_temp_4543/atca_basic_sign.o
 .debug_str     0x00002031       0x23 dist/AWS_IOT/production/__pa_temp_4543/atca_basic_updateextra.o
 .debug_str     0x00002054       0xb7 dist/AWS_IOT/production/__pa_temp_4543/atca_basic_verify.o
 .debug_str     0x0000210b       0xd7 dist/AWS_IOT/production/__pa_temp_4543/atca_basic_write.o
 .debug_str     0x000021e2        0x0 dist/AWS_IOT/production/__pa_temp_4543/sha1_routines.o
 .debug_str     0x000021e2       0x4f dist/AWS_IOT/production/__pa_temp_4543/atca_hal.o
 .debug_str     0x00002231       0x63 dist/AWS_IOT/production/__pa_temp_4543/atca_i2c_hal.o
 .debug_str     0x00002294       0x26 dist/AWS_IOT/production/__pa_temp_4543/hal_i2c_timer.o
 .debug_str     0x000022ba       0x1a dist/AWS_IOT/production/__pa_temp_4543/atca_command.o
 .debug_str     0x000022d4       0x2f build/AWS_IOT/production/mcc_generated_files/CryptoAuthenticationLibrary/atca_device.o
 .debug_str     0x00002303       0x5f dist/AWS_IOT/production/__pa_temp_4543/atca_execution.o
 .debug_str     0x00002362       0x7d dist/AWS_IOT/production/__pa_temp_4543/atca_iface.o
 .debug_str     0x000023df       0x17 build/AWS_IOT/production/mcc_generated_files/drivers/spi_master.o
 .debug_str     0x000023f6       0xaa dist/AWS_IOT/production/__pa_temp_4543/timeout.o
 .debug_str     0x000024a0       0x8b dist/AWS_IOT/production/__pa_temp_4543/i2c_simple_master.o
 .debug_str     0x0000252b       0x67 dist/AWS_IOT/production/__pa_temp_4543/mqtt_comm_layer.o
 .debug_str     0x00002592      0x14a dist/AWS_IOT/production/__pa_temp_4543/mqtt_core.o
 .debug_str     0x000026dc        0xe dist/AWS_IOT/production/__pa_temp_4543/mqtt_exchange_buffer.o
 .debug_str     0x000026ea        0x0 build/AWS_IOT/production/mcc_generated_files/mqtt/mqtt_packetTransfer_interface.o
 .debug_str     0x000026ea       0x58 dist/AWS_IOT/production/__pa_temp_4543/mqtt_winc_adapter.o
 .debug_str     0x00002742       0x60 dist/AWS_IOT/production/__pa_temp_4543/pin_manager.o
 .debug_str     0x000027a2       0x13 build/AWS_IOT/production/mcc_generated_files/src/cpuint.o
 .debug_str     0x000027b5       0x17 build/AWS_IOT/production/mcc_generated_files/src/spi0.o
 .debug_str     0x000027cc        0x9 build/AWS_IOT/production/mcc_generated_files/src/rtc.o
 .debug_str     0x000027d5        0xf dist/AWS_IOT/production/__pa_temp_4543/twi0_master.o
 .debug_str     0x000027e4        0x8 build/AWS_IOT/production/mcc_generated_files/src/adc0.o
 .debug_str     0x000027ec        0x0 build/AWS_IOT/production/mcc_generated_files/src/usart2.o
 .debug_str     0x000027ec       0x72 dist/AWS_IOT/production/__pa_temp_4543/winc_spi.o
 .debug_str     0x0000285e       0x3a dist/AWS_IOT/production/__pa_temp_4543/winc_adapter.o
 .debug_str     0x00002898      0x123 dist/AWS_IOT/production/__pa_temp_4543/winc_hif.o
 .debug_str     0x000029bb       0xdf dist/AWS_IOT/production/__pa_temp_4543/winc_asic.o
 .debug_str     0x00002a9a      0x129 dist/AWS_IOT/production/__pa_temp_4543/winc_drv.o
 .debug_str     0x00002bc3       0x49 dist/AWS_IOT/production/__pa_temp_4543/m2m_ssl.o
 .debug_str     0x00002c0c      0x428 dist/AWS_IOT/production/__pa_temp_4543/m2m_wifi.o
 .debug_str     0x00003034      0x11b dist/AWS_IOT/production/__pa_temp_4543/m2m_ota.o
 .debug_str     0x0000314f       0x2f dist/AWS_IOT/production/__pa_temp_4543/m2m_fwinfo.o
 .debug_str     0x0000317e      0x163 dist/AWS_IOT/production/__pa_temp_4543/socket.o
 .debug_str     0x000032e1       0xbd dist/AWS_IOT/production/__pa_temp_4543/spi_flash.o
 .debug_str     0x0000339e      0x126 build/AWS_IOT/production/mcc_generated_files/mcc.o
 .debug_str     0x000034c4       0x26 build/AWS_IOT/production/mcc_generated_files/delay.o
 .debug_str     0x000034ea        0x0 build/AWS_IOT/production/mcc_generated_files/device_config.o
 .debug_str     0x000034ea      0x1a5 dist/AWS_IOT/production/__pa_temp_4543/application_manager.o
 .debug_str     0x0000368f        0x0 dist/AWS_IOT/production/__pa_temp_4543/debug_print.o
 .debug_str     0x0000368f       0x2c build/AWS_IOT/production/mcc_generated_files/led.o
 .debug_str     0x000036bb       0x29 dist/AWS_IOT/production/__pa_temp_4543/sensors_handling.o
 .debug_str     0x000036e4       0x37 dist/AWS_IOT/production/__pa_temp_4543/time_service.o
 .debug_str     0x0000371b       0x20 build/AWS_IOT/production/mcc_generated_files/CryptoAuthenticationLibrary/CryptoAuth_init.o
 .debug_str     0x0000373b       0x1e build/AWS_IOT/production/main.o

.debug_loc      0x00000000    0x1a485
 *(.debug_loc)
 .debug_loc     0x00000000      0x324 dist/AWS_IOT/production/__pa_temp_4543/cli.o
 .debug_loc     0x00000324      0x593 dist/AWS_IOT/production/__pa_temp_4543/crypto_client.o
 .debug_loc     0x000008b7      0x3ce dist/AWS_IOT/production/__pa_temp_4543/cloud_service.o
 .debug_loc     0x00000c85      0x381 dist/AWS_IOT/production/__pa_temp_4543/wifi_service.o
 .debug_loc     0x00001006      0x1a9 dist/AWS_IOT/production/__pa_temp_4543/mqtt_service.o
 .debug_loc     0x000011af      0x255 dist/AWS_IOT/production/__pa_temp_4543/aws_cloud_service.o
 .debug_loc     0x00001404      0x9a5 dist/AWS_IOT/production/__pa_temp_4543/atcacert_client.o
 .debug_loc     0x00001da9     0x2745 dist/AWS_IOT/production/__pa_temp_4543/atcacert_date.o
 .debug_loc     0x000044ee     0x4f8c dist/AWS_IOT/production/__pa_temp_4543/atcacert_def.o
 .debug_loc     0x0000947a      0x3c0 dist/AWS_IOT/production/__pa_temp_4543/atca_basic.o
 .debug_loc     0x0000983a      0x55c dist/AWS_IOT/production/__pa_temp_4543/atca_basic_ecdh.o
 .debug_loc     0x00009d96      0x1d8 dist/AWS_IOT/production/__pa_temp_4543/atca_basic_genkey.o
 .debug_loc     0x00009f6e      0x136 dist/AWS_IOT/production/__pa_temp_4543/atca_basic_lock.o
 .debug_loc     0x0000a0a4      0x3df dist/AWS_IOT/production/__pa_temp_4543/atca_basic_nonce.o
 .debug_loc     0x0000a483       0x79 dist/AWS_IOT/production/__pa_temp_4543/atca_basic_random.o
 .debug_loc     0x0000a4fc      0xd24 dist/AWS_IOT/production/__pa_temp_4543/atca_basic_read.o
 .debug_loc     0x0000b220      0x33f dist/AWS_IOT/production/__pa_temp_4543/atca_basic_secureboot.o
 .debug_loc     0x0000b55f      0xc4f dist/AWS_IOT/production/__pa_temp_4543/atca_basic_sha.o
 .debug_loc     0x0000c1ae      0x37e dist/AWS_IOT/production/__pa_temp_4543/atca_basic_sign.o
 .debug_loc     0x0000c52c       0xa4 dist/AWS_IOT/production/__pa_temp_4543/atca_basic_updateextra.o
 .debug_loc     0x0000c5d0      0xf04 dist/AWS_IOT/production/__pa_temp_4543/atca_basic_verify.o
 .debug_loc     0x0000d4d4      0xb9f dist/AWS_IOT/production/__pa_temp_4543/atca_basic_write.o
 .debug_loc     0x0000e073      0x854 dist/AWS_IOT/production/__pa_temp_4543/sha1_routines.o
 .debug_loc     0x0000e8c7      0x12d dist/AWS_IOT/production/__pa_temp_4543/atca_hal.o
 .debug_loc     0x0000e9f4      0x301 dist/AWS_IOT/production/__pa_temp_4543/atca_i2c_hal.o
 .debug_loc     0x0000ecf5       0xf2 dist/AWS_IOT/production/__pa_temp_4543/hal_i2c_timer.o
 .debug_loc     0x0000ede7      0xad4 dist/AWS_IOT/production/__pa_temp_4543/atca_command.o
 .debug_loc     0x0000f8bb      0x17f build/AWS_IOT/production/mcc_generated_files/CryptoAuthenticationLibrary/atca_device.o
 .debug_loc     0x0000fa3a      0x1a1 dist/AWS_IOT/production/__pa_temp_4543/atca_execution.o
 .debug_loc     0x0000fbdb      0x3fd dist/AWS_IOT/production/__pa_temp_4543/atca_iface.o
 .debug_loc     0x0000ffd8       0x3a build/AWS_IOT/production/mcc_generated_files/drivers/spi_master.o
 .debug_loc     0x00010012      0x6e6 dist/AWS_IOT/production/__pa_temp_4543/timeout.o
 .debug_loc     0x000106f8      0x512 dist/AWS_IOT/production/__pa_temp_4543/i2c_simple_master.o
 .debug_loc     0x00010c0a      0x123 dist/AWS_IOT/production/__pa_temp_4543/mqtt_comm_layer.o
 .debug_loc     0x00010d2d      0x83b dist/AWS_IOT/production/__pa_temp_4543/mqtt_core.o
 .debug_loc     0x00011568      0x1f1 dist/AWS_IOT/production/__pa_temp_4543/mqtt_exchange_buffer.o
 .debug_loc     0x00011759     0x180c dist/AWS_IOT/production/__pa_temp_4543/mqtt_winc_adapter.o
 .debug_loc     0x00012f65       0x78 dist/AWS_IOT/production/__pa_temp_4543/pin_manager.o
 .debug_loc     0x00012fdd       0x2a build/AWS_IOT/production/mcc_generated_files/src/cpuint.o
 .debug_loc     0x00013007      0x215 build/AWS_IOT/production/mcc_generated_files/src/spi0.o
 .debug_loc     0x0001321c      0x4fc dist/AWS_IOT/production/__pa_temp_4543/twi0_master.o
 .debug_loc     0x00013718       0xa4 build/AWS_IOT/production/mcc_generated_files/src/adc0.o
 .debug_loc     0x000137bc      0x142 build/AWS_IOT/production/mcc_generated_files/src/usart2.o
 .debug_loc     0x000138fe      0x93b dist/AWS_IOT/production/__pa_temp_4543/winc_spi.o
 .debug_loc     0x00014239      0x18f dist/AWS_IOT/production/__pa_temp_4543/winc_adapter.o
 .debug_loc     0x000143c8      0x3b1 dist/AWS_IOT/production/__pa_temp_4543/winc_hif.o
 .debug_loc     0x00014779      0x1c9 dist/AWS_IOT/production/__pa_temp_4543/winc_asic.o
 .debug_loc     0x00014942       0x9a dist/AWS_IOT/production/__pa_temp_4543/winc_drv.o
 .debug_loc     0x000149dc      0x770 dist/AWS_IOT/production/__pa_temp_4543/m2m_ssl.o
 .debug_loc     0x0001514c     0x205a dist/AWS_IOT/production/__pa_temp_4543/m2m_wifi.o
 .debug_loc     0x000171a6      0x8c9 dist/AWS_IOT/production/__pa_temp_4543/m2m_ota.o
 .debug_loc     0x00017a6f      0x171 dist/AWS_IOT/production/__pa_temp_4543/m2m_fwinfo.o
 .debug_loc     0x00017be0     0x1942 dist/AWS_IOT/production/__pa_temp_4543/socket.o
 .debug_loc     0x00019522      0x6a9 dist/AWS_IOT/production/__pa_temp_4543/spi_flash.o
 .debug_loc     0x00019bcb       0x52 build/AWS_IOT/production/mcc_generated_files/mcc.o
 .debug_loc     0x00019c1d      0x14a build/AWS_IOT/production/mcc_generated_files/delay.o
 .debug_loc     0x00019d67      0x282 dist/AWS_IOT/production/__pa_temp_4543/application_manager.o
 .debug_loc     0x00019fe9       0xb8 dist/AWS_IOT/production/__pa_temp_4543/debug_print.o
 .debug_loc     0x0001a0a1      0x22e build/AWS_IOT/production/mcc_generated_files/led.o
 .debug_loc     0x0001a2cf       0x59 dist/AWS_IOT/production/__pa_temp_4543/sensors_handling.o
 .debug_loc     0x0001a328      0x13f dist/AWS_IOT/production/__pa_temp_4543/time_service.o
 .debug_loc     0x0001a467       0x1e build/AWS_IOT/production/mcc_generated_files/CryptoAuthenticationLibrary/CryptoAuth_init.o

.debug_macinfo
 *(.debug_macinfo)

.debug_weaknames
 *(.debug_weaknames)

.debug_funcnames
 *(.debug_funcnames)

.debug_typenames
 *(.debug_typenames)

.debug_varnames
 *(.debug_varnames)

.debug_pubtypes
 *(.debug_pubtypes)

.debug_ranges   0x00000000     0x1cf0
 *(.debug_ranges)
 .debug_ranges  0x00000000       0x78 dist/AWS_IOT/production/__pa_temp_4543/cli.o
 .debug_ranges  0x00000078       0x60 dist/AWS_IOT/production/__pa_temp_4543/crypto_client.o
 .debug_ranges  0x000000d8       0x60 dist/AWS_IOT/production/__pa_temp_4543/cloud_service.o
 .debug_ranges  0x00000138       0xa8 dist/AWS_IOT/production/__pa_temp_4543/wifi_service.o
 .debug_ranges  0x000001e0       0x40 dist/AWS_IOT/production/__pa_temp_4543/mqtt_service.o
 .debug_ranges  0x00000220       0x50 dist/AWS_IOT/production/__pa_temp_4543/aws_cloud_service.o
 .debug_ranges  0x00000270       0x10 build/AWS_IOT/production/mcc_generated_files/credentials_storage/credentials_storage.o
 .debug_ranges  0x00000280       0x88 dist/AWS_IOT/production/__pa_temp_4543/atcacert_client.o
 .debug_ranges  0x00000308      0x1d8 dist/AWS_IOT/production/__pa_temp_4543/atcacert_date.o
 .debug_ranges  0x000004e0      0x208 dist/AWS_IOT/production/__pa_temp_4543/atcacert_def.o
 .debug_ranges  0x000006e8       0x70 dist/AWS_IOT/production/__pa_temp_4543/atca_basic.o
 .debug_ranges  0x00000758       0x38 dist/AWS_IOT/production/__pa_temp_4543/atca_basic_ecdh.o
 .debug_ranges  0x00000790       0x20 dist/AWS_IOT/production/__pa_temp_4543/atca_basic_genkey.o
 .debug_ranges  0x000007b0       0x38 dist/AWS_IOT/production/__pa_temp_4543/atca_basic_lock.o
 .debug_ranges  0x000007e8       0x28 dist/AWS_IOT/production/__pa_temp_4543/atca_basic_nonce.o
 .debug_ranges  0x00000810       0x10 dist/AWS_IOT/production/__pa_temp_4543/atca_basic_random.o
 .debug_ranges  0x00000820       0x58 dist/AWS_IOT/production/__pa_temp_4543/atca_basic_read.o
 .debug_ranges  0x00000878       0x18 dist/AWS_IOT/production/__pa_temp_4543/atca_basic_secureboot.o
 .debug_ranges  0x00000890       0x98 dist/AWS_IOT/production/__pa_temp_4543/atca_basic_sha.o
 .debug_ranges  0x00000928       0x20 dist/AWS_IOT/production/__pa_temp_4543/atca_basic_sign.o
 .debug_ranges  0x00000948       0x10 dist/AWS_IOT/production/__pa_temp_4543/atca_basic_updateextra.o
 .debug_ranges  0x00000958       0x48 dist/AWS_IOT/production/__pa_temp_4543/atca_basic_verify.o
 .debug_ranges  0x000009a0       0x40 dist/AWS_IOT/production/__pa_temp_4543/atca_basic_write.o
 .debug_ranges  0x000009e0       0x30 dist/AWS_IOT/production/__pa_temp_4543/sha1_routines.o
 .debug_ranges  0x00000a10       0x20 dist/AWS_IOT/production/__pa_temp_4543/atca_hal.o
 .debug_ranges  0x00000a30       0x50 dist/AWS_IOT/production/__pa_temp_4543/atca_i2c_hal.o
 .debug_ranges  0x00000a80       0x18 dist/AWS_IOT/production/__pa_temp_4543/hal_i2c_timer.o
 .debug_ranges  0x00000a98      0x100 dist/AWS_IOT/production/__pa_temp_4543/atca_command.o
 .debug_ranges  0x00000b98       0x28 build/AWS_IOT/production/mcc_generated_files/CryptoAuthenticationLibrary/atca_device.o
 .debug_ranges  0x00000bc0       0x18 dist/AWS_IOT/production/__pa_temp_4543/atca_execution.o
 .debug_ranges  0x00000bd8       0x60 dist/AWS_IOT/production/__pa_temp_4543/atca_iface.o
 .debug_ranges  0x00000c38       0x18 build/AWS_IOT/production/mcc_generated_files/drivers/spi_master.o
 .debug_ranges  0x00000c50       0xe0 dist/AWS_IOT/production/__pa_temp_4543/timeout.o
 .debug_ranges  0x00000d30       0x68 dist/AWS_IOT/production/__pa_temp_4543/i2c_simple_master.o
 .debug_ranges  0x00000d98       0x38 dist/AWS_IOT/production/__pa_temp_4543/mqtt_comm_layer.o
 .debug_ranges  0x00000dd0       0xb8 dist/AWS_IOT/production/__pa_temp_4543/mqtt_core.o
 .debug_ranges  0x00000e88       0x28 dist/AWS_IOT/production/__pa_temp_4543/mqtt_exchange_buffer.o
 .debug_ranges  0x00000eb0       0x18 build/AWS_IOT/production/mcc_generated_files/mqtt/mqtt_packetTransfer_interface.o
 .debug_ranges  0x00000ec8      0x108 dist/AWS_IOT/production/__pa_temp_4543/mqtt_winc_adapter.o
 .debug_ranges  0x00000fd0       0xc0 dist/AWS_IOT/production/__pa_temp_4543/pin_manager.o
 .debug_ranges  0x00001090       0x10 build/AWS_IOT/production/mcc_generated_files/src/cpuint.o
 .debug_ranges  0x000010a0       0x80 build/AWS_IOT/production/mcc_generated_files/src/spi0.o
 .debug_ranges  0x00001120       0x80 build/AWS_IOT/production/mcc_generated_files/src/rtc.o
 .debug_ranges  0x000011a0      0x1d0 dist/AWS_IOT/production/__pa_temp_4543/twi0_master.o
 .debug_ranges  0x00001370       0x98 build/AWS_IOT/production/mcc_generated_files/src/adc0.o
 .debug_ranges  0x00001408       0xb0 build/AWS_IOT/production/mcc_generated_files/src/usart2.o
 .debug_ranges  0x000014b8       0x88 dist/AWS_IOT/production/__pa_temp_4543/winc_spi.o
 .debug_ranges  0x00001540       0x68 dist/AWS_IOT/production/__pa_temp_4543/winc_adapter.o
 .debug_ranges  0x000015a8       0x58 dist/AWS_IOT/production/__pa_temp_4543/winc_hif.o
 .debug_ranges  0x00001600       0x58 dist/AWS_IOT/production/__pa_temp_4543/winc_asic.o
 .debug_ranges  0x00001658       0x20 dist/AWS_IOT/production/__pa_temp_4543/winc_drv.o
 .debug_ranges  0x00001678       0x50 dist/AWS_IOT/production/__pa_temp_4543/m2m_ssl.o
 .debug_ranges  0x000016c8      0x2a8 dist/AWS_IOT/production/__pa_temp_4543/m2m_wifi.o
 .debug_ranges  0x00001970       0x78 dist/AWS_IOT/production/__pa_temp_4543/m2m_ota.o
 .debug_ranges  0x000019e8       0x18 dist/AWS_IOT/production/__pa_temp_4543/m2m_fwinfo.o
 .debug_ranges  0x00001a00       0xd0 dist/AWS_IOT/production/__pa_temp_4543/socket.o
 .debug_ranges  0x00001ad0       0x50 dist/AWS_IOT/production/__pa_temp_4543/spi_flash.o
 .debug_ranges  0x00001b20       0x40 build/AWS_IOT/production/mcc_generated_files/mcc.o
 .debug_ranges  0x00001b60       0x18 build/AWS_IOT/production/mcc_generated_files/delay.o
 .debug_ranges  0x00001b78       0x78 dist/AWS_IOT/production/__pa_temp_4543/application_manager.o
 .debug_ranges  0x00001bf0       0x28 dist/AWS_IOT/production/__pa_temp_4543/debug_print.o
 .debug_ranges  0x00001c18       0x40 build/AWS_IOT/production/mcc_generated_files/led.o
 .debug_ranges  0x00001c58       0x18 dist/AWS_IOT/production/__pa_temp_4543/sensors_handling.o
 .debug_ranges  0x00001c70       0x60 dist/AWS_IOT/production/__pa_temp_4543/time_service.o
 .debug_ranges  0x00001cd0       0x10 build/AWS_IOT/production/mcc_generated_files/CryptoAuthenticationLibrary/CryptoAuth_init.o
 .debug_ranges  0x00001ce0       0x10 build/AWS_IOT/production/main.o

.debug_macro
 *(.debug_macro)
OUTPUT(dist/AWS_IOT/production/AVRIoT.X.production.elf elf32-avr)
LOAD linker stubs
LOAD data_init

.note.gnu.avr.deviceinfo
                0x00000000       0x40
 .note.gnu.avr.deviceinfo
                0x00000000       0x40 /opt/microchip/mplabx/v5.30/packs/Microchip/ATmega_DFP/2.0.12/gcc/dev/atmega4808/avrxmega3/crtatmega4808.o

.bss.test.6405  0x0080327f        0x1
 .bss.test.6405
                0x0080327f        0x1 dist/AWS_IOT/production/__pa_temp_4543/cli.o

.bss.ateccsn    0x00803243        0x2
 .bss.ateccsn   0x00803243        0x2 dist/AWS_IOT/production/__pa_temp_4543/cli.o

.bss.commandTooLongFlag
                0x00803280        0x1
 .bss.commandTooLongFlag
                0x00803280        0x1 dist/AWS_IOT/production/__pa_temp_4543/cli.o

.bss.index      0x00803281        0x1
 .bss.index     0x00803281        0x1 dist/AWS_IOT/production/__pa_temp_4543/cli.o

.bss.command    0x00802e6b       0x64
 .bss.command   0x00802e6b       0x64 dist/AWS_IOT/production/__pa_temp_4543/cli.o

.bss.g_ecdh_key_slot_index
                0x0080320f        0x4
 .bss.g_ecdh_key_slot_index
                0x0080320f        0x4 dist/AWS_IOT/production/__pa_temp_4543/crypto_client.o

.bss.subscriptionTopicCount.5634
                0x00803282        0x1
 .bss.subscriptionTopicCount.5634
                0x00803282        0x1 dist/AWS_IOT/production/__pa_temp_4543/cloud_service.o

.bss.wifiConnectionStateChangedCallback
                0x00803245        0x2
 .bss.wifiConnectionStateChangedCallback
                0x00803245        0x2 dist/AWS_IOT/production/__pa_temp_4543/wifi_service.o
                0x00803245                wifiConnectionStateChangedCallback

.bss.responseFromProvisionConnect
                0x00803283        0x1
 .bss.responseFromProvisionConnect
                0x00803283        0x1 dist/AWS_IOT/production/__pa_temp_4543/wifi_service.o

.bss.publishRecvInfo
                0x00803247        0x2
 .bss.publishRecvInfo
                0x00803247        0x2 dist/AWS_IOT/production/__pa_temp_4543/mqtt_service.o

.bss._gDevice   0x00803249        0x2
 .bss._gDevice  0x00803249        0x2 dist/AWS_IOT/production/__pa_temp_4543/atca_basic.o
                0x00803249                _gDevice

.bss.i2c_address
                0x00803284        0x1
 .bss.i2c_address
                0x00803284        0x1 dist/AWS_IOT/production/__pa_temp_4543/atca_i2c_hal.o
                0x00803284                i2c_address

.bss.isRunning  0x00803285        0x1
 .bss.isRunning
                0x00803285        0x1 dist/AWS_IOT/production/__pa_temp_4543/timeout.o
                0x00803285                isRunning

.bss.lastTimerLoad
                0x00803217        0x4
 .bss.lastTimerLoad
                0x00803217        0x4 dist/AWS_IOT/production/__pa_temp_4543/timeout.o
                0x00803217                lastTimerLoad

.bss.absoluteTimeofLastTimeout
                0x0080321b        0x4
 .bss.absoluteTimeofLastTimeout
                0x0080321b        0x4 dist/AWS_IOT/production/__pa_temp_4543/timeout.o
                0x0080321b                absoluteTimeofLastTimeout

.bss.executeQueueHead
                0x0080324b        0x2
 .bss.executeQueueHead
                0x0080324b        0x2 dist/AWS_IOT/production/__pa_temp_4543/timeout.o
                0x0080324b                executeQueueHead

.bss.listHead   0x0080324d        0x2
 .bss.listHead  0x0080324d        0x2 dist/AWS_IOT/production/__pa_temp_4543/timeout.o
                0x0080324d                listHead

.bss.lastSentSize
                0x0080324f        0x2
 .bss.lastSentSize
                0x0080324f        0x2 dist/AWS_IOT/production/__pa_temp_4543/mqtt_comm_layer.o

.bss.mqttRxBuff
                0x00802942      0x190
 .bss.mqttRxBuff
                0x00802942      0x190 dist/AWS_IOT/production/__pa_temp_4543/mqtt_comm_layer.o

.bss.mqttTxBuff
                0x00802ad2      0x190
 .bss.mqttTxBuff
                0x00802ad2      0x190 dist/AWS_IOT/production/__pa_temp_4543/mqtt_comm_layer.o

.bss.mqttConn   0x0080310a       0x12
 .bss.mqttConn  0x0080310a       0x12 dist/AWS_IOT/production/__pa_temp_4543/mqtt_comm_layer.o

.bss.mqttState  0x00803287        0x1
 .bss.mqttState
                0x00803287        0x1 dist/AWS_IOT/production/__pa_temp_4543/mqtt_core.o

.bss.lastReceivedLength
                0x00803251        0x2
 .bss.lastReceivedLength
                0x00803251        0x2 dist/AWS_IOT/production/__pa_temp_4543/mqtt_core.o

.bss.lastReceivedPacketHeader
                0x00803288        0x1
 .bss.lastReceivedPacketHeader
                0x00803288        0x1 dist/AWS_IOT/production/__pa_temp_4543/mqtt_core.o

.bss.lastMQTTHandlerState
                0x00803289        0x1
 .bss.lastMQTTHandlerState
                0x00803289        0x1 dist/AWS_IOT/production/__pa_temp_4543/mqtt_core.o

.bss.mqttTimeouts
                0x0080328a        0x1
 .bss.mqttTimeouts
                0x0080328a        0x1 dist/AWS_IOT/production/__pa_temp_4543/mqtt_core.o

.bss.txUnsubscribePacket
                0x00803158        0xd
 .bss.txUnsubscribePacket
                0x00803158        0xd dist/AWS_IOT/production/__pa_temp_4543/mqtt_core.o

.bss.txSubscribePacket
                0x0080313c        0xe
 .bss.txSubscribePacket
                0x0080313c        0xe dist/AWS_IOT/production/__pa_temp_4543/mqtt_core.o

.bss.txPublishPacket
                0x0080312c       0x10
 .bss.txPublishPacket
                0x0080312c       0x10 dist/AWS_IOT/production/__pa_temp_4543/mqtt_core.o

.bss.txConnectPacket
                0x008030b0       0x1d
 .bss.txConnectPacket
                0x008030b0       0x1d dist/AWS_IOT/production/__pa_temp_4543/mqtt_core.o

.bss.mqttRxFlags
                0x0080328b        0x1
 .bss.mqttRxFlags
                0x0080328b        0x1 dist/AWS_IOT/production/__pa_temp_4543/mqtt_core.o

.bss.mqttTxFlags
                0x0080328c        0x1
 .bss.mqttTxFlags
                0x0080328c        0x1 dist/AWS_IOT/production/__pa_temp_4543/mqtt_core.o

.bss.packetRecvInfo
                0x00803253        0x2
 .bss.packetRecvInfo
                0x00803253        0x2 dist/AWS_IOT/production/__pa_temp_4543/mqtt_winc_adapter.o

.bss.bsdErrorNumber
                0x0080328d        0x1
 .bss.bsdErrorNumber
                0x0080328d        0x1 dist/AWS_IOT/production/__pa_temp_4543/mqtt_winc_adapter.o

.bss.PORTF_WAKE_InterruptHandler
                0x00803255        0x2
 .bss.PORTF_WAKE_InterruptHandler
                0x00803255        0x2 dist/AWS_IOT/production/__pa_temp_4543/pin_manager.o

.bss.PORTF_SW1_InterruptHandler
                0x00803257        0x2
 .bss.PORTF_SW1_InterruptHandler
                0x00803257        0x2 dist/AWS_IOT/production/__pa_temp_4543/pin_manager.o

.bss.PORTF_INT_InterruptHandler
                0x00803259        0x2
 .bss.PORTF_INT_InterruptHandler
                0x00803259        0x2 dist/AWS_IOT/production/__pa_temp_4543/pin_manager.o

.bss.PORTF_CE_InterruptHandler
                0x0080325b        0x2
 .bss.PORTF_CE_InterruptHandler
                0x0080325b        0x2 dist/AWS_IOT/production/__pa_temp_4543/pin_manager.o

.bss.PORTF_PF0_InterruptHandler
                0x0080325d        0x2
 .bss.PORTF_PF0_InterruptHandler
                0x0080325d        0x2 dist/AWS_IOT/production/__pa_temp_4543/pin_manager.o

.bss.PORTF_PF1_InterruptHandler
                0x0080325f        0x2
 .bss.PORTF_PF1_InterruptHandler
                0x0080325f        0x2 dist/AWS_IOT/production/__pa_temp_4543/pin_manager.o

.bss.PORTF_SW0_InterruptHandler
                0x00803261        0x2
 .bss.PORTF_SW0_InterruptHandler
                0x00803261        0x2 dist/AWS_IOT/production/__pa_temp_4543/pin_manager.o

.bss.spi0_desc  0x0080328e        0x1
 .bss.spi0_desc
                0x0080328e        0x1 build/AWS_IOT/production/mcc_generated_files/src/spi0.o

.bss.RTC_PIT_isr_cb
                0x00803263        0x2
 .bss.RTC_PIT_isr_cb
                0x00803263        0x2 build/AWS_IOT/production/mcc_generated_files/src/rtc.o
                0x00803263                RTC_PIT_isr_cb

.bss.RTC_CMP_isr_cb
                0x00803265        0x2
 .bss.RTC_CMP_isr_cb
                0x00803265        0x2 build/AWS_IOT/production/mcc_generated_files/src/rtc.o
                0x00803265                RTC_CMP_isr_cb

.bss.RTC_OVF_isr_cb
                0x00803267        0x2
 .bss.RTC_OVF_isr_cb
                0x00803267        0x2 build/AWS_IOT/production/mcc_generated_files/src/rtc.o
                0x00803267                RTC_OVF_isr_cb

.bss.I2C0_status
                0x0080308c       0x24
 .bss.I2C0_status
                0x0080308c       0x24 dist/AWS_IOT/production/__pa_temp_4543/twi0_master.o
                0x0080308c                I2C0_status

.bss.ADC0_window_cb
                0x00803269        0x2
 .bss.ADC0_window_cb
                0x00803269        0x2 build/AWS_IOT/production/mcc_generated_files/src/adc0.o
                0x00803269                ADC0_window_cb

.bss.USART2_tx_elements
                0x0080328f        0x1
 .bss.USART2_tx_elements
                0x0080328f        0x1 build/AWS_IOT/production/mcc_generated_files/src/usart2.o

.bss.USART2_tx_tail
                0x00803290        0x1
 .bss.USART2_tx_tail
                0x00803290        0x1 build/AWS_IOT/production/mcc_generated_files/src/usart2.o

.bss.USART2_tx_head
                0x00803291        0x1
 .bss.USART2_tx_head
                0x00803291        0x1 build/AWS_IOT/production/mcc_generated_files/src/usart2.o

.bss.USART2_txbuf
                0x00802f6f       0x40
 .bss.USART2_txbuf
                0x00802f6f       0x40 build/AWS_IOT/production/mcc_generated_files/src/usart2.o

.bss.USART2_rx_elements
                0x00803292        0x1
 .bss.USART2_rx_elements
                0x00803292        0x1 build/AWS_IOT/production/mcc_generated_files/src/usart2.o

.bss.USART2_rx_tail
                0x00803293        0x1
 .bss.USART2_rx_tail
                0x00803293        0x1 build/AWS_IOT/production/mcc_generated_files/src/usart2.o

.bss.USART2_rx_head
                0x00803294        0x1
 .bss.USART2_rx_head
                0x00803294        0x1 build/AWS_IOT/production/mcc_generated_files/src/usart2.o

.bss.USART2_rxbuf
                0x00802faf       0x40
 .bss.USART2_rxbuf
                0x00802faf       0x40 build/AWS_IOT/production/mcc_generated_files/src/usart2.o

.bss.serviceRequest
                0x00803296        0x1
 .bss.serviceRequest
                0x00803296        0x1 dist/AWS_IOT/production/__pa_temp_4543/winc_adapter.o

.bss.gbChipPwrSave
                0x00803297        0x1
 .bss.gbChipPwrSave
                0x00803297        0x1 dist/AWS_IOT/production/__pa_temp_4543/winc_hif.o

.bss.gu16RxSize
                0x0080326f        0x2
 .bss.gu16RxSize
                0x0080326f        0x2 dist/AWS_IOT/production/__pa_temp_4543/winc_hif.o

.bss.gu32RxAddr
                0x00803223        0x4
 .bss.gu32RxAddr
                0x00803223        0x4 dist/AWS_IOT/production/__pa_temp_4543/winc_hif.o

.bss.gu8ChipSleep
                0x00803298        0x1
 .bss.gu8ChipSleep
                0x00803298        0x1 dist/AWS_IOT/production/__pa_temp_4543/winc_hif.o

.bss.gu32ChipID.3383
                0x00803227        0x4
 .bss.gu32ChipID.3383
                0x00803227        0x4 dist/AWS_IOT/production/__pa_temp_4543/winc_asic.o

.bss.gu32HIFAddr
                0x0080322b        0x4
 .bss.gu32HIFAddr
                0x0080322b        0x4 dist/AWS_IOT/production/__pa_temp_4543/m2m_ssl.o

.bss.gpfAppSSLCb
                0x00803271        0x2
 .bss.gpfAppSSLCb
                0x00803271        0x2 dist/AWS_IOT/production/__pa_temp_4543/m2m_ssl.o

.bss.gu8scanInProgress
                0x0080329a        0x1
 .bss.gu8scanInProgress
                0x0080329a        0x1 dist/AWS_IOT/production/__pa_temp_4543/m2m_wifi.o

.bss.gpfAppWifiCb
                0x00803273        0x2
 .bss.gpfAppWifiCb
                0x00803273        0x2 dist/AWS_IOT/production/__pa_temp_4543/m2m_wifi.o

.bss.gu8WifiState
                0x0080329b        0x1
 .bss.gu8WifiState
                0x0080329b        0x1 dist/AWS_IOT/production/__pa_temp_4543/m2m_wifi.o

.bss.gu8ChNum   0x0080329c        0x1
 .bss.gu8ChNum  0x0080329c        0x1 dist/AWS_IOT/production/__pa_temp_4543/m2m_wifi.o

.bss.u8NextUdpSock.3538
                0x0080329d        0x1
 .bss.u8NextUdpSock.3538
                0x0080329d        0x1 dist/AWS_IOT/production/__pa_temp_4543/socket.o

.bss.u8NextTcpSock.3537
                0x0080329e        0x1
 .bss.u8NextTcpSock.3537
                0x0080329e        0x1 dist/AWS_IOT/production/__pa_temp_4543/socket.o

.bss.gu32PingId
                0x0080322f        0x4
 .bss.gu32PingId
                0x0080322f        0x4 dist/AWS_IOT/production/__pa_temp_4543/socket.o

.bss.gfpPingCb  0x00803275        0x2
 .bss.gfpPingCb
                0x00803275        0x2 dist/AWS_IOT/production/__pa_temp_4543/socket.o

.bss.gbSocketInit
                0x0080329f        0x1
 .bss.gbSocketInit
                0x0080329f        0x1 dist/AWS_IOT/production/__pa_temp_4543/socket.o

.bss.gpfAppResolveCb
                0x00803277        0x2
 .bss.gpfAppResolveCb
                0x00803277        0x2 dist/AWS_IOT/production/__pa_temp_4543/socket.o

.bss.gpfAppSocketCb
                0x00803279        0x2
 .bss.gpfAppSocketCb
                0x00803279        0x2 dist/AWS_IOT/production/__pa_temp_4543/socket.o

.bss.gu16SessionID
                0x0080327b        0x2
 .bss.gu16SessionID
                0x0080327b        0x2 dist/AWS_IOT/production/__pa_temp_4543/socket.o

.bss.gastrSockets
                0x00802df2       0x79
 .bss.gastrSockets
                0x00802df2       0x79 dist/AWS_IOT/production/__pa_temp_4543/socket.o

.bss.json.7003  0x00802c62       0xc8
 .bss.json.7003
                0x00802c62       0xc8 dist/AWS_IOT/production/__pa_temp_4543/application_manager.o

.bss.publishMqttTopic.7004
                0x00802ecf       0x50
 .bss.publishMqttTopic.7004
                0x00802ecf       0x50 dist/AWS_IOT/production/__pa_temp_4543/application_manager.o

.bss.previousTransmissionTime.7033
                0x00803233        0x4
 .bss.previousTransmissionTime.7033
                0x00803233        0x4 dist/AWS_IOT/production/__pa_temp_4543/application_manager.o

.bss.previousTime.7018
                0x00803237        0x4
 .bss.previousTime.7018
                0x00803237        0x4 dist/AWS_IOT/production/__pa_temp_4543/application_manager.o

.bss.payload.7023
                0x00802d2a       0xc8
 .bss.payload.7023
                0x00802d2a       0xc8 dist/AWS_IOT/production/__pa_temp_4543/application_manager.o

.bss.topic.7024
                0x00802f1f       0x50
 .bss.topic.7024
                0x00802f1f       0x50 dist/AWS_IOT/production/__pa_temp_4543/application_manager.o

.bss.holdCount  0x008032a0        0x1
 .bss.holdCount
                0x008032a0        0x1 dist/AWS_IOT/production/__pa_temp_4543/application_manager.o

.bss.toggleState
                0x008032a1        0x1
 .bss.toggleState
                0x008032a1        0x1 dist/AWS_IOT/production/__pa_temp_4543/application_manager.o

.bss.debug_severity_filter
                0x008032a2        0x1
 .bss.debug_severity_filter
                0x008032a2        0x1 dist/AWS_IOT/production/__pa_temp_4543/debug_print.o

.bss.blueTicker
                0x008032a7        0x1
 .bss.blueTicker
                0x008032a7        0x1 build/AWS_IOT/production/mcc_generated_files/led.o

.bss.greenTicker
                0x008032a8        0x1
 .bss.greenTicker
                0x008032a8        0x1 build/AWS_IOT/production/mcc_generated_files/led.o

.bss.yellowTicker
                0x008032a9        0x1
 .bss.yellowTicker
                0x008032a9        0x1 build/AWS_IOT/production/mcc_generated_files/led.o

.bss.redTicker  0x008032aa        0x1
 .bss.redTicker
                0x008032aa        0x1 build/AWS_IOT/production/mcc_generated_files/led.o

.bss.blueLed_2SecLoop
                0x008032ab        0x1
 .bss.blueLed_2SecLoop
                0x008032ab        0x1 build/AWS_IOT/production/mcc_generated_files/led.o

.bss.greenLed_2SecLoop
                0x008032ac        0x1
 .bss.greenLed_2SecLoop
                0x008032ac        0x1 build/AWS_IOT/production/mcc_generated_files/led.o

.bss.yellowLed_2SecLoop
                0x008032ad        0x1
 .bss.yellowLed_2SecLoop
                0x008032ad        0x1 build/AWS_IOT/production/mcc_generated_files/led.o

.bss.redLed_2SecLoop
                0x008032ae        0x1
 .bss.redLed_2SecLoop
                0x008032ae        0x1 build/AWS_IOT/production/mcc_generated_files/led.o

.bss.stampTime  0x0080323b        0x4
 .bss.stampTime
                0x0080323b        0x4 dist/AWS_IOT/production/__pa_temp_4543/time_service.o

.bss.currentTime
                0x0080323f        0x4
 .bss.currentTime
                0x0080323f        0x4 dist/AWS_IOT/production/__pa_temp_4543/time_service.o

.bss            0x0080327d        0x2
 .bss           0x0080327d        0x2 /opt/microchip/xc8/v2.10/avr/bin/../lib/gcc/avr/5.4.0/../../../../avr/lib/avrxmega3/libc.a(strtok.o)

.data.mqqtSocket
                0x00803286        0x1 load address 0x00000add
 .data.mqqtSocket
                0x00803286        0x1 dist/AWS_IOT/production/__pa_temp_4543/mqtt_comm_layer.o

.text.MQTT_TransmissionHandler
                0x00000ade      0x4a4
 .text.MQTT_TransmissionHandler
                0x00000ade      0x4a4 dist/AWS_IOT/production/__pa_temp_4543/mqtt_core.o
                0x00000ade                MQTT_TransmissionHandler

.text.m2m_ip_cb
                0x00000f82      0x44a
 .text.m2m_ip_cb
                0x00000f82      0x44a dist/AWS_IOT/production/__pa_temp_4543/socket.o
                0x00000f82                m2m_ip_cb

.text.avrlibc   0x000013cc      0x3c2
 .text.avrlibc  0x000013cc      0x3c2 /opt/microchip/xc8/v2.10/avr/bin/../lib/gcc/avr/5.4.0/../../../../avr/lib/avrxmega3/libc.a(vfprintf_std.o)
                0x000013cc                vfprintf

.text.MQTT_ReceptionHandler
                0x0000178e      0x374
 .text.MQTT_ReceptionHandler
                0x0000178e      0x374 dist/AWS_IOT/production/__pa_temp_4543/mqtt_core.o
                0x0000178e                MQTT_ReceptionHandler

.text.cloudTask
                0x00001b02      0x22e
 .text.cloudTask
                0x00001b02      0x22e dist/AWS_IOT/production/__pa_temp_4543/cloud_service.o
                0x00001b02                cloudTask

.text.m2m_ssl_retrieve_cert
                0x00001d30      0x21a
 .text.m2m_ssl_retrieve_cert
                0x00001d30      0x21a dist/AWS_IOT/production/__pa_temp_4543/m2m_ssl.o
                0x00001d30                m2m_ssl_retrieve_cert

.text.LED_service
                0x00001f4a      0x20a
 .text.LED_service
                0x00001f4a      0x20a build/AWS_IOT/production/mcc_generated_files/led.o

.text.application_init
                0x00002154      0x1de
 .text.application_init
                0x00002154      0x1de dist/AWS_IOT/production/__pa_temp_4543/application_manager.o
                0x00002154                application_init

.text.winc_hif_send
                0x00002332      0x1c0
 .text.winc_hif_send
                0x00002332      0x1c0 dist/AWS_IOT/production/__pa_temp_4543/winc_hif.o
                0x00002332                winc_hif_send

.text.winc_chip_init
                0x000024f2      0x1c0
 .text.winc_chip_init
                0x000024f2      0x1c0 dist/AWS_IOT/production/__pa_temp_4543/winc_asic.o
                0x000024f2                winc_chip_init

.text.wifiCallback
                0x000026b2      0x1a8
 .text.wifiCallback
                0x000026b2      0x1a8 dist/AWS_IOT/production/__pa_temp_4543/wifi_service.o

.text.mqttProcessPublish
                0x0000285a      0x1a2
 .text.mqttProcessPublish
                0x0000285a      0x1a2 dist/AWS_IOT/production/__pa_temp_4543/mqtt_core.o

.text           0x000029fc      0x18e
 .text          0x000029fc      0x18e /opt/microchip/xc8/v2.10/avr/bin/../lib/gcc/avr/5.4.0/../../../../avr/lib/avrxmega3/libc.a(gmtime_r.o)
                0x000029fc                gmtime_r

.text.set_wifi_auth
                0x00002b8a      0x180
 .text.set_wifi_auth
                0x00002b8a      0x180 dist/AWS_IOT/production/__pa_temp_4543/cli.o

.text.atcab_read_bytes_zone
                0x00002d0a      0x17e
 .text.atcab_read_bytes_zone
                0x00002d0a      0x17e dist/AWS_IOT/production/__pa_temp_4543/atca_basic_read.o
                0x00002d0a                atcab_read_bytes_zone

.text.MAIN_dataTask
                0x00002e88      0x166
 .text.MAIN_dataTask
                0x00002e88      0x166 dist/AWS_IOT/production/__pa_temp_4543/application_manager.o
                0x00002e88                MAIN_dataTask

.text           0x00002fee      0x156
 .text          0x00002fee      0x156 /opt/microchip/xc8/v2.10/avr/bin/../lib/gcc/avr/5.4.0/../../../../avr/lib/avrxmega3/libc.a(mk_gmtime.o)
                0x00002fee                mk_gmtime

.text.m2m_wifi_connect_1x_mschap2
                0x00003144      0x14c
 .text.m2m_wifi_connect_1x_mschap2
                0x00003144      0x14c dist/AWS_IOT/production/__pa_temp_4543/m2m_wifi.o
                0x00003144                m2m_wifi_connect_1x_mschap2

.text.CLI_task  0x00003290      0x146
 .text.CLI_task
                0x00003290      0x146 dist/AWS_IOT/production/__pa_temp_4543/cli.o
                0x00003290                CLI_task

.text.MQTT_CreateConnectPacket
                0x000033d6      0x132
 .text.MQTT_CreateConnectPacket
                0x000033d6      0x132 dist/AWS_IOT/production/__pa_temp_4543/mqtt_core.o
                0x000033d6                MQTT_CreateConnectPacket

.text.PIN_MANAGER_Initialize
                0x00003508      0x12c
 .text.PIN_MANAGER_Initialize
                0x00003508      0x12c dist/AWS_IOT/production/__pa_temp_4543/pin_manager.o
                0x00003508                PIN_MANAGER_Initialize

.text.m2m_ssl_cb
                0x00003634      0x12c
 .text.m2m_ssl_cb
                0x00003634      0x12c dist/AWS_IOT/production/__pa_temp_4543/m2m_ssl.o
                0x00003634                m2m_ssl_cb

.text.winc_hif_handle_isr
                0x00003760      0x126
 .text.winc_hif_handle_isr
                0x00003760      0x126 dist/AWS_IOT/production/__pa_temp_4543/winc_hif.o
                0x00003760                winc_hif_handle_isr

.text.m2m_wifi_connect_sc
                0x00003886      0x126
 .text.m2m_wifi_connect_sc
                0x00003886      0x126 dist/AWS_IOT/production/__pa_temp_4543/m2m_wifi.o
                0x00003886                m2m_wifi_connect_sc

.text.CRYPTO_CLIENT_processEccRequest
                0x000039ac      0x122
 .text.CRYPTO_CLIENT_processEccRequest
                0x000039ac      0x122 dist/AWS_IOT/production/__pa_temp_4543/crypto_client.o
                0x000039ac                CRYPTO_CLIENT_processEccRequest

.text.m2m_wifi_cb
                0x00003ace      0x10a
 .text.m2m_wifi_cb
                0x00003ace      0x10a dist/AWS_IOT/production/__pa_temp_4543/m2m_wifi.o
                0x00003ace                m2m_wifi_cb

.text.socket    0x00003bd8      0x10a
 .text.socket   0x00003bd8      0x10a dist/AWS_IOT/production/__pa_temp_4543/socket.o
                0x00003bd8                socket

.text.winc_chip_get_id
                0x00003ce2      0x104
 .text.winc_chip_get_id
                0x00003ce2      0x104 dist/AWS_IOT/production/__pa_temp_4543/winc_asic.o
                0x00003ce2                winc_chip_get_id

.text.spi_flash_read_internal
                0x00003de6      0x104
 .text.spi_flash_read_internal
                0x00003de6      0x104 dist/AWS_IOT/production/__pa_temp_4543/spi_flash.o

.text.MQTT_CreatePublishPacket
                0x00003eea       0xfa
 .text.MQTT_CreatePublishPacket
                0x00003eea       0xfa dist/AWS_IOT/production/__pa_temp_4543/mqtt_core.o
                0x00003eea                MQTT_CreatePublishPacket

.text.m2m_wifi_connect_psk
                0x00003fe4       0xf0
 .text.m2m_wifi_connect_psk
                0x00003fe4       0xf0 dist/AWS_IOT/production/__pa_temp_4543/m2m_wifi.o
                0x00003fe4                m2m_wifi_connect_psk

.text.ecdsa_process_sign_verify_request
                0x000040d4       0xec
 .text.ecdsa_process_sign_verify_request
                0x000040d4       0xec dist/AWS_IOT/production/__pa_temp_4543/crypto_client.o
                0x000040d4                ecdsa_process_sign_verify_request

.text.CLOUD_connectSocket
                0x000041c0       0xea
 .text.CLOUD_connectSocket
                0x000041c0       0xea dist/AWS_IOT/production/__pa_temp_4543/aws_cloud_service.o
                0x000041c0                CLOUD_connectSocket

.text.atca_execute_command
                0x000042aa       0xe8
 .text.atca_execute_command
                0x000042aa       0xe8 dist/AWS_IOT/production/__pa_temp_4543/atca_execution.o
                0x000042aa                atca_execute_command

.text.winc_bus_write_block
                0x00004392       0xe8
 .text.winc_bus_write_block
                0x00004392       0xe8 dist/AWS_IOT/production/__pa_temp_4543/winc_spi.o
                0x00004392                winc_bus_write_block

.text.atcab_verify
                0x0000447a       0xde
 .text.atcab_verify
                0x0000447a       0xde dist/AWS_IOT/production/__pa_temp_4543/atca_basic_verify.o
                0x0000447a                atcab_verify

.text.sortedInsert
                0x00004558       0xd8
 .text.sortedInsert
                0x00004558       0xd8 dist/AWS_IOT/production/__pa_temp_4543/timeout.o
                0x00004558                sortedInsert

.text.ecdh_derive_client_shared_secret
                0x00004630       0xd4
 .text.ecdh_derive_client_shared_secret
                0x00004630       0xd4 dist/AWS_IOT/production/__pa_temp_4543/crypto_client.o
                0x00004630                ecdh_derive_client_shared_secret

.text.receivedFromCloud
                0x00004704       0xce
 .text.receivedFromCloud
                0x00004704       0xce dist/AWS_IOT/production/__pa_temp_4543/application_manager.o

.text.m2m_wifi_connect_prepare_msg
                0x000047d2       0xc6
 .text.m2m_wifi_connect_prepare_msg
                0x000047d2       0xc6 dist/AWS_IOT/production/__pa_temp_4543/m2m_wifi.o

.text.atcab_read_zone
                0x00004898       0xc2
 .text.atcab_read_zone
                0x00004898       0xc2 dist/AWS_IOT/production/__pa_temp_4543/atca_basic_read.o
                0x00004898                atcab_read_zone

.text.cloudResetTask
                0x0000495a       0xbe
 .text.cloudResetTask
                0x0000495a       0xbe dist/AWS_IOT/production/__pa_temp_4543/cloud_service.o
                0x0000495a                cloudResetTask

.text.BSD_SocketHandler
                0x00004a18       0xbc
 .text.BSD_SocketHandler
                0x00004a18       0xbc dist/AWS_IOT/production/__pa_temp_4543/mqtt_winc_adapter.o
                0x00004a18                BSD_SocketHandler

.text.avrlibc   0x00004ad4       0xbc
 .text.avrlibc  0x00004ad4       0xbc /opt/microchip/xc8/v2.10/avr/bin/../lib/gcc/avr/5.4.0/../../../../avr/lib/avrxmega3/libc.a(ultoa_invert.o)
                0x00004ad4                __ultoa_invert

.text.BSD_connect
                0x00004b90       0xb4
 .text.BSD_connect
                0x00004b90       0xb4 dist/AWS_IOT/production/__pa_temp_4543/mqtt_winc_adapter.o
                0x00004b90                BSD_connect

.text.LED_test  0x00004c44       0xb2
 .text.LED_test
                0x00004c44       0xb2 build/AWS_IOT/production/mcc_generated_files/led.o
                0x00004c44                LED_test

.text           0x00004cf6       0xb2
 .text          0x00004cf6       0xb2 /opt/microchip/xc8/v2.10/avr/bin/../lib/gcc/avr/5.4.0/../../../../avr/lib/avrxmega3/libc.a(mktime.o)
                0x00004cf6                mktime

.text.send      0x00004da8       0xac
 .text.send     0x00004da8       0xac dist/AWS_IOT/production/__pa_temp_4543/socket.o
                0x00004da8                send

.text.__vector_29
                0x00004e54       0xaa
 .text.__vector_29
                0x00004e54       0xaa dist/AWS_IOT/production/__pa_temp_4543/pin_manager.o
                0x00004e54                __vector_29

.text.winc_bus_read_block
                0x00004efe       0xa8
 .text.winc_bus_read_block
                0x00004efe       0xa8 dist/AWS_IOT/production/__pa_temp_4543/winc_spi.o
                0x00004efe                winc_bus_read_block

.text.m2m_fwinfo_get_firmware_info
                0x00004fa6       0xa8
 .text.m2m_fwinfo_get_firmware_info
                0x00004fa6       0xa8 dist/AWS_IOT/production/__pa_temp_4543/m2m_fwinfo.o
                0x00004fa6                m2m_fwinfo_get_firmware_info

.text.I2C0_DO_RX
                0x0000504e       0xa4
 .text.I2C0_DO_RX
                0x0000504e       0xa4 dist/AWS_IOT/production/__pa_temp_4543/twi0_master.o

.text.atcab_ecdh_base
                0x000050f2       0xa2
 .text.atcab_ecdh_base
                0x000050f2       0xa2 dist/AWS_IOT/production/__pa_temp_4543/atca_basic_ecdh.o
                0x000050f2                atcab_ecdh_base

.text.startTimerAtHead
                0x00005194       0xa2
 .text.startTimerAtHead
                0x00005194       0xa2 dist/AWS_IOT/production/__pa_temp_4543/timeout.o
                0x00005194                startTimerAtHead

.text.m2m_wifi_start_provision_mode_ext
                0x00005236       0xa0
 .text.m2m_wifi_start_provision_mode_ext
                0x00005236       0xa0 dist/AWS_IOT/production/__pa_temp_4543/m2m_wifi.o
                0x00005236                m2m_wifi_start_provision_mode_ext

.text.enable_provision_ap
                0x000052d6       0x9e
 .text.enable_provision_ap
                0x000052d6       0x9e dist/AWS_IOT/production/__pa_temp_4543/wifi_service.o
                0x000052d6                enable_provision_ap

.text.atcab_nonce_base
                0x00005374       0x9e
 .text.atcab_nonce_base
                0x00005374       0x9e dist/AWS_IOT/production/__pa_temp_4543/atca_basic_nonce.o
                0x00005374                atcab_nonce_base

.text.m2m_wifi_connect_wep
                0x00005412       0x9c
 .text.m2m_wifi_connect_wep
                0x00005412       0x9c dist/AWS_IOT/production/__pa_temp_4543/m2m_wifi.o
                0x00005412                m2m_wifi_connect_wep

.text.manageSubscriptionMessage
                0x000054ae       0x98
 .text.manageSubscriptionMessage
                0x000054ae       0x98 dist/AWS_IOT/production/__pa_temp_4543/mqtt_service.o

.text.atGetExecTime
                0x00005546       0x98
 .text.atGetExecTime
                0x00005546       0x98 dist/AWS_IOT/production/__pa_temp_4543/atca_execution.o
                0x00005546                atGetExecTime

.text.recv      0x000055de       0x98
 .text.recv     0x000055de       0x98 dist/AWS_IOT/production/__pa_temp_4543/socket.o
                0x000055de                recv

.text.atcab_verify_extern
                0x00005676       0x96
 .text.atcab_verify_extern
                0x00005676       0x96 dist/AWS_IOT/production/__pa_temp_4543/atca_basic_verify.o
                0x00005676                atcab_verify_extern

.text.atcab_genkey_base
                0x0000570c       0x94
 .text.atcab_genkey_base
                0x0000570c       0x94 dist/AWS_IOT/production/__pa_temp_4543/atca_basic_genkey.o
                0x0000570c                atcab_genkey_base

.text.atcab_init
                0x000057a0       0x92
 .text.atcab_init
                0x000057a0       0x92 dist/AWS_IOT/production/__pa_temp_4543/atca_basic.o
                0x000057a0                atcab_init

.text.I2C0_Open
                0x00005832       0x92
 .text.I2C0_Open
                0x00005832       0x92 dist/AWS_IOT/production/__pa_temp_4543/twi0_master.o
                0x00005832                I2C0_Open

.text.readThingIdFromWinc
                0x000058c4       0x8e
 .text.readThingIdFromWinc
                0x000058c4       0x8e dist/AWS_IOT/production/__pa_temp_4543/wifi_service.o
                0x000058c4                readThingIdFromWinc

.text.winc_bus_clear_reg_bits
                0x00005952       0x8c
 .text.winc_bus_clear_reg_bits
                0x00005952       0x8c dist/AWS_IOT/production/__pa_temp_4543/winc_spi.o
                0x00005952                winc_bus_clear_reg_bits

.text.m2m_validate_ap_parameters
                0x000059de       0x8a
 .text.m2m_validate_ap_parameters
                0x000059de       0x8a dist/AWS_IOT/production/__pa_temp_4543/m2m_wifi.o

.text.MQTT_ExchangeBufferWrite
                0x00005a68       0x86
 .text.MQTT_ExchangeBufferWrite
                0x00005a68       0x86 dist/AWS_IOT/production/__pa_temp_4543/mqtt_exchange_buffer.o
                0x00005a68                MQTT_ExchangeBufferWrite

.text.spi_flash_read
                0x00005aee       0x86
 .text.spi_flash_read
                0x00005aee       0x86 dist/AWS_IOT/production/__pa_temp_4543/spi_flash.o
                0x00005aee                spi_flash_read

.text           0x00005b74       0x84
 .text          0x00005b74       0x84 /opt/microchip/xc8/v2.10/avr/bin/../lib/gcc/avr/5.4.0/../../../../avr/lib/avrxmega3/libc.a(localtime_r.o)
                0x00005b74                localtime_r

.text.ecdh_derive_key_pair
                0x00005bf8       0x82
 .text.ecdh_derive_key_pair
                0x00005bf8       0x82 dist/AWS_IOT/production/__pa_temp_4543/crypto_client.o
                0x00005bf8                ecdh_derive_key_pair

.text.winc_adapter_spi_write
                0x00005c7a       0x82
 .text.winc_adapter_spi_write
                0x00005c7a       0x82 dist/AWS_IOT/production/__pa_temp_4543/winc_adapter.o
                0x00005c7a                winc_adapter_spi_write

.text.winc_adapter_spi_read
                0x00005cfc       0x82
 .text.winc_adapter_spi_read
                0x00005cfc       0x82 dist/AWS_IOT/production/__pa_temp_4543/winc_adapter.o
                0x00005cfc                winc_adapter_spi_read

.text.CRYPTO_CLIENT_printSerialNumber
                0x00005d7e       0x80
 .text.CRYPTO_CLIENT_printSerialNumber
                0x00005d7e       0x80 dist/AWS_IOT/production/__pa_temp_4543/crypto_client.o
                0x00005d7e                CRYPTO_CLIENT_printSerialNumber

.text.updateDeviceShadow
                0x00005dfe       0x80
 .text.updateDeviceShadow
                0x00005dfe       0x80 dist/AWS_IOT/production/__pa_temp_4543/application_manager.o

.text.MQTT_CreateSubscribePacket
                0x00005e7e       0x7e
 .text.MQTT_CreateSubscribePacket
                0x00005e7e       0x7e dist/AWS_IOT/production/__pa_temp_4543/mqtt_core.o
                0x00005e7e                MQTT_CreateSubscribePacket

.text.winc_bus_set_reg_bits
                0x00005efc       0x7e
 .text.winc_bus_set_reg_bits
                0x00005efc       0x7e dist/AWS_IOT/production/__pa_temp_4543/winc_spi.o
                0x00005efc                winc_bus_set_reg_bits

.text.close     0x00005f7a       0x7e
 .text.close    0x00005f7a       0x7e dist/AWS_IOT/production/__pa_temp_4543/socket.o
                0x00005f7a                close

.text.hal_check_wake
                0x00005ff8       0x7c
 .text.hal_check_wake
                0x00005ff8       0x7c dist/AWS_IOT/production/__pa_temp_4543/atca_hal.o
                0x00005ff8                hal_check_wake

.text.makeAbsolute
                0x00006074       0x7c
 .text.makeAbsolute
                0x00006074       0x7c dist/AWS_IOT/production/__pa_temp_4543/timeout.o
                0x00006074                makeAbsolute

.text.atcab_random
                0x000060f0       0x78
 .text.atcab_random
                0x000060f0       0x78 dist/AWS_IOT/production/__pa_temp_4543/atca_basic_random.o
                0x000060f0                atcab_random

.text.debug_printer
                0x00006168       0x78
 .text.debug_printer
                0x00006168       0x78 dist/AWS_IOT/production/__pa_temp_4543/debug_print.o
                0x00006168                debug_printer

.text.atcab_sign_base
                0x000061e0       0x76
 .text.atcab_sign_base
                0x000061e0       0x76 dist/AWS_IOT/production/__pa_temp_4543/atca_basic_sign.o
                0x000061e0                atcab_sign_base

.text.atcab_sign
                0x00006256       0x76
 .text.atcab_sign
                0x00006256       0x76 dist/AWS_IOT/production/__pa_temp_4543/atca_basic_sign.o
                0x00006256                atcab_sign

.text.__vector_3
                0x000062cc       0x76
 .text.__vector_3
                0x000062cc       0x76 build/AWS_IOT/production/mcc_generated_files/src/rtc.o
                0x000062cc                __vector_3

.text.spi_read_reg
                0x00006342       0x76
 .text.spi_read_reg
                0x00006342       0x76 dist/AWS_IOT/production/__pa_temp_4543/winc_spi.o

.text.atcab_get_zone_size
                0x000063b8       0x74
 .text.atcab_get_zone_size
                0x000063b8       0x74 dist/AWS_IOT/production/__pa_temp_4543/atca_basic.o
                0x000063b8                atcab_get_zone_size

.text.timeout_deleteHelper
                0x0000642c       0x74
 .text.timeout_deleteHelper
                0x0000642c       0x74 dist/AWS_IOT/production/__pa_temp_4543/timeout.o
                0x0000642c                timeout_deleteHelper

.text.winc_hif_receive
                0x000064a0       0x74
 .text.winc_hif_receive
                0x000064a0       0x74 dist/AWS_IOT/production/__pa_temp_4543/winc_hif.o
                0x000064a0                winc_hif_receive

.text.hal_i2c_receive
                0x00006514       0x72
 .text.hal_i2c_receive
                0x00006514       0x72 dist/AWS_IOT/production/__pa_temp_4543/atca_i2c_hal.o
                0x00006514                hal_i2c_receive

.text.avrlibc   0x00006586       0x70
 .text.avrlibc  0x00006586       0x70 dist/AWS_IOT/production/__pa_temp_4543/libc_a_fputc.o
                0x00006586                fputc

.text.MQTT_Disconnect
                0x000065f6       0x70
 .text.MQTT_Disconnect
                0x000065f6       0x70 dist/AWS_IOT/production/__pa_temp_4543/mqtt_core.o
                0x000065f6                MQTT_Disconnect

.text.I2C0_DO_TX
                0x00006666       0x70
 .text.I2C0_DO_TX
                0x00006666       0x70 dist/AWS_IOT/production/__pa_temp_4543/twi0_master.o

.text.ecdsa_process_sign_gen_request
                0x000066d6       0x6e
 .text.ecdsa_process_sign_gen_request
                0x000066d6       0x6e dist/AWS_IOT/production/__pa_temp_4543/crypto_client.o
                0x000066d6                ecdsa_process_sign_gen_request

.text.rebaseList
                0x00006744       0x6e
 .text.rebaseList
                0x00006744       0x6e dist/AWS_IOT/production/__pa_temp_4543/timeout.o
                0x00006744                rebaseList

.text.timeout_callNextCallback
                0x000067b2       0x6e
 .text.timeout_callNextCallback
                0x000067b2       0x6e dist/AWS_IOT/production/__pa_temp_4543/timeout.o
                0x000067b2                timeout_callNextCallback

.text.winc_drv_init
                0x00006820       0x6e
 .text.winc_drv_init
                0x00006820       0x6e dist/AWS_IOT/production/__pa_temp_4543/winc_drv.o
                0x00006820                winc_drv_init

.text.connect   0x0000688e       0x6e
 .text.connect  0x0000688e       0x6e dist/AWS_IOT/production/__pa_temp_4543/socket.o
                0x0000688e                connect

.text.atcab_read_serial_number
                0x000068fc       0x6c
 .text.atcab_read_serial_number
                0x000068fc       0x6c dist/AWS_IOT/production/__pa_temp_4543/atca_basic_read.o
                0x000068fc                atcab_read_serial_number

.text.timeout_create
                0x00006968       0x6a
 .text.timeout_create
                0x00006968       0x6a dist/AWS_IOT/production/__pa_temp_4543/timeout.o
                0x00006968                timeout_create

.text.BSD_recv  0x000069d2       0x68
 .text.BSD_recv
                0x000069d2       0x68 dist/AWS_IOT/production/__pa_temp_4543/mqtt_winc_adapter.o
                0x000069d2                BSD_recv

.text.m2m_fwinfo_version_check
                0x00006a3a       0x68
 .text.m2m_fwinfo_version_check
                0x00006a3a       0x68 dist/AWS_IOT/production/__pa_temp_4543/m2m_fwinfo.o
                0x00006a3a                m2m_fwinfo_version_check

.text.ntpTimeFetchTask
                0x00006aa2       0x66
 .text.ntpTimeFetchTask
                0x00006aa2       0x66 dist/AWS_IOT/production/__pa_temp_4543/wifi_service.o
                0x00006aa2                ntpTimeFetchTask

.text.wifi_reinit
                0x00006b08       0x66
 .text.wifi_reinit
                0x00006b08       0x66 dist/AWS_IOT/production/__pa_temp_4543/wifi_service.o
                0x00006b08                wifi_reinit

.text.BSD_send  0x00006b6e       0x66
 .text.BSD_send
                0x00006b6e       0x66 dist/AWS_IOT/production/__pa_temp_4543/mqtt_winc_adapter.o
                0x00006b6e                BSD_send

.text.winc_chip_wake
                0x00006bd4       0x66
 .text.winc_chip_wake
                0x00006bd4       0x66 dist/AWS_IOT/production/__pa_temp_4543/winc_asic.o
                0x00006bd4                winc_chip_wake

.text._atinit   0x00006c3a       0x62
 .text._atinit  0x00006c3a       0x62 dist/AWS_IOT/production/__pa_temp_4543/atca_iface.o
                0x00006c3a                _atinit

.text.i2c_read2ByteRegister
                0x00006c9c       0x62
 .text.i2c_read2ByteRegister
                0x00006c9c       0x62 dist/AWS_IOT/production/__pa_temp_4543/i2c_simple_master.o
                0x00006c9c                i2c_read2ByteRegister

.text.PORT_Initialize
                0x00006cfe       0x62
 .text.PORT_Initialize
                0x00006cfe       0x62 dist/AWS_IOT/production/__pa_temp_4543/pin_manager.o
                0x00006cfe                PORT_Initialize

.text.winc_bus_write_reg
                0x00006d60       0x62
 .text.winc_bus_write_reg
                0x00006d60       0x62 dist/AWS_IOT/production/__pa_temp_4543/winc_spi.o
                0x00006d60                winc_bus_write_reg

.text.m2m_wifi_init_start
                0x00006dc2       0x62
 .text.m2m_wifi_init_start
                0x00006dc2       0x62 dist/AWS_IOT/production/__pa_temp_4543/m2m_wifi.o
                0x00006dc2                m2m_wifi_init_start

.text.hal_i2c_wake
                0x00006e24       0x60
 .text.hal_i2c_wake
                0x00006e24       0x60 dist/AWS_IOT/production/__pa_temp_4543/atca_i2c_hal.o
                0x00006e24                hal_i2c_wake

.text.m2m_wifi_configure_sntp
                0x00006e84       0x5e
 .text.m2m_wifi_configure_sntp
                0x00006e84       0x5e dist/AWS_IOT/production/__pa_temp_4543/m2m_wifi.o
                0x00006e84                m2m_wifi_configure_sntp

.text.TIME_ntpTimeStamp
                0x00006ee2       0x5e
 .text.TIME_ntpTimeStamp
                0x00006ee2       0x5e dist/AWS_IOT/production/__pa_temp_4543/time_service.o
                0x00006ee2                TIME_ntpTimeStamp

.text.avrlibc   0x00006f40       0x5c
 .text.avrlibc  0x00006f40       0x5c dist/AWS_IOT/production/__pa_temp_4543/libc_a_puts.o
                0x00006f40                puts

.text.atinit    0x00006f9c       0x5c
 .text.atinit   0x00006f9c       0x5c dist/AWS_IOT/production/__pa_temp_4543/atca_iface.o
                0x00006f9c                atinit

.text.setTimerDuration
                0x00006ff8       0x5c
 .text.setTimerDuration
                0x00006ff8       0x5c dist/AWS_IOT/production/__pa_temp_4543/timeout.o
                0x00006ff8                setTimerDuration

.text.I2C0_DO_TX_EMPTY
                0x00007054       0x5c
 .text.I2C0_DO_TX_EMPTY
                0x00007054       0x5c dist/AWS_IOT/production/__pa_temp_4543/twi0_master.o

.text.atCRC     0x000070b0       0x5a
 .text.atCRC    0x000070b0       0x5a dist/AWS_IOT/production/__pa_temp_4543/atca_command.o
                0x000070b0                atCRC

.text.atCheckCrc
                0x0000710a       0x5a
 .text.atCheckCrc
                0x0000710a       0x5a dist/AWS_IOT/production/__pa_temp_4543/atca_command.o
                0x0000710a                atCheckCrc

.text.spi_rsp   0x00007164       0x5a
 .text.spi_rsp  0x00007164       0x5a dist/AWS_IOT/production/__pa_temp_4543/winc_spi.o

.text.atcab_get_addr
                0x000071be       0x58
 .text.atcab_get_addr
                0x000071be       0x58 dist/AWS_IOT/production/__pa_temp_4543/atca_basic.o
                0x000071be                atcab_get_addr

.text.atcab_lock
                0x00007216       0x58
 .text.atcab_lock
                0x00007216       0x58 dist/AWS_IOT/production/__pa_temp_4543/atca_basic_lock.o
                0x00007216                atcab_lock

.text.isATCAError
                0x0000726e       0x58
 .text.isATCAError
                0x0000726e       0x58 dist/AWS_IOT/production/__pa_temp_4543/atca_command.o
                0x0000726e                isATCAError

.text.__vector_4
                0x000072c6       0x58
 .text.__vector_4
                0x000072c6       0x58 build/AWS_IOT/production/mcc_generated_files/src/rtc.o
                0x000072c6                __vector_4

.text.__vector_23
                0x0000731e       0x58
 .text.__vector_23
                0x0000731e       0x58 build/AWS_IOT/production/mcc_generated_files/src/adc0.o
                0x0000731e                __vector_23

.text.hal_iface_init
                0x00007376       0x56
 .text.hal_iface_init
                0x00007376       0x56 dist/AWS_IOT/production/__pa_temp_4543/atca_hal.o
                0x00007376                hal_iface_init

.text.timeout_isr
                0x000073cc       0x56
 .text.timeout_isr
                0x000073cc       0x56 dist/AWS_IOT/production/__pa_temp_4543/timeout.o
                0x000073cc                timeout_isr

.text.spi_data_read
                0x00007422       0x56
 .text.spi_data_read
                0x00007422       0x56 dist/AWS_IOT/production/__pa_temp_4543/winc_spi.o

.text.winc_chip_sleep
                0x00007478       0x56
 .text.winc_chip_sleep
                0x00007478       0x56 dist/AWS_IOT/production/__pa_temp_4543/winc_asic.o
                0x00007478                winc_chip_sleep

.text.MQTT_ExchangeBufferRead
                0x000074ce       0x54
 .text.MQTT_ExchangeBufferRead
                0x000074ce       0x54 dist/AWS_IOT/production/__pa_temp_4543/mqtt_exchange_buffer.o
                0x000074ce                MQTT_ExchangeBufferRead

.text.MQTT_CLIENT_connect
                0x00007522       0x52
 .text.MQTT_CLIENT_connect
                0x00007522       0x52 dist/AWS_IOT/production/__pa_temp_4543/mqtt_service.o
                0x00007522                MQTT_CLIENT_connect

.text.initATCADevice
                0x00007574       0x52
 .text.initATCADevice
                0x00007574       0x52 build/AWS_IOT/production/mcc_generated_files/CryptoAuthenticationLibrary/atca_device.o
                0x00007574                initATCADevice

.text.__vector_31
                0x000075c6       0x52
 .text.__vector_31
                0x000075c6       0x52 build/AWS_IOT/production/mcc_generated_files/src/usart2.o
                0x000075c6                __vector_31

.text.__vector_32
                0x00007618       0x52
 .text.__vector_32
                0x00007618       0x52 build/AWS_IOT/production/mcc_generated_files/src/usart2.o
                0x00007618                __vector_32

.text.initDeviceShadow
                0x0000766a       0x52
 .text.initDeviceShadow
                0x0000766a       0x52 dist/AWS_IOT/production/__pa_temp_4543/application_manager.o
                0x0000766a                initDeviceShadow

.text.MQTT_CLIENT_subscribe
                0x000076bc       0x50
 .text.MQTT_CLIENT_subscribe
                0x000076bc       0x50 dist/AWS_IOT/production/__pa_temp_4543/mqtt_service.o
                0x000076bc                MQTT_CLIENT_subscribe

.text.MQTT_ClientInitialise
                0x0000770c       0x50
 .text.MQTT_ClientInitialise
                0x0000770c       0x50 dist/AWS_IOT/production/__pa_temp_4543/mqtt_comm_layer.o
                0x0000770c                MQTT_ClientInitialise

.text.MQTT_ExchangeBufferPeek
                0x0000775c       0x50
 .text.MQTT_ExchangeBufferPeek
                0x0000775c       0x50 dist/AWS_IOT/production/__pa_temp_4543/mqtt_exchange_buffer.o
                0x0000775c                MQTT_ExchangeBufferPeek

.text.I2C0_MasterIsr
                0x000077ac       0x50
 .text.I2C0_MasterIsr
                0x000077ac       0x50 dist/AWS_IOT/production/__pa_temp_4543/twi0_master.o

.text.getSocketInfo
                0x000077fc       0x4e
 .text.getSocketInfo
                0x000077fc       0x4e dist/AWS_IOT/production/__pa_temp_4543/mqtt_winc_adapter.o
                0x000077fc                getSocketInfo

.text.avrlibc   0x0000784a       0x4e
 .text.avrlibc  0x0000784a       0x4e /opt/microchip/xc8/v2.10/avr/bin/../lib/gcc/avr/5.4.0/../../../../avr/lib/avrxmega3/libc.a(strtok_r.o)
                0x0000784a                strtok_r

.text.hexstr_2_bytes
                0x00007898       0x4a
 .text.hexstr_2_bytes
                0x00007898       0x4a dist/AWS_IOT/production/__pa_temp_4543/m2m_wifi.o

.text.CLOUD_init
                0x000078e2       0x46
 .text.CLOUD_init
                0x000078e2       0x46 dist/AWS_IOT/production/__pa_temp_4543/aws_cloud_service.o
                0x000078e2                CLOUD_init

.text.i2c_writeNBytes
                0x00007928       0x46
 .text.i2c_writeNBytes
                0x00007928       0x46 dist/AWS_IOT/production/__pa_temp_4543/i2c_simple_master.o
                0x00007928                i2c_writeNBytes

.text.RTC_Initialize
                0x0000796e       0x46
 .text.RTC_Initialize
                0x0000796e       0x46 build/AWS_IOT/production/mcc_generated_files/src/rtc.o
                0x0000796e                RTC_Initialize

.text.USART2_Initialize
                0x000079b4       0x46
 .text.USART2_Initialize
                0x000079b4       0x46 build/AWS_IOT/production/mcc_generated_files/src/usart2.o
                0x000079b4                USART2_Initialize

.text.avrlibc   0x000079fa       0x44
 .text.avrlibc  0x000079fa       0x44 dist/AWS_IOT/production/__pa_temp_4543/libc_a_atol.o
                0x000079fa                atol

.text.wifi_connectToAp
                0x00007a3e       0x44
 .text.wifi_connectToAp
                0x00007a3e       0x44 dist/AWS_IOT/production/__pa_temp_4543/wifi_service.o
                0x00007a3e                wifi_connectToAp

.text.winc_bus_read_reg
                0x00007a82       0x44
 .text.winc_bus_read_reg
                0x00007a82       0x44 dist/AWS_IOT/production/__pa_temp_4543/winc_spi.o
                0x00007a82                winc_bus_read_reg

.text.m2m_wifi_connect_open
                0x00007ac6       0x44
 .text.m2m_wifi_connect_open
                0x00007ac6       0x44 dist/AWS_IOT/production/__pa_temp_4543/m2m_wifi.o
                0x00007ac6                m2m_wifi_connect_open

.text.libgcc.div
                0x00007b0a       0x44
 .text.libgcc.div
                0x00007b0a       0x44 /opt/microchip/xc8/v2.10/avr/bin/../lib/gcc/avr/5.4.0/avrxmega3/libgcc.a(_udivmodsi4.o)
                0x00007b0a                __udivmodsi4

.text.avrlibc   0x00007b4e       0x44
 .text.avrlibc  0x00007b4e       0x44 /opt/microchip/xc8/v2.10/avr/bin/../lib/gcc/avr/5.4.0/../../../../avr/lib/avrxmega3/libc.a(sprintf.o)
                0x00007b4e                sprintf

.text.BSD_socket
                0x00007b92       0x42
 .text.BSD_socket
                0x00007b92       0x42 dist/AWS_IOT/production/__pa_temp_4543/mqtt_winc_adapter.o
                0x00007b92                BSD_socket

.text.CLKCTRL_Initialize
                0x00007bd4       0x40
 .text.CLKCTRL_Initialize
                0x00007bd4       0x40 build/AWS_IOT/production/mcc_generated_files/mcc.o
                0x00007bd4                CLKCTRL_Initialize

.text.getMQTT_ConnectionAge
                0x00007c14       0x3e
 .text.getMQTT_ConnectionAge
                0x00007c14       0x3e dist/AWS_IOT/production/__pa_temp_4543/cloud_service.o

.text.I2C0_set_callback
                0x00007c52       0x3e
 .text.I2C0_set_callback
                0x00007c52       0x3e dist/AWS_IOT/production/__pa_temp_4543/twi0_master.o

.text.I2C0_Close
                0x00007c90       0x3e
 .text.I2C0_Close
                0x00007c90       0x3e dist/AWS_IOT/production/__pa_temp_4543/twi0_master.o
                0x00007c90                I2C0_Close

.text.USART2_DefaultTxIsrCb
                0x00007cce       0x3e
 .text.USART2_DefaultTxIsrCb
                0x00007cce       0x3e build/AWS_IOT/production/mcc_generated_files/src/usart2.o
                0x00007cce                USART2_DefaultTxIsrCb

.text.USART2_Write
                0x00007d0c       0x3e
 .text.USART2_Write
                0x00007d0c       0x3e build/AWS_IOT/production/mcc_generated_files/src/usart2.o
                0x00007d0c                USART2_Write

.__pa__48       0x00007d4a       0x3e
 .__pa__48      0x00007d4a       0x3e dist/AWS_IOT/production/__pa_temp_4543/m2m_wifi.o
                0x00007d4a                .__pa__48

.text.wifi_init
                0x00007d88       0x3c
 .text.wifi_init
                0x00007d88       0x3c dist/AWS_IOT/production/__pa_temp_4543/wifi_service.o
                0x00007d88                wifi_init

.text.BSD_close
                0x00007dc4       0x3c
 .text.BSD_close
                0x00007dc4       0x3c dist/AWS_IOT/production/__pa_temp_4543/mqtt_winc_adapter.o
                0x00007dc4                BSD_close

.text.SENSORS_getTempValue
                0x00007e00       0x3c
 .text.SENSORS_getTempValue
                0x00007e00       0x3c dist/AWS_IOT/production/__pa_temp_4543/sensors_handling.o
                0x00007e00                SENSORS_getTempValue

.text.i2c_readNBytes
                0x00007e3c       0x3a
 .text.i2c_readNBytes
                0x00007e3c       0x3a dist/AWS_IOT/production/__pa_temp_4543/i2c_simple_master.o
                0x00007e3c                i2c_readNBytes

.text.get_device_id
                0x00007e76       0x38
 .text.get_device_id
                0x00007e76       0x38 dist/AWS_IOT/production/__pa_temp_4543/cli.o

.text.enqueueCallback
                0x00007eae       0x38
 .text.enqueueCallback
                0x00007eae       0x38 dist/AWS_IOT/production/__pa_temp_4543/timeout.o
                0x00007eae                enqueueCallback

.text.m2m_wifi_get_firmware_version
                0x00007ee6       0x38
 .text.m2m_wifi_get_firmware_version
                0x00007ee6       0x38 dist/AWS_IOT/production/__pa_temp_4543/m2m_wifi.o
                0x00007ee6                m2m_wifi_get_firmware_version

.text.I2C0_DO_ADDRESS_NACK
                0x00007f1e       0x36
 .text.I2C0_DO_ADDRESS_NACK
                0x00007f1e       0x36 dist/AWS_IOT/production/__pa_temp_4543/twi0_master.o

.text.MQTT_CLIENT_publish
                0x00007f54       0x34
 .text.MQTT_CLIENT_publish
                0x00007f54       0x34 dist/AWS_IOT/production/__pa_temp_4543/mqtt_service.o
                0x00007f54                MQTT_CLIENT_publish

.text.MQTT_Send
                0x00007f88       0x34
 .text.MQTT_Send
                0x00007f88       0x34 dist/AWS_IOT/production/__pa_temp_4543/mqtt_comm_layer.o
                0x00007f88                MQTT_Send

.__pa__161      0x00007fbc       0x34
 .__pa__161     0x00007fbc       0x34 dist/AWS_IOT/production/__pa_temp_4543/winc_adapter.o
                0x00007fbc                .__pa__161

.text.m2m_wifi_start_provision_mode
                0x00007ff0       0x34
 .text.m2m_wifi_start_provision_mode
                0x00007ff0       0x34 dist/AWS_IOT/production/__pa_temp_4543/m2m_wifi.o
                0x00007ff0                m2m_wifi_start_provision_mode

.text.SYSTEM_Initialize
                0x00008024       0x34
 .text.SYSTEM_Initialize
                0x00008024       0x34 build/AWS_IOT/production/mcc_generated_files/mcc.o
                0x00008024                SYSTEM_Initialize

.text.avrlibc   0x00008058       0x34
 .text.avrlibc  0x00008058       0x34 /opt/microchip/xc8/v2.10/avr/bin/../lib/gcc/avr/5.4.0/../../../../avr/lib/avrxmega3/libc.a(strstr.o)
                0x00008058                strstr

.text.atNonce   0x0000808c       0x32
 .text.atNonce  0x0000808c       0x32 dist/AWS_IOT/production/__pa_temp_4543/atca_command.o
                0x0000808c                atNonce

.text.USART2_Read
                0x000080be       0x32
 .text.USART2_Read
                0x000080be       0x32 build/AWS_IOT/production/mcc_generated_files/src/usart2.o
                0x000080be                USART2_Read

.text.winc_chip_interrupts_enable
                0x000080f0       0x32
 .text.winc_chip_interrupts_enable
                0x000080f0       0x32 dist/AWS_IOT/production/__pa_temp_4543/winc_asic.o
                0x000080f0                winc_chip_interrupts_enable

.text.m2m_ssl_handshake_rsp
                0x00008122       0x32
 .text.m2m_ssl_handshake_rsp
                0x00008122       0x32 dist/AWS_IOT/production/__pa_temp_4543/m2m_ssl.o
                0x00008122                m2m_ssl_handshake_rsp

.text.gethostbyname
                0x00008154       0x32
 .text.gethostbyname
                0x00008154       0x32 dist/AWS_IOT/production/__pa_temp_4543/socket.o
                0x00008154                gethostbyname

.text.libgcc.prologue
                0x00008186       0x32
 .text.libgcc.prologue
                0x00008186       0x32 /opt/microchip/xc8/v2.10/avr/bin/../lib/gcc/avr/5.4.0/avrxmega3/libgcc.a(_prologue.o)
                0x00008186                __prologue_saves__

.text.I2C0_DO_BUS_COLLISION
                0x000081b8       0x30
 .text.I2C0_DO_BUS_COLLISION
                0x000081b8       0x30 dist/AWS_IOT/production/__pa_temp_4543/twi0_master.o

.text.winc_adapter_sleep
                0x000081e8       0x30
 .text.winc_adapter_sleep
                0x000081e8       0x30 dist/AWS_IOT/production/__pa_temp_4543/winc_adapter.o
                0x000081e8                winc_adapter_sleep

.text.libgcc.prologue
                0x00008218       0x30
 .text.libgcc.prologue
                0x00008218       0x30 /opt/microchip/xc8/v2.10/avr/bin/../lib/gcc/avr/5.4.0/avrxmega3/libgcc.a(_epilogue.o)
                0x00008218                __epilogue_restores__

.text.atwake    0x00008248       0x2e
 .text.atwake   0x00008248       0x2e dist/AWS_IOT/production/__pa_temp_4543/atca_iface.o
                0x00008248                atwake

.text.winc_hif_chip_sleep
                0x00008276       0x2e
 .text.winc_hif_chip_sleep
                0x00008276       0x2e dist/AWS_IOT/production/__pa_temp_4543/winc_hif.o
                0x00008276                winc_hif_chip_sleep

.text.libgcc.div
                0x000082a4       0x2e
 .text.libgcc.div
                0x000082a4       0x2e /opt/microchip/xc8/v2.10/avr/bin/../lib/gcc/avr/5.4.0/avrxmega3/libgcc.a(_divmodsi4.o)
                0x000082a4                __divmodsi4

.text.reconnect_cmd
                0x000082d2       0x2c
 .text.reconnect_cmd
                0x000082d2       0x2c dist/AWS_IOT/production/__pa_temp_4543/cli.o

.text.atVerify  0x000082fe       0x2c
 .text.atVerify
                0x000082fe       0x2c dist/AWS_IOT/production/__pa_temp_4543/atca_command.o
                0x000082fe                atVerify

.text.I2C0_MasterOperation
                0x0000832a       0x2c
 .text.I2C0_MasterOperation
                0x0000832a       0x2c dist/AWS_IOT/production/__pa_temp_4543/twi0_master.o
                0x0000832a                I2C0_MasterOperation

.text.ADC0_Initialize
                0x00008356       0x2c
 .text.ADC0_Initialize
                0x00008356       0x2c build/AWS_IOT/production/mcc_generated_files/src/adc0.o
                0x00008356                ADC0_Initialize

.text.USART2_DefaultRxIsrCb
                0x00008382       0x2c
 .text.USART2_DefaultRxIsrCb
                0x00008382       0x2c build/AWS_IOT/production/mcc_generated_files/src/usart2.o
                0x00008382                USART2_DefaultRxIsrCb

.text.winc_adapter_interrupt_serviced
                0x000083ae       0x2c
 .text.winc_adapter_interrupt_serviced
                0x000083ae       0x2c dist/AWS_IOT/production/__pa_temp_4543/winc_adapter.o
                0x000083ae                winc_adapter_interrupt_serviced

.text.socketDeinit
                0x000083da       0x2c
 .text.socketDeinit
                0x000083da       0x2c dist/AWS_IOT/production/__pa_temp_4543/socket.o
                0x000083da                socketDeinit

.text.avrlibc   0x00008406       0x2c
 .text.avrlibc  0x00008406       0x2c /opt/microchip/xc8/v2.10/avr/bin/../lib/gcc/avr/5.4.0/../../../../avr/lib/avrxmega3/libc.a(printf.o)
                0x00008406                printf

.text.stopTimeouts
                0x00008432       0x2a
 .text.stopTimeouts
                0x00008432       0x2a dist/AWS_IOT/production/__pa_temp_4543/timeout.o
                0x00008432                stopTimeouts

.text.__vector_33
                0x0000845c       0x2a
 .text.__vector_33
                0x0000845c       0x2a build/AWS_IOT/production/mcc_generated_files/src/usart2.o
                0x0000845c                __vector_33

.text.spi_cmd_send
                0x00008486       0x2a
 .text.spi_cmd_send
                0x00008486       0x2a dist/AWS_IOT/production/__pa_temp_4543/winc_spi.o

.text.winc_hif_send_no_data
                0x000084b0       0x2a
 .text.winc_hif_send_no_data
                0x000084b0       0x2a dist/AWS_IOT/production/__pa_temp_4543/winc_hif.o
                0x000084b0                winc_hif_send_no_data

.text.avrlibc   0x000084da       0x2a
 .text.avrlibc  0x000084da       0x2a /opt/microchip/xc8/v2.10/avr/bin/../lib/gcc/avr/5.4.0/../../../../avr/lib/avrxmega3/libc.a(mulsi10.o)
                0x000084da                __mulsi_const_10

.text.CLOUD_registerSubscription
                0x00008504       0x28
 .text.CLOUD_registerSubscription
                0x00008504       0x28 dist/AWS_IOT/production/__pa_temp_4543/cloud_service.o
                0x00008504                CLOUD_registerSubscription

.text.timeout_delete
                0x0000852c       0x28
 .text.timeout_delete
                0x0000852c       0x28 dist/AWS_IOT/production/__pa_temp_4543/timeout.o
                0x0000852c                timeout_delete

.text.mqttEncodeLength
                0x00008554       0x28
 .text.mqttEncodeLength
                0x00008554       0x28 dist/AWS_IOT/production/__pa_temp_4543/mqtt_core.o

.text.winc_hif_chip_wake
                0x0000857c       0x28
 .text.winc_hif_chip_wake
                0x0000857c       0x28 dist/AWS_IOT/production/__pa_temp_4543/winc_hif.o
                0x0000857c                winc_hif_chip_wake

.text.m2m_ssl_retrieve_hash
                0x000085a4       0x28
 .text.m2m_ssl_retrieve_hash
                0x000085a4       0x28 dist/AWS_IOT/production/__pa_temp_4543/m2m_ssl.o
                0x000085a4                m2m_ssl_retrieve_hash

.text.m2m_ssl_set_active_ciphersuites
                0x000085cc       0x28
 .text.m2m_ssl_set_active_ciphersuites
                0x000085cc       0x28 dist/AWS_IOT/production/__pa_temp_4543/m2m_ssl.o
                0x000085cc                m2m_ssl_set_active_ciphersuites

.text.libgcc.div
                0x000085f4       0x28
 .text.libgcc.div
                0x000085f4       0x28 /opt/microchip/xc8/v2.10/avr/bin/../lib/gcc/avr/5.4.0/avrxmega3/libgcc.a(_udivmodhi4.o)
                0x000085f4                __udivmodhi4

.text.libgcc.div
                0x0000861c       0x28
 .text.libgcc.div
                0x0000861c       0x28 /opt/microchip/xc8/v2.10/avr/bin/../lib/gcc/avr/5.4.0/avrxmega3/libgcc.a(_divmodhi4.o)
                0x0000861c                __divmodhi4
                0x0000861c                _div

.text           0x00008644       0x28
 .text          0x00008644       0x28 /opt/microchip/xc8/v2.10/avr/bin/../lib/gcc/avr/5.4.0/../../../../avr/lib/avrxmega3/libc.a(isLeap.o)
                0x00008644                is_leap_year

.text.CLI_init  0x0000866c       0x26
 .text.CLI_init
                0x0000866c       0x26 dist/AWS_IOT/production/__pa_temp_4543/cli.o
                0x0000866c                CLI_init

.text.CREDENTIALS_STORAGE_clearWifiCredentials
                0x00008692       0x26
 .text.CREDENTIALS_STORAGE_clearWifiCredentials
                0x00008692       0x26 build/AWS_IOT/production/mcc_generated_files/credentials_storage/credentials_storage.o
                0x00008692                CREDENTIALS_STORAGE_clearWifiCredentials

.text.atcab_nonce_load
                0x000086b8       0x26
 .text.atcab_nonce_load
                0x000086b8       0x26 dist/AWS_IOT/production/__pa_temp_4543/atca_basic_nonce.o
                0x000086b8                atcab_nonce_load

.text.MQTT_GetReceivedData
                0x000086de       0x26
 .text.MQTT_GetReceivedData
                0x000086de       0x26 dist/AWS_IOT/production/__pa_temp_4543/mqtt_comm_layer.o
                0x000086de                MQTT_GetReceivedData

.text.socketInit
                0x00008704       0x26
 .text.socketInit
                0x00008704       0x26 dist/AWS_IOT/production/__pa_temp_4543/socket.o
                0x00008704                socketInit

.text.SPI0_ExchangeBlock
                0x0000872a       0x24
 .text.SPI0_ExchangeBlock
                0x0000872a       0x24 build/AWS_IOT/production/mcc_generated_files/src/spi0.o
                0x0000872a                SPI0_ExchangeBlock

.text.SPI0_WriteBlock
                0x0000874e       0x24
 .text.SPI0_WriteBlock
                0x0000874e       0x24 build/AWS_IOT/production/mcc_generated_files/src/spi0.o
                0x0000874e                SPI0_WriteBlock

.text.SPI0_ReadBlock
                0x00008772       0x24
 .text.SPI0_ReadBlock
                0x00008772       0x24 build/AWS_IOT/production/mcc_generated_files/src/spi0.o
                0x00008772                SPI0_ReadBlock

.text.I2C0_SetBuffer
                0x00008796       0x24
 .text.I2C0_SetBuffer
                0x00008796       0x24 dist/AWS_IOT/production/__pa_temp_4543/twi0_master.o
                0x00008796                I2C0_SetBuffer

.text.hal_i2c_idle
                0x000087ba       0x22
 .text.hal_i2c_idle
                0x000087ba       0x22 dist/AWS_IOT/production/__pa_temp_4543/atca_i2c_hal.o
                0x000087ba                hal_i2c_idle

.text.hal_i2c_sleep
                0x000087dc       0x22
 .text.hal_i2c_sleep
                0x000087dc       0x22 dist/AWS_IOT/production/__pa_temp_4543/atca_i2c_hal.o
                0x000087dc                hal_i2c_sleep

.text.checkPingreqTimeoutState
                0x000087fe       0x22
 .text.checkPingreqTimeoutState
                0x000087fe       0x22 dist/AWS_IOT/production/__pa_temp_4543/mqtt_core.o

.text.ADC0_GetConversion
                0x00008820       0x22
 .text.ADC0_GetConversion
                0x00008820       0x22 build/AWS_IOT/production/mcc_generated_files/src/adc0.o
                0x00008820                ADC0_GetConversion

.text.m2m_ssl_init
                0x00008842       0x22
 .text.m2m_ssl_init
                0x00008842       0x22 dist/AWS_IOT/production/__pa_temp_4543/m2m_ssl.o
                0x00008842                m2m_ssl_init

.text.m2m_wifi_download_mode
                0x00008864       0x22
 .text.m2m_wifi_download_mode
                0x00008864       0x22 dist/AWS_IOT/production/__pa_temp_4543/m2m_wifi.o
                0x00008864                m2m_wifi_download_mode

.text.initATCAIface
                0x00008886       0x20
 .text.initATCAIface
                0x00008886       0x20 dist/AWS_IOT/production/__pa_temp_4543/atca_iface.o
                0x00008886                initATCAIface

.text.winc_bus_read_reg_with_ret
                0x000088a6       0x20
 .text.winc_bus_read_reg_with_ret
                0x000088a6       0x20 dist/AWS_IOT/production/__pa_temp_4543/winc_spi.o
                0x000088a6                winc_bus_read_reg_with_ret

.text.libgcc.mul
                0x000088c6       0x20
 .text.libgcc.mul
                0x000088c6       0x20 /opt/microchip/xc8/v2.10/avr/bin/../lib/gcc/avr/5.4.0/avrxmega3/libgcc.a(_mulsi3.o)
                0x000088c6                __mulsi3

.text.get_firmware_version
                0x000088e6       0x1e
 .text.get_firmware_version
                0x000088e6       0x1e dist/AWS_IOT/production/__pa_temp_4543/cli.o

.text.get_cli_version
                0x00008904       0x1e
 .text.get_cli_version
                0x00008904       0x1e dist/AWS_IOT/production/__pa_temp_4543/cli.o

.text.get_thing_id
                0x00008922       0x1e
 .text.get_thing_id
                0x00008922       0x1e dist/AWS_IOT/production/__pa_temp_4543/cli.o

.text.atca_delay_ms
                0x00008940       0x1e
 .text.atca_delay_ms
                0x00008940       0x1e dist/AWS_IOT/production/__pa_temp_4543/hal_i2c_timer.o
                0x00008940                atca_delay_ms

.text.atGenKey  0x0000895e       0x1e
 .text.atGenKey
                0x0000895e       0x1e dist/AWS_IOT/production/__pa_temp_4543/atca_command.o
                0x0000895e                atGenKey

.text.SPI0_Open
                0x0000897c       0x1e
 .text.SPI0_Open
                0x0000897c       0x1e build/AWS_IOT/production/mcc_generated_files/src/spi0.o
                0x0000897c                SPI0_Open

.text.__vector_22
                0x0000899a       0x1e
 .text.__vector_22
                0x0000899a       0x1e build/AWS_IOT/production/mcc_generated_files/src/adc0.o
                0x0000899a                __vector_22

.text.m2m_wifi_init
                0x000089b8       0x1e
 .text.m2m_wifi_init
                0x000089b8       0x1e dist/AWS_IOT/production/__pa_temp_4543/m2m_wifi.o
                0x000089b8                m2m_wifi_init

.text.__vector_2
                0x000089d6       0x1e
 .text.__vector_2
                0x000089d6       0x1e build/AWS_IOT/production/mcc_generated_files/mcc.o
                0x000089d6                __vector_2

.text.libgcc.mul
                0x000089f4       0x1e
 .text.libgcc.mul
                0x000089f4       0x1e /opt/microchip/xc8/v2.10/avr/bin/../lib/gcc/avr/5.4.0/avrxmega3/libgcc.a(_umulhisi3.o)
                0x000089f4                __umulhisi3

.text.avrlibc   0x00008a12       0x1e
 .text.avrlibc  0x00008a12       0x1e /opt/microchip/xc8/v2.10/avr/bin/../lib/gcc/avr/5.4.0/../../../../avr/lib/avrxmega3/libc.a(strncpy.o)
                0x00008a12                strncpy

.text.set_debug_level
                0x00008a30       0x1c
 .text.set_debug_level
                0x00008a30       0x1c dist/AWS_IOT/production/__pa_temp_4543/cli.o

.text.dnsHandler
                0x00008a4c       0x1c
 .text.dnsHandler
                0x00008a4c       0x1c dist/AWS_IOT/production/__pa_temp_4543/cloud_service.o

.text.wifi_disconnectFromAp
                0x00008a68       0x1c
 .text.wifi_disconnectFromAp
                0x00008a68       0x1c dist/AWS_IOT/production/__pa_temp_4543/wifi_service.o
                0x00008a68                wifi_disconnectFromAp

.text.CLOUD_connectAppProtocol
                0x00008a84       0x1c
 .text.CLOUD_connectAppProtocol
                0x00008a84       0x1c dist/AWS_IOT/production/__pa_temp_4543/aws_cloud_service.o
                0x00008a84                CLOUD_connectAppProtocol

.text.I2C0_Initialize
                0x00008aa0       0x1c
 .text.I2C0_Initialize
                0x00008aa0       0x1c dist/AWS_IOT/production/__pa_temp_4543/twi0_master.o
                0x00008aa0                I2C0_Initialize

.text.CryptoAuth_Initialize
                0x00008abc       0x1c
 .text.CryptoAuth_Initialize
                0x00008abc       0x1c build/AWS_IOT/production/mcc_generated_files/CryptoAuthenticationLibrary/CryptoAuth_init.o
                0x00008abc                CryptoAuth_Initialize

.text.avrlibc   0x00008ad8       0x1c
 .text.avrlibc  0x00008ad8       0x1c /opt/microchip/xc8/v2.10/avr/bin/../lib/gcc/avr/5.4.0/../../../../avr/lib/avrxmega3/libc.a(strncmp.o)
                0x00008ad8                strncmp

.text.reset_cmd
                0x00008af4       0x1a
 .text.reset_cmd
                0x00008af4       0x1a dist/AWS_IOT/production/__pa_temp_4543/cli.o

.text.atcab_release
                0x00008b0e       0x1a
 .text.atcab_release
                0x00008b0e       0x1a dist/AWS_IOT/production/__pa_temp_4543/atca_basic.o
                0x00008b0e                atcab_release

.text.atcab_ecdh
                0x00008b28       0x1a
 .text.atcab_ecdh
                0x00008b28       0x1a dist/AWS_IOT/production/__pa_temp_4543/atca_basic_ecdh.o
                0x00008b28                atcab_ecdh

.text.atca_delay_us
                0x00008b42       0x1a
 .text.atca_delay_us
                0x00008b42       0x1a dist/AWS_IOT/production/__pa_temp_4543/hal_i2c_timer.o
                0x00008b42                atca_delay_us

.text.atidle    0x00008b5c       0x1a
 .text.atidle   0x00008b5c       0x1a dist/AWS_IOT/production/__pa_temp_4543/atca_iface.o
                0x00008b5c                atidle

.text.CPUINT_Initialize
                0x00008b76       0x1a
 .text.CPUINT_Initialize
                0x00008b76       0x1a build/AWS_IOT/production/mcc_generated_files/src/cpuint.o
                0x00008b76                CPUINT_Initialize

.text.I2C0_DO_SEND_ADR_READ
                0x00008b90       0x1a
 .text.I2C0_DO_SEND_ADR_READ
                0x00008b90       0x1a dist/AWS_IOT/production/__pa_temp_4543/twi0_master.o

.text.winc_chip_halt
                0x00008baa       0x1a
 .text.winc_chip_halt
                0x00008baa       0x1a dist/AWS_IOT/production/__pa_temp_4543/winc_asic.o
                0x00008baa                winc_chip_halt

.text.avrlibc   0x00008bc4       0x1a
 .text.avrlibc  0x00008bc4       0x1a /opt/microchip/xc8/v2.10/avr/bin/../lib/gcc/avr/5.4.0/../../../../avr/lib/avrxmega3/libc.a(memcmp.o)
                0x00008bc4                memcmp

.text.atCalcCrc
                0x00008bde       0x18
 .text.atCalcCrc
                0x00008bde       0x18 dist/AWS_IOT/production/__pa_temp_4543/atca_command.o
                0x00008bde                atCalcCrc

.text.I2C0_DO_SEND_ADR_WRITE
                0x00008bf6       0x18
 .text.I2C0_DO_SEND_ADR_WRITE
                0x00008bf6       0x18 dist/AWS_IOT/production/__pa_temp_4543/twi0_master.o

.text.I2C0_DO_RX_NACK_STOP
                0x00008c0e       0x18
 .text.I2C0_DO_RX_NACK_STOP
                0x00008c0e       0x18 dist/AWS_IOT/production/__pa_temp_4543/twi0_master.o

.text.winc_drv_start
                0x00008c26       0x18
 .text.winc_drv_start
                0x00008c26       0x18 dist/AWS_IOT/production/__pa_temp_4543/winc_drv.o
                0x00008c26                winc_drv_start

.__pa__219      0x00008c3e       0x18
 .__pa__219     0x00008c3e       0x18 dist/AWS_IOT/production/__pa_temp_4543/spi_flash.o
                0x00008c3e                .__pa__219

.text.application_post_provisioning
                0x00008c56       0x18
 .text.application_post_provisioning
                0x00008c56       0x18 dist/AWS_IOT/production/__pa_temp_4543/application_manager.o
                0x00008c56                application_post_provisioning

.text           0x00008c6e       0x18
 .text          0x00008c6e       0x18 /opt/microchip/xc8/v2.10/avr/bin/../lib/gcc/avr/5.4.0/../../../../avr/lib/avrxmega3/libc.a(set_system_time.o)
                0x00008c6e                set_system_time

.text.hal_i2c_send
                0x00008c86       0x16
 .text.hal_i2c_send
                0x00008c86       0x16 dist/AWS_IOT/production/__pa_temp_4543/atca_i2c_hal.o
                0x00008c86                hal_i2c_send

.text.SPI0_Initialize
                0x00008c9c       0x16
 .text.SPI0_Initialize
                0x00008c9c       0x16 build/AWS_IOT/production/mcc_generated_files/src/spi0.o
                0x00008c9c                SPI0_Initialize

.text.I2C0_DO_BUS_ERROR
                0x00008cb2       0x16
 .text.I2C0_DO_BUS_ERROR
                0x00008cb2       0x16 dist/AWS_IOT/production/__pa_temp_4543/twi0_master.o

.text.m2m_wifi_init_hold
                0x00008cc8       0x16
 .text.m2m_wifi_init_hold
                0x00008cc8       0x16 dist/AWS_IOT/production/__pa_temp_4543/m2m_wifi.o
                0x00008cc8                m2m_wifi_init_hold

.__pa__129      0x00008cde       0x16
 .__pa__129     0x00008cde       0x16 dist/AWS_IOT/production/__pa_temp_4543/socket.o
                0x00008cde                .__pa__129

.text.BOD_Initialize
                0x00008cf4       0x16
 .text.BOD_Initialize
                0x00008cf4       0x16 build/AWS_IOT/production/mcc_generated_files/mcc.o
                0x00008cf4                BOD_Initialize

.text.DELAY_milliseconds
                0x00008d0a       0x16
 .text.DELAY_milliseconds
                0x00008d0a       0x16 build/AWS_IOT/production/mcc_generated_files/delay.o
                0x00008d0a                DELAY_milliseconds

.text.libgcc.mul
                0x00008d20       0x16
 .text.libgcc.mul
                0x00008d20       0x16 /opt/microchip/xc8/v2.10/avr/bin/../lib/gcc/avr/5.4.0/avrxmega3/libgcc.a(_muluhisi3.o)
                0x00008d20                __muluhisi3

.text.avrlibc   0x00008d36       0x16
 .text.avrlibc  0x00008d36       0x16 /opt/microchip/xc8/v2.10/avr/bin/../lib/gcc/avr/5.4.0/../../../../avr/lib/avrxmega3/libc.a(strchr.o)
                0x00008d36                strchr

.text.avrlibc   0x00008d4c       0x16
 .text.avrlibc  0x00008d4c       0x16 /opt/microchip/xc8/v2.10/avr/bin/../lib/gcc/avr/5.4.0/../../../../avr/lib/avrxmega3/libc.a(strnlen_P.o)
                0x00008d4c                strnlen_P

.text.avrlibc   0x00008d62       0x16
 .text.avrlibc  0x00008d62       0x16 /opt/microchip/xc8/v2.10/avr/bin/../lib/gcc/avr/5.4.0/../../../../avr/lib/avrxmega3/libc.a(strnlen.o)
                0x00008d62                strnlen

.text.CLOUD_subscribe
                0x00008d78       0x14
 .text.CLOUD_subscribe
                0x00008d78       0x14 dist/AWS_IOT/production/__pa_temp_4543/aws_cloud_service.o
                0x00008d78                CLOUD_subscribe

.__pa__70       0x00008d8c       0x14
 .__pa__70      0x00008d8c       0x14 dist/AWS_IOT/production/__pa_temp_4543/aws_cloud_service.o
                0x00008d8c                .__pa__70

.__pa__83       0x00008da0       0x14
 .__pa__83      0x00008da0       0x14 dist/AWS_IOT/production/__pa_temp_4543/atca_basic.o
                0x00008da0                .__pa__83

.__pa__109      0x00008db4       0x14
 .__pa__109     0x00008db4       0x14 dist/AWS_IOT/production/__pa_temp_4543/atca_basic_sign.o
                0x00008db4                .__pa__109

.text.initATCACommand
                0x00008dc8       0x14
 .text.initATCACommand
                0x00008dc8       0x14 dist/AWS_IOT/production/__pa_temp_4543/atca_command.o
                0x00008dc8                initATCACommand

.text.atECDH    0x00008ddc       0x14
 .text.atECDH   0x00008ddc       0x14 dist/AWS_IOT/production/__pa_temp_4543/atca_command.o
                0x00008ddc                atECDH

.text.releaseATCAIface
                0x00008df0       0x14
 .text.releaseATCAIface
                0x00008df0       0x14 dist/AWS_IOT/production/__pa_temp_4543/atca_iface.o
                0x00008df0                releaseATCAIface

.text.rd2RegCompleteHandler
                0x00008e04       0x14
 .text.rd2RegCompleteHandler
                0x00008e04       0x14 dist/AWS_IOT/production/__pa_temp_4543/i2c_simple_master.o

.text.MQTT_Close
                0x00008e18       0x14
 .text.MQTT_Close
                0x00008e18       0x14 dist/AWS_IOT/production/__pa_temp_4543/mqtt_comm_layer.o
                0x00008e18                MQTT_Close

.text.checkPingrespTimeoutState
                0x00008e2c       0x14
 .text.checkPingrespTimeoutState
                0x00008e2c       0x14 dist/AWS_IOT/production/__pa_temp_4543/mqtt_core.o

.text.SPI0_OpenConfiguration
                0x00008e40       0x14
 .text.SPI0_OpenConfiguration
                0x00008e40       0x14 build/AWS_IOT/production/mcc_generated_files/src/spi0.o
                0x00008e40                SPI0_OpenConfiguration

.text.I2C0_DO_RESET
                0x00008e54       0x14
 .text.I2C0_DO_RESET
                0x00008e54       0x14 dist/AWS_IOT/production/__pa_temp_4543/twi0_master.o

.text.I2C0_DO_SEND_STOP
                0x00008e68       0x14
 .text.I2C0_DO_SEND_STOP
                0x00008e68       0x14 dist/AWS_IOT/production/__pa_temp_4543/twi0_master.o

.text.I2C0_Poller
                0x00008e7c       0x14
 .text.I2C0_Poller
                0x00008e7c       0x14 dist/AWS_IOT/production/__pa_temp_4543/twi0_master.o
                0x00008e7c                I2C0_Poller

.text.m2m_wifi_connect
                0x00008e90       0x14
 .text.m2m_wifi_connect
                0x00008e90       0x14 dist/AWS_IOT/production/__pa_temp_4543/m2m_wifi.o
                0x00008e90                m2m_wifi_connect

.__pa__69       0x00008ea4       0x14
 .__pa__69      0x00008ea4       0x14 dist/AWS_IOT/production/__pa_temp_4543/spi_flash.o
                0x00008ea4                .__pa__69

.text.mqttTimeoutTask
                0x00008eb8       0x12
 .text.mqttTimeoutTask
                0x00008eb8       0x12 dist/AWS_IOT/production/__pa_temp_4543/cloud_service.o
                0x00008eb8                mqttTimeoutTask

.text.checkBackTask
                0x00008eca       0x12
 .text.checkBackTask
                0x00008eca       0x12 dist/AWS_IOT/production/__pa_temp_4543/wifi_service.o
                0x00008eca                checkBackTask

.text.CLOUD_disconnect
                0x00008edc       0x12
 .text.CLOUD_disconnect
                0x00008edc       0x12 dist/AWS_IOT/production/__pa_temp_4543/aws_cloud_service.o
                0x00008edc                CLOUD_disconnect

.__pa__216      0x00008eee       0x12
 .__pa__216     0x00008eee       0x12 dist/AWS_IOT/production/__pa_temp_4543/aws_cloud_service.o
                0x00008eee                .__pa__216

.text.hal_i2c_init
                0x00008f00       0x12
 .text.hal_i2c_init
                0x00008f00       0x12 dist/AWS_IOT/production/__pa_temp_4543/atca_i2c_hal.o
                0x00008f00                hal_i2c_init

.text.releaseATCADevice
                0x00008f12       0x12
 .text.releaseATCADevice
                0x00008f12       0x12 build/AWS_IOT/production/mcc_generated_files/CryptoAuthenticationLibrary/atca_device.o
                0x00008f12                releaseATCADevice

.__pa__135      0x00008f24       0x12
 .__pa__135     0x00008f24       0x12 dist/AWS_IOT/production/__pa_temp_4543/mqtt_exchange_buffer.o
                0x00008f24                .__pa__135

.text.BSD_GetSocketState
                0x00008f36       0x12
 .text.BSD_GetSocketState
                0x00008f36       0x12 dist/AWS_IOT/production/__pa_temp_4543/mqtt_winc_adapter.o
                0x00008f36                BSD_GetSocketState

.__pa__245      0x00008f48       0x12
 .__pa__245     0x00008f48       0x12 dist/AWS_IOT/production/__pa_temp_4543/pin_manager.o
                0x00008f48                .__pa__245

.text.SPI0_ExchangeByte
                0x00008f5a       0x12
 .text.SPI0_ExchangeByte
                0x00008f5a       0x12 build/AWS_IOT/production/mcc_generated_files/src/spi0.o
                0x00008f5a                SPI0_ExchangeByte

.text.RTC_WriteCounter
                0x00008f6c       0x12
 .text.RTC_WriteCounter
                0x00008f6c       0x12 build/AWS_IOT/production/mcc_generated_files/src/rtc.o
                0x00008f6c                RTC_WriteCounter

.text.I2C0_MasterWaitForEvent
                0x00008f7e       0x12
 .text.I2C0_MasterWaitForEvent
                0x00008f7e       0x12 dist/AWS_IOT/production/__pa_temp_4543/twi0_master.o
                0x00008f7e                I2C0_MasterWaitForEvent

.text.winc_adapter_init
                0x00008f90       0x12
 .text.winc_adapter_init
                0x00008f90       0x12 dist/AWS_IOT/production/__pa_temp_4543/winc_adapter.o
                0x00008f90                winc_adapter_init

.__pa__11       0x00008fa2       0x12
 .__pa__11      0x00008fa2       0x12 dist/AWS_IOT/production/__pa_temp_4543/winc_asic.o
                0x00008fa2                .__pa__11

.__pa__12       0x00008fb4       0x12
 .__pa__12      0x00008fb4       0x12 dist/AWS_IOT/production/__pa_temp_4543/winc_asic.o
                0x00008fb4                .__pa__12

.__pa__182      0x00008fc6       0x12
 .__pa__182     0x00008fc6       0x12 dist/AWS_IOT/production/__pa_temp_4543/winc_asic.o
                0x00008fc6                .__pa__182

.__pa__234      0x00008fd8       0x12
 .__pa__234     0x00008fd8       0x12 dist/AWS_IOT/production/__pa_temp_4543/winc_asic.o
                0x00008fd8                .__pa__234

.text.m2m_ssl_ecc_process_done
                0x00008fea       0x12
 .text.m2m_ssl_ecc_process_done
                0x00008fea       0x12 dist/AWS_IOT/production/__pa_temp_4543/m2m_ssl.o
                0x00008fea                m2m_ssl_ecc_process_done

.__pa__111      0x00008ffc       0x12
 .__pa__111     0x00008ffc       0x12 dist/AWS_IOT/production/__pa_temp_4543/m2m_wifi.o
                0x00008ffc                .__pa__111

.text.registerSocketCallback
                0x0000900e       0x12
 .text.registerSocketCallback
                0x0000900e       0x12 dist/AWS_IOT/production/__pa_temp_4543/socket.o
                0x0000900e                registerSocketCallback

.__pa__254      0x00009020       0x12
 .__pa__254     0x00009020       0x12 dist/AWS_IOT/production/__pa_temp_4543/socket.o
                0x00009020                .__pa__254

.__pa__255      0x00009032       0x12
 .__pa__255     0x00009032       0x12 dist/AWS_IOT/production/__pa_temp_4543/socket.o
                0x00009032                .__pa__255

.text.TIME_getCurrent
                0x00009044       0x12
 .text.TIME_getCurrent
                0x00009044       0x12 dist/AWS_IOT/production/__pa_temp_4543/time_service.o
                0x00009044                TIME_getCurrent

.text.TIME_setStamp
                0x00009056       0x12
 .text.TIME_setStamp
                0x00009056       0x12 dist/AWS_IOT/production/__pa_temp_4543/time_service.o
                0x00009056                TIME_setStamp

.text.TIME_getStamp
                0x00009068       0x12
 .text.TIME_getStamp
                0x00009068       0x12 dist/AWS_IOT/production/__pa_temp_4543/time_service.o
                0x00009068                TIME_getStamp

.text.avrlibc   0x0000907a       0x12
 .text.avrlibc  0x0000907a       0x12 /opt/microchip/xc8/v2.10/avr/bin/../lib/gcc/avr/5.4.0/../../../../avr/lib/avrxmega3/libc.a(memcpy.o)
                0x0000907a                memcpy

.text.avrlibc   0x0000908c       0x12
 .text.avrlibc  0x0000908c       0x12 /opt/microchip/xc8/v2.10/avr/bin/../lib/gcc/avr/5.4.0/../../../../avr/lib/avrxmega3/libc.a(strcmp.o)
                0x0000908c                strcmp

.text.avrlibc   0x0000909e       0x12
 .text.avrlibc  0x0000909e       0x12 /opt/microchip/xc8/v2.10/avr/bin/../lib/gcc/avr/5.4.0/../../../../avr/lib/avrxmega3/libc.a(vprintf.o)
                0x0000909e                vprintf

.__pa__249      0x000090b0       0x10
 .__pa__249     0x000090b0       0x10 dist/AWS_IOT/production/__pa_temp_4543/libc_a_atol.o
                0x000090b0                .__pa__249

.__pa__232      0x000090c0       0x10
 .__pa__232     0x000090c0       0x10 dist/AWS_IOT/production/__pa_temp_4543/crypto_client.o
                0x000090c0                .__pa__232

.text.CLOUD_setupTask
                0x000090d0       0x10
 .text.CLOUD_setupTask
                0x000090d0       0x10 dist/AWS_IOT/production/__pa_temp_4543/cloud_service.o
                0x000090d0                CLOUD_setupTask

.text.CLOUD_isConnected
                0x000090e0       0x10
 .text.CLOUD_isConnected
                0x000090e0       0x10 dist/AWS_IOT/production/__pa_temp_4543/aws_cloud_service.o
                0x000090e0                CLOUD_isConnected

.__pa__108      0x000090f0       0x10
 .__pa__108     0x000090f0       0x10 dist/AWS_IOT/production/__pa_temp_4543/atca_basic_updateextra.o
                0x000090f0                .__pa__108

.__pa__39       0x00009100       0x10
 .__pa__39      0x00009100       0x10 dist/AWS_IOT/production/__pa_temp_4543/atca_basic_verify.o
                0x00009100                .__pa__39

.text.atLock    0x00009110       0x10
 .text.atLock   0x00009110       0x10 dist/AWS_IOT/production/__pa_temp_4543/atca_command.o
                0x00009110                atLock

.text.atRandom  0x00009120       0x10
 .text.atRandom
                0x00009120       0x10 dist/AWS_IOT/production/__pa_temp_4543/atca_command.o
                0x00009120                atRandom

.text.atRead    0x00009130       0x10
 .text.atRead   0x00009130       0x10 dist/AWS_IOT/production/__pa_temp_4543/atca_command.o
                0x00009130                atRead

.text.atSign    0x00009140       0x10
 .text.atSign   0x00009140       0x10 dist/AWS_IOT/production/__pa_temp_4543/atca_command.o
                0x00009140                atSign

.text.checkConnackTimeoutState
                0x00009150       0x10
 .text.checkConnackTimeoutState
                0x00009150       0x10 dist/AWS_IOT/production/__pa_temp_4543/mqtt_core.o

.text.checkSubackTimeoutState
                0x00009160       0x10
 .text.checkSubackTimeoutState
                0x00009160       0x10 dist/AWS_IOT/production/__pa_temp_4543/mqtt_core.o

.text.checkUnsubackTimeoutState
                0x00009170       0x10
 .text.checkUnsubackTimeoutState
                0x00009170       0x10 dist/AWS_IOT/production/__pa_temp_4543/mqtt_core.o

.text.MQTT_ExchangeBufferInit
                0x00009180       0x10
 .text.MQTT_ExchangeBufferInit
                0x00009180       0x10 dist/AWS_IOT/production/__pa_temp_4543/mqtt_exchange_buffer.o
                0x00009180                MQTT_ExchangeBufferInit

.text.I2C0_DO_IDLE
                0x00009190       0x10
 .text.I2C0_DO_IDLE
                0x00009190       0x10 dist/AWS_IOT/production/__pa_temp_4543/twi0_master.o

.text.I2C0_MasterResetBus
                0x000091a0       0x10
 .text.I2C0_MasterResetBus
                0x000091a0       0x10 dist/AWS_IOT/production/__pa_temp_4543/twi0_master.o
                0x000091a0                I2C0_MasterResetBus

.__pa__271      0x000091b0       0x10
 .__pa__271     0x000091b0       0x10 dist/AWS_IOT/production/__pa_temp_4543/winc_spi.o
                0x000091b0                .__pa__271

.__pa__272      0x000091c0       0x10
 .__pa__272     0x000091c0       0x10 dist/AWS_IOT/production/__pa_temp_4543/winc_spi.o
                0x000091c0                .__pa__272

.text.winc_interrupt_handler
                0x000091d0       0x10
 .text.winc_interrupt_handler
                0x000091d0       0x10 dist/AWS_IOT/production/__pa_temp_4543/winc_adapter.o

.__pa__118      0x000091e0       0x10
 .__pa__118     0x000091e0       0x10 dist/AWS_IOT/production/__pa_temp_4543/winc_asic.o
                0x000091e0                .__pa__118

.text.m2m_wifi_default_connect
                0x000091f0       0x10
 .text.m2m_wifi_default_connect
                0x000091f0       0x10 dist/AWS_IOT/production/__pa_temp_4543/m2m_wifi.o
                0x000091f0                m2m_wifi_default_connect

.text.m2m_wifi_disconnect
                0x00009200       0x10
 .text.m2m_wifi_disconnect
                0x00009200       0x10 dist/AWS_IOT/production/__pa_temp_4543/m2m_wifi.o
                0x00009200                m2m_wifi_disconnect

.text.m2m_wifi_get_system_time
                0x00009210       0x10
 .text.m2m_wifi_get_system_time
                0x00009210       0x10 dist/AWS_IOT/production/__pa_temp_4543/m2m_wifi.o
                0x00009210                m2m_wifi_get_system_time

.__pa__178      0x00009220       0x10
 .__pa__178     0x00009220       0x10 dist/AWS_IOT/production/__pa_temp_4543/socket.o
                0x00009220                .__pa__178

.__pa__204      0x00009230       0x10
 .__pa__204     0x00009230       0x10 dist/AWS_IOT/production/__pa_temp_4543/socket.o
                0x00009230                .__pa__204

.__pa__18       0x00009240       0x10
 .__pa__18      0x00009240       0x10 dist/AWS_IOT/production/__pa_temp_4543/spi_flash.o
                0x00009240                .__pa__18

.__pa__19       0x00009250       0x10
 .__pa__19      0x00009250       0x10 dist/AWS_IOT/production/__pa_temp_4543/spi_flash.o
                0x00009250                .__pa__19

.__pa__114      0x00009260       0x10
 .__pa__114     0x00009260       0x10 dist/AWS_IOT/production/__pa_temp_4543/spi_flash.o
                0x00009260                .__pa__114

.__pa__237      0x00009270       0x10
 .__pa__237     0x00009270       0x10 dist/AWS_IOT/production/__pa_temp_4543/spi_flash.o
                0x00009270                .__pa__237

.text.LED_serviceInit
                0x00009280       0x10
 .text.LED_serviceInit
                0x00009280       0x10 build/AWS_IOT/production/mcc_generated_files/led.o
                0x00009280                LED_serviceInit

.text.wifiHandlerTask
                0x00009290        0xe
 .text.wifiHandlerTask
                0x00009290        0xe dist/AWS_IOT/production/__pa_temp_4543/wifi_service.o
                0x00009290                wifiHandlerTask

.__pa__87       0x0000929e        0xe
 .__pa__87      0x0000929e        0xe dist/AWS_IOT/production/__pa_temp_4543/aws_cloud_service.o
                0x0000929e                .__pa__87

.__pa__0        0x000092ac        0xe
 .__pa__0       0x000092ac        0xe dist/AWS_IOT/production/__pa_temp_4543/atcacert_client.o
                0x000092ac                .__pa__0

.text.atcab_genkey
                0x000092ba        0xe
 .text.atcab_genkey
                0x000092ba        0xe dist/AWS_IOT/production/__pa_temp_4543/atca_basic_genkey.o
                0x000092ba                atcab_genkey

.text.atcab_lock_data_slot
                0x000092c8        0xe
 .text.atcab_lock_data_slot
                0x000092c8        0xe dist/AWS_IOT/production/__pa_temp_4543/atca_basic_lock.o
                0x000092c8                atcab_lock_data_slot

.text.hal_iface_release
                0x000092d6        0xe
 .text.hal_iface_release
                0x000092d6        0xe dist/AWS_IOT/production/__pa_temp_4543/atca_hal.o
                0x000092d6                hal_iface_release

.__pa__185      0x000092e4        0xe
 .__pa__185     0x000092e4        0xe dist/AWS_IOT/production/__pa_temp_4543/atca_i2c_hal.o
                0x000092e4                .__pa__185

.__pa__66       0x000092f2        0xe
 .__pa__66      0x000092f2        0xe dist/AWS_IOT/production/__pa_temp_4543/mqtt_core.o
                0x000092f2                .__pa__66

.__pa__67       0x00009300        0xe
 .__pa__67      0x00009300        0xe dist/AWS_IOT/production/__pa_temp_4543/mqtt_core.o
                0x00009300                .__pa__67

.__pa__68       0x0000930e        0xe
 .__pa__68      0x0000930e        0xe dist/AWS_IOT/production/__pa_temp_4543/mqtt_core.o
                0x0000930e                .__pa__68

.__pa__51       0x0000931c        0xe
 .__pa__51      0x0000931c        0xe dist/AWS_IOT/production/__pa_temp_4543/mqtt_winc_adapter.o
                0x0000931c                .__pa__51

.text.USART2_IsRxReady
                0x0000932a        0xe
 .text.USART2_IsRxReady
                0x0000932a        0xe build/AWS_IOT/production/mcc_generated_files/src/usart2.o
                0x0000932a                USART2_IsRxReady

.text.winc_bus_init
                0x00009338        0xe
 .text.winc_bus_init
                0x00009338        0xe dist/AWS_IOT/production/__pa_temp_4543/winc_spi.o
                0x00009338                winc_bus_init

.__pa__188      0x00009346        0xe
 .__pa__188     0x00009346        0xe dist/AWS_IOT/production/__pa_temp_4543/winc_spi.o
                0x00009346                .__pa__188

.text.winc_adapter_interrupt_request_pending
                0x00009354        0xe
 .text.winc_adapter_interrupt_request_pending
                0x00009354        0xe dist/AWS_IOT/production/__pa_temp_4543/winc_adapter.o
                0x00009354                winc_adapter_interrupt_request_pending

.__pa__63       0x00009362        0xe
 .__pa__63      0x00009362        0xe dist/AWS_IOT/production/__pa_temp_4543/winc_adapter.o
                0x00009362                .__pa__63

.__pa__89       0x00009370        0xe
 .__pa__89      0x00009370        0xe dist/AWS_IOT/production/__pa_temp_4543/m2m_ssl.o
                0x00009370                .__pa__89

.__pa__90       0x0000937e        0xe
 .__pa__90      0x0000937e        0xe dist/AWS_IOT/production/__pa_temp_4543/m2m_ssl.o
                0x0000937e                .__pa__90

.__pa__112      0x0000938c        0xe
 .__pa__112     0x0000938c        0xe dist/AWS_IOT/production/__pa_temp_4543/m2m_wifi.o
                0x0000938c                .__pa__112

.__pa__22       0x0000939a        0xe
 .__pa__22      0x0000939a        0xe dist/AWS_IOT/production/__pa_temp_4543/socket.o
                0x0000939a                .__pa__22

.__pa__93       0x000093a8        0xe
 .__pa__93      0x000093a8        0xe dist/AWS_IOT/production/__pa_temp_4543/socket.o
                0x000093a8                .__pa__93

.__pa__94       0x000093b6        0xe
 .__pa__94      0x000093b6        0xe dist/AWS_IOT/production/__pa_temp_4543/socket.o
                0x000093b6                .__pa__94

.text.SLPCTRL_Initialize
                0x000093c4        0xe
 .text.SLPCTRL_Initialize
                0x000093c4        0xe build/AWS_IOT/production/mcc_generated_files/mcc.o
                0x000093c4                SLPCTRL_Initialize

.text.WDT_Initialize
                0x000093d2        0xe
 .text.WDT_Initialize
                0x000093d2        0xe build/AWS_IOT/production/mcc_generated_files/mcc.o
                0x000093d2                WDT_Initialize

.text.debug_setPrefix
                0x000093e0        0xe
 .text.debug_setPrefix
                0x000093e0        0xe dist/AWS_IOT/production/__pa_temp_4543/debug_print.o
                0x000093e0                debug_setPrefix

.text.libgcc.mul
                0x000093ee        0xe
 .text.libgcc.mul
                0x000093ee        0xe /opt/microchip/xc8/v2.10/avr/bin/../lib/gcc/avr/5.4.0/avrxmega3/libgcc.a(_usmulhisi3.o)
                0x000093ee                __usmulhisi3
                0x000093f2                __usmulhisi3_tail

.text.avrlibc   0x000093fc        0xe
 .text.avrlibc  0x000093fc        0xe /opt/microchip/xc8/v2.10/avr/bin/../lib/gcc/avr/5.4.0/../../../../avr/lib/avrxmega3/libc.a(memset.o)
                0x000093fc                memset

.text.avrlibc   0x0000940a        0xe
 .text.avrlibc  0x0000940a        0xe /opt/microchip/xc8/v2.10/avr/bin/../lib/gcc/avr/5.4.0/../../../../avr/lib/avrxmega3/libc.a(strcpy.o)
                0x0000940a                strcpy

.text.CLOUD_setInitFlag
                0x00009418        0xc
 .text.CLOUD_setInitFlag
                0x00009418        0xc dist/AWS_IOT/production/__pa_temp_4543/cloud_service.o
                0x00009418                CLOUD_setInitFlag

.text.softApConnectTask
                0x00009424        0xc
 .text.softApConnectTask
                0x00009424        0xc dist/AWS_IOT/production/__pa_temp_4543/wifi_service.o
                0x00009424                softApConnectTask

.text.NETWORK_wifiSslCallback
                0x00009430        0xc
 .text.NETWORK_wifiSslCallback
                0x00009430        0xc dist/AWS_IOT/production/__pa_temp_4543/aws_cloud_service.o
                0x00009430                NETWORK_wifiSslCallback

.__pa__52       0x0000943c        0xc
 .__pa__52      0x0000943c        0xc dist/AWS_IOT/production/__pa_temp_4543/atcacert_def.o
                0x0000943c                .__pa__52

.__pa__38       0x00009448        0xc
 .__pa__38      0x00009448        0xc dist/AWS_IOT/production/__pa_temp_4543/atca_basic_verify.o
                0x00009448                .__pa__38

.__pa__181      0x00009454        0xc
 .__pa__181     0x00009454        0xc dist/AWS_IOT/production/__pa_temp_4543/atca_basic_write.o
                0x00009454                .__pa__181

.text.atsend    0x00009460        0xc
 .text.atsend   0x00009460        0xc dist/AWS_IOT/production/__pa_temp_4543/atca_iface.o
                0x00009460                atsend

.text.atreceive
                0x0000946c        0xc
 .text.atreceive
                0x0000946c        0xc dist/AWS_IOT/production/__pa_temp_4543/atca_iface.o
                0x0000946c                atreceive

.__pa__27       0x00009478        0xc
 .__pa__27      0x00009478        0xc dist/AWS_IOT/production/__pa_temp_4543/mqtt_core.o
                0x00009478                .__pa__27

.text.RTC_EnablePITInterrupt
                0x00009484        0xc
 .text.RTC_EnablePITInterrupt
                0x00009484        0xc build/AWS_IOT/production/mcc_generated_files/src/rtc.o
                0x00009484                RTC_EnablePITInterrupt

.text.RTC_DisablePITInterrupt
                0x00009490        0xc
 .text.RTC_DisablePITInterrupt
                0x00009490        0xc build/AWS_IOT/production/mcc_generated_files/src/rtc.o
                0x00009490                RTC_DisablePITInterrupt

.text.RTC_ClearOVFInterruptFlag
                0x0000949c        0xc
 .text.RTC_ClearOVFInterruptFlag
                0x0000949c        0xc build/AWS_IOT/production/mcc_generated_files/src/rtc.o
                0x0000949c                RTC_ClearOVFInterruptFlag

.text.RTC_IsOVFInterruptEnabled
                0x000094a8        0xc
 .text.RTC_IsOVFInterruptEnabled
                0x000094a8        0xc build/AWS_IOT/production/mcc_generated_files/src/rtc.o
                0x000094a8                RTC_IsOVFInterruptEnabled

.text.I2C0_MasterDisableIrq
                0x000094b4        0xc
 .text.I2C0_MasterDisableIrq
                0x000094b4        0xc dist/AWS_IOT/production/__pa_temp_4543/twi0_master.o
                0x000094b4                I2C0_MasterDisableIrq

.text.I2C0_MasterClearIrq
                0x000094c0        0xc
 .text.I2C0_MasterClearIrq
                0x000094c0        0xc dist/AWS_IOT/production/__pa_temp_4543/twi0_master.o
                0x000094c0                I2C0_MasterClearIrq

.text.I2C0_MasterBusErrorOverride
                0x000094cc        0xc
 .text.I2C0_MasterBusErrorOverride
                0x000094cc        0xc dist/AWS_IOT/production/__pa_temp_4543/twi0_master.o
                0x000094cc                I2C0_MasterBusErrorOverride

.text.I2C0_MasterArbitrationlostOverride
                0x000094d8        0xc
 .text.I2C0_MasterArbitrationlostOverride
                0x000094d8        0xc dist/AWS_IOT/production/__pa_temp_4543/twi0_master.o
                0x000094d8                I2C0_MasterArbitrationlostOverride

.text.I2C0_MasterClearBusCollision
                0x000094e4        0xc
 .text.I2C0_MasterClearBusCollision
                0x000094e4        0xc dist/AWS_IOT/production/__pa_temp_4543/twi0_master.o
                0x000094e4                I2C0_MasterClearBusCollision

.text.winc_hif_init
                0x000094f0        0xc
 .text.winc_hif_init
                0x000094f0        0xc dist/AWS_IOT/production/__pa_temp_4543/winc_hif.o
                0x000094f0                winc_hif_init

.__pa__252      0x000094fc        0xc
 .__pa__252     0x000094fc        0xc dist/AWS_IOT/production/__pa_temp_4543/m2m_wifi.o
                0x000094fc                .__pa__252

.__pa__206      0x00009508        0xc
 .__pa__206     0x00009508        0xc dist/AWS_IOT/production/__pa_temp_4543/m2m_ota.o
                0x00009508                .__pa__206

.__pa__205      0x00009514        0xc
 .__pa__205     0x00009514        0xc dist/AWS_IOT/production/__pa_temp_4543/socket.o
                0x00009514                .__pa__205

.__pa__29       0x00009520        0xc
 .__pa__29      0x00009520        0xc dist/AWS_IOT/production/__pa_temp_4543/spi_flash.o
                0x00009520                .__pa__29

.__pa__228      0x0000952c        0xc
 .__pa__228     0x0000952c        0xc dist/AWS_IOT/production/__pa_temp_4543/spi_flash.o
                0x0000952c                .__pa__228

.__pa__14       0x00009538        0xc
 .__pa__14      0x00009538        0xc dist/AWS_IOT/production/__pa_temp_4543/sensors_handling.o
                0x00009538                .__pa__14

.text.libgcc    0x00009544        0xc
 .text.libgcc   0x00009544        0xc /opt/microchip/xc8/v2.10/avr/bin/../lib/gcc/avr/5.4.0/avrxmega3/libgcc.a(_tablejump2.o)
                0x00009544                __tablejump2__

.__pa__75       0x00009550        0xa
 .__pa__75      0x00009550        0xa dist/AWS_IOT/production/__pa_temp_4543/libc_a_puts.o
                0x00009550                .__pa__75

.__pa__136      0x0000955a        0xa
 .__pa__136     0x0000955a        0xa dist/AWS_IOT/production/__pa_temp_4543/libc_a_fputc.o
                0x0000955a                .__pa__136

.text.CLI_setdeviceId
                0x00009564        0xa
 .text.CLI_setdeviceId
                0x00009564        0xa dist/AWS_IOT/production/__pa_temp_4543/cli.o
                0x00009564                CLI_setdeviceId

.__pa__218      0x0000956e        0xa
 .__pa__218     0x0000956e        0xa dist/AWS_IOT/production/__pa_temp_4543/cli.o
                0x0000956e                .__pa__218

.text.ecdh_derive_server_shared_secret
                0x00009578        0xa
 .text.ecdh_derive_server_shared_secret
                0x00009578        0xa dist/AWS_IOT/production/__pa_temp_4543/crypto_client.o
                0x00009578                ecdh_derive_server_shared_secret

.text.CLOUD_publishData
                0x00009582        0xa
 .text.CLOUD_publishData
                0x00009582        0xa dist/AWS_IOT/production/__pa_temp_4543/cloud_service.o
                0x00009582                CLOUD_publishData

.text.CLOUD_checkIsConnected
                0x0000958c        0xa
 .text.CLOUD_checkIsConnected
                0x0000958c        0xa dist/AWS_IOT/production/__pa_temp_4543/cloud_service.o
                0x0000958c                CLOUD_checkIsConnected

.text.MQTT_SetPublishReceptionHandlerTable
                0x00009596        0xa
 .text.MQTT_SetPublishReceptionHandlerTable
                0x00009596        0xa dist/AWS_IOT/production/__pa_temp_4543/mqtt_service.o
                0x00009596                MQTT_SetPublishReceptionHandlerTable

.text.CLOUD_isDisconnected
                0x000095a0        0xa
 .text.CLOUD_isDisconnected
                0x000095a0        0xa dist/AWS_IOT/production/__pa_temp_4543/aws_cloud_service.o
                0x000095a0                CLOUD_isDisconnected

.__pa__37       0x000095aa        0xa
 .__pa__37      0x000095aa        0xa dist/AWS_IOT/production/__pa_temp_4543/aws_cloud_service.o
                0x000095aa                .__pa__37

.__pa__215      0x000095b4        0xa
 .__pa__215     0x000095b4        0xa dist/AWS_IOT/production/__pa_temp_4543/aws_cloud_service.o
                0x000095b4                .__pa__215

.__pa__13       0x000095be        0xa
 .__pa__13      0x000095be        0xa dist/AWS_IOT/production/__pa_temp_4543/atcacert_date.o
                0x000095be                .__pa__13

.__pa__42       0x000095c8        0xa
 .__pa__42      0x000095c8        0xa dist/AWS_IOT/production/__pa_temp_4543/atcacert_date.o
                0x000095c8                .__pa__42

.__pa__49       0x000095d2        0xa
 .__pa__49      0x000095d2        0xa dist/AWS_IOT/production/__pa_temp_4543/atcacert_date.o
                0x000095d2                .__pa__49

.__pa__55       0x000095dc        0xa
 .__pa__55      0x000095dc        0xa dist/AWS_IOT/production/__pa_temp_4543/atcacert_date.o
                0x000095dc                .__pa__55

.__pa__76       0x000095e6        0xa
 .__pa__76      0x000095e6        0xa dist/AWS_IOT/production/__pa_temp_4543/atcacert_date.o
                0x000095e6                .__pa__76

.__pa__81       0x000095f0        0xa
 .__pa__81      0x000095f0        0xa dist/AWS_IOT/production/__pa_temp_4543/atcacert_def.o
                0x000095f0                .__pa__81

.__pa__137      0x000095fa        0xa
 .__pa__137     0x000095fa        0xa dist/AWS_IOT/production/__pa_temp_4543/atcacert_def.o
                0x000095fa                .__pa__137

.__pa__172      0x00009604        0xa
 .__pa__172     0x00009604        0xa dist/AWS_IOT/production/__pa_temp_4543/atcacert_def.o
                0x00009604                .__pa__172

.__pa__174      0x0000960e        0xa
 .__pa__174     0x0000960e        0xa dist/AWS_IOT/production/__pa_temp_4543/atcacert_def.o
                0x0000960e                .__pa__174

.text.atcab_lock_config_zone
                0x00009618        0xa
 .text.atcab_lock_config_zone
                0x00009618        0xa dist/AWS_IOT/production/__pa_temp_4543/atca_basic_lock.o
                0x00009618                atcab_lock_config_zone

.text.atcab_lock_data_zone
                0x00009622        0xa
 .text.atcab_lock_data_zone
                0x00009622        0xa dist/AWS_IOT/production/__pa_temp_4543/atca_basic_lock.o
                0x00009622                atcab_lock_data_zone

.__pa__235      0x0000962c        0xa
 .__pa__235     0x0000962c        0xa dist/AWS_IOT/production/__pa_temp_4543/atca_basic_secureboot.o
                0x0000962c                .__pa__235

.__pa__123      0x00009636        0xa
 .__pa__123     0x00009636        0xa dist/AWS_IOT/production/__pa_temp_4543/atca_basic_sha.o
                0x00009636                .__pa__123

.__pa__126      0x00009640        0xa
 .__pa__126     0x00009640        0xa dist/AWS_IOT/production/__pa_temp_4543/atca_basic_sha.o
                0x00009640                .__pa__126

.__pa__84       0x0000964a        0xa
 .__pa__84      0x0000964a        0xa dist/AWS_IOT/production/__pa_temp_4543/sha1_routines.o
                0x0000964a                .__pa__84

.__pa__130      0x00009654        0xa
 .__pa__130     0x00009654        0xa dist/AWS_IOT/production/__pa_temp_4543/sha1_routines.o
                0x00009654                .__pa__130

.__pa__28       0x0000965e        0xa
 .__pa__28      0x0000965e        0xa dist/AWS_IOT/production/__pa_temp_4543/atca_i2c_hal.o
                0x0000965e                .__pa__28

.__pa__107      0x00009668        0xa
 .__pa__107     0x00009668        0xa dist/AWS_IOT/production/__pa_temp_4543/atca_i2c_hal.o
                0x00009668                .__pa__107

.__pa__106      0x00009672        0xa
 .__pa__106     0x00009672        0xa dist/AWS_IOT/production/__pa_temp_4543/atca_command.o
                0x00009672                .__pa__106

.__pa__184      0x0000967c        0xa
 .__pa__184     0x0000967c        0xa dist/AWS_IOT/production/__pa_temp_4543/atca_iface.o
                0x0000967c                .__pa__184

.__pa__145      0x00009686        0xa
 .__pa__145     0x00009686        0xa dist/AWS_IOT/production/__pa_temp_4543/timeout.o
                0x00009686                .__pa__145

.__pa__247      0x00009690        0xa
 .__pa__247     0x00009690        0xa dist/AWS_IOT/production/__pa_temp_4543/timeout.o
                0x00009690                .__pa__247

.__pa__30       0x0000969a        0xa
 .__pa__30      0x0000969a        0xa dist/AWS_IOT/production/__pa_temp_4543/i2c_simple_master.o
                0x0000969a                .__pa__30

.__pa__36       0x000096a4        0xa
 .__pa__36      0x000096a4        0xa dist/AWS_IOT/production/__pa_temp_4543/i2c_simple_master.o
                0x000096a4                .__pa__36

.__pa__100      0x000096ae        0xa
 .__pa__100     0x000096ae        0xa dist/AWS_IOT/production/__pa_temp_4543/mqtt_core.o
                0x000096ae                .__pa__100

.__pa__243      0x000096b8        0xa
 .__pa__243     0x000096b8        0xa dist/AWS_IOT/production/__pa_temp_4543/mqtt_core.o
                0x000096b8                .__pa__243

.text.MQTT_SetPublishReceptionCallback
                0x000096c2        0xa
 .text.MQTT_SetPublishReceptionCallback
                0x000096c2        0xa build/AWS_IOT/production/mcc_generated_files/mqtt/mqtt_packetTransfer_interface.o
                0x000096c2                MQTT_SetPublishReceptionCallback

.text.MQTT_GetPublishReceptionCallback
                0x000096cc        0xa
 .text.MQTT_GetPublishReceptionCallback
                0x000096cc        0xa build/AWS_IOT/production/mcc_generated_files/mqtt/mqtt_packetTransfer_interface.o
                0x000096cc                MQTT_GetPublishReceptionCallback

.text.BSD_SetRecvHandlerTable
                0x000096d6        0xa
 .text.BSD_SetRecvHandlerTable
                0x000096d6        0xa dist/AWS_IOT/production/__pa_temp_4543/mqtt_winc_adapter.o
                0x000096d6                BSD_SetRecvHandlerTable

.text.PORTF_INT_SetInterruptHandler
                0x000096e0        0xa
 .text.PORTF_INT_SetInterruptHandler
                0x000096e0        0xa dist/AWS_IOT/production/__pa_temp_4543/pin_manager.o
                0x000096e0                PORTF_INT_SetInterruptHandler

.text.RTC_SetOVFIsrCallback
                0x000096ea        0xa
 .text.RTC_SetOVFIsrCallback
                0x000096ea        0xa build/AWS_IOT/production/mcc_generated_files/src/rtc.o
                0x000096ea                RTC_SetOVFIsrCallback

.text.RTC_ReadCounter
                0x000096f4        0xa
 .text.RTC_ReadCounter
                0x000096f4        0xa build/AWS_IOT/production/mcc_generated_files/src/rtc.o
                0x000096f4                RTC_ReadCounter

.text.I2C0_SetDataCompleteCallback
                0x000096fe        0xa
 .text.I2C0_SetDataCompleteCallback
                0x000096fe        0xa dist/AWS_IOT/production/__pa_temp_4543/twi0_master.o
                0x000096fe                I2C0_SetDataCompleteCallback

.text.I2C0_SetAddressNackCallback
                0x00009708        0xa
 .text.I2C0_SetAddressNackCallback
                0x00009708        0xa dist/AWS_IOT/production/__pa_temp_4543/twi0_master.o
                0x00009708                I2C0_SetAddressNackCallback

.text.I2C0_MasterIsRxOrTx
                0x00009712        0xa
 .text.I2C0_MasterIsRxOrTx
                0x00009712        0xa dist/AWS_IOT/production/__pa_temp_4543/twi0_master.o
                0x00009712                I2C0_MasterIsRxOrTx

.text.I2C0_MasterStop
                0x0000971c        0xa
 .text.I2C0_MasterStop
                0x0000971c        0xa dist/AWS_IOT/production/__pa_temp_4543/twi0_master.o
                0x0000971c                I2C0_MasterStop

.text.I2C0_MasterIsNack
                0x00009726        0xa
 .text.I2C0_MasterIsNack
                0x00009726        0xa dist/AWS_IOT/production/__pa_temp_4543/twi0_master.o
                0x00009726                I2C0_MasterIsNack

.text.I2C0_MasterSendAck
                0x00009730        0xa
 .text.I2C0_MasterSendAck
                0x00009730        0xa dist/AWS_IOT/production/__pa_temp_4543/twi0_master.o
                0x00009730                I2C0_MasterSendAck

.text.I2C0_MasterSendNack
                0x0000973a        0xa
 .text.I2C0_MasterSendNack
                0x0000973a        0xa dist/AWS_IOT/production/__pa_temp_4543/twi0_master.o
                0x0000973a                I2C0_MasterSendNack

.text.USART2_printCHAR
                0x00009744        0xa
 .text.USART2_printCHAR
                0x00009744        0xa build/AWS_IOT/production/mcc_generated_files/src/usart2.o
                0x00009744                USART2_printCHAR

.text.winc_bus_deinit
                0x0000974e        0xa
 .text.winc_bus_deinit
                0x0000974e        0xa dist/AWS_IOT/production/__pa_temp_4543/winc_spi.o
                0x0000974e                winc_bus_deinit

.__pa__270      0x00009758        0xa
 .__pa__270     0x00009758        0xa dist/AWS_IOT/production/__pa_temp_4543/winc_hif.o
                0x00009758                .__pa__270

.__pa__35       0x00009762        0xa
 .__pa__35      0x00009762        0xa dist/AWS_IOT/production/__pa_temp_4543/winc_asic.o
                0x00009762                .__pa__35

.__pa__238      0x0000976c        0xa
 .__pa__238     0x0000976c        0xa dist/AWS_IOT/production/__pa_temp_4543/winc_asic.o
                0x0000976c                .__pa__238

.__pa__268      0x00009776        0xa
 .__pa__268     0x00009776        0xa dist/AWS_IOT/production/__pa_temp_4543/winc_asic.o
                0x00009776                .__pa__268

.__pa__269      0x00009780        0xa
 .__pa__269     0x00009780        0xa dist/AWS_IOT/production/__pa_temp_4543/winc_asic.o
                0x00009780                .__pa__269

.__pa__24       0x0000978a        0xa
 .__pa__24      0x0000978a        0xa dist/AWS_IOT/production/__pa_temp_4543/m2m_wifi.o
                0x0000978a                .__pa__24

.__pa__132      0x00009794        0xa
 .__pa__132     0x00009794        0xa dist/AWS_IOT/production/__pa_temp_4543/m2m_wifi.o
                0x00009794                .__pa__132

.__pa__54       0x0000979e        0xa
 .__pa__54      0x0000979e        0xa dist/AWS_IOT/production/__pa_temp_4543/m2m_ota.o
                0x0000979e                .__pa__54

.__pa__74       0x000097a8        0xa
 .__pa__74      0x000097a8        0xa dist/AWS_IOT/production/__pa_temp_4543/socket.o
                0x000097a8                .__pa__74

.__pa__251      0x000097b2        0xa
 .__pa__251     0x000097b2        0xa dist/AWS_IOT/production/__pa_temp_4543/socket.o
                0x000097b2                .__pa__251

.__pa__256      0x000097bc        0xa
 .__pa__256     0x000097bc        0xa dist/AWS_IOT/production/__pa_temp_4543/socket.o
                0x000097bc                .__pa__256

.__pa__257      0x000097c6        0xa
 .__pa__257     0x000097c6        0xa dist/AWS_IOT/production/__pa_temp_4543/socket.o
                0x000097c6                .__pa__257

.__pa__171      0x000097d0        0xa
 .__pa__171     0x000097d0        0xa dist/AWS_IOT/production/__pa_temp_4543/spi_flash.o
                0x000097d0                .__pa__171

.__pa__259      0x000097da        0xa
 .__pa__259     0x000097da        0xa dist/AWS_IOT/production/__pa_temp_4543/spi_flash.o
                0x000097da                .__pa__259

.__pa__261      0x000097e4        0xa
 .__pa__261     0x000097e4        0xa dist/AWS_IOT/production/__pa_temp_4543/spi_flash.o
                0x000097e4                .__pa__261

.text.wifiConnectionStateChanged
                0x000097ee        0xa
 .text.wifiConnectionStateChanged
                0x000097ee        0xa dist/AWS_IOT/production/__pa_temp_4543/application_manager.o

.__pa__220      0x000097f8        0xa
 .__pa__220     0x000097f8        0xa dist/AWS_IOT/production/__pa_temp_4543/application_manager.o
                0x000097f8                .__pa__220

.text.debug_init
                0x00009802        0xa
 .text.debug_init
                0x00009802        0xa dist/AWS_IOT/production/__pa_temp_4543/debug_print.o
                0x00009802                debug_init

.text.LED_modeRed
                0x0000980c        0xa
 .text.LED_modeRed
                0x0000980c        0xa build/AWS_IOT/production/mcc_generated_files/led.o
                0x0000980c                LED_modeRed

.text.LED_modeBlue
                0x00009816        0xa
 .text.LED_modeBlue
                0x00009816        0xa build/AWS_IOT/production/mcc_generated_files/led.o
                0x00009816                LED_modeBlue

.text.LED_modeGreen
                0x00009820        0xa
 .text.LED_modeGreen
                0x00009820        0xa build/AWS_IOT/production/mcc_generated_files/led.o
                0x00009820                LED_modeGreen

.text.LED_modeYellow
                0x0000982a        0xa
 .text.LED_modeYellow
                0x0000982a        0xa build/AWS_IOT/production/mcc_generated_files/led.o
                0x0000982a                LED_modeYellow

.__pa__71       0x00009834        0xa
 .__pa__71      0x00009834        0xa dist/AWS_IOT/production/__pa_temp_4543/time_service.o
                0x00009834                .__pa__71

.text.startup.main
                0x0000983e        0xa
 .text.startup.main
                0x0000983e        0xa build/AWS_IOT/production/main.o
                0x0000983e                main

.text.avrlibc   0x00009848        0xa
 .text.avrlibc  0x00009848        0xa /opt/microchip/xc8/v2.10/avr/bin/../lib/gcc/avr/5.4.0/../../../../avr/lib/avrxmega3/libc.a(strtok.o)
                0x00009848                strtok

.text           0x00009852        0xa
 .text          0x00009852        0xa /opt/microchip/xc8/v2.10/avr/bin/../lib/gcc/avr/5.4.0/../../../../avr/lib/avrxmega3/libc.a(difftime.o)
                0x00009852                difftime

.__pa__177      0x0000985c        0x8
 .__pa__177     0x0000985c        0x8 dist/AWS_IOT/production/__pa_temp_4543/crypto_client.o
                0x0000985c                .__pa__177

.__pa__209      0x00009864        0x8
 .__pa__209     0x00009864        0x8 dist/AWS_IOT/production/__pa_temp_4543/crypto_client.o
                0x00009864                .__pa__209

.__pa__32       0x0000986c        0x8
 .__pa__32      0x0000986c        0x8 dist/AWS_IOT/production/__pa_temp_4543/cloud_service.o
                0x0000986c                .__pa__32

.__pa__115      0x00009874        0x8
 .__pa__115     0x00009874        0x8 dist/AWS_IOT/production/__pa_temp_4543/atcacert_client.o
                0x00009874                .__pa__115

.__pa__165      0x0000987c        0x8
 .__pa__165     0x0000987c        0x8 dist/AWS_IOT/production/__pa_temp_4543/atcacert_client.o
                0x0000987c                .__pa__165

.__pa__125      0x00009884        0x8
 .__pa__125     0x00009884        0x8 dist/AWS_IOT/production/__pa_temp_4543/atcacert_date.o
                0x00009884                .__pa__125

.__pa__3        0x0000988c        0x8
 .__pa__3       0x0000988c        0x8 dist/AWS_IOT/production/__pa_temp_4543/atcacert_def.o
                0x0000988c                .__pa__3

.__pa__34       0x00009894        0x8
 .__pa__34      0x00009894        0x8 dist/AWS_IOT/production/__pa_temp_4543/atcacert_def.o
                0x00009894                .__pa__34

.__pa__82       0x0000989c        0x8
 .__pa__82      0x0000989c        0x8 dist/AWS_IOT/production/__pa_temp_4543/atcacert_def.o
                0x0000989c                .__pa__82

.__pa__121      0x000098a4        0x8
 .__pa__121     0x000098a4        0x8 dist/AWS_IOT/production/__pa_temp_4543/atcacert_def.o
                0x000098a4                .__pa__121

.__pa__149      0x000098ac        0x8
 .__pa__149     0x000098ac        0x8 dist/AWS_IOT/production/__pa_temp_4543/atcacert_def.o
                0x000098ac                .__pa__149

.__pa__150      0x000098b4        0x8
 .__pa__150     0x000098b4        0x8 dist/AWS_IOT/production/__pa_temp_4543/atcacert_def.o
                0x000098b4                .__pa__150

.__pa__151      0x000098bc        0x8
 .__pa__151     0x000098bc        0x8 dist/AWS_IOT/production/__pa_temp_4543/atcacert_def.o
                0x000098bc                .__pa__151

.__pa__154      0x000098c4        0x8
 .__pa__154     0x000098c4        0x8 dist/AWS_IOT/production/__pa_temp_4543/atcacert_def.o
                0x000098c4                .__pa__154

.__pa__159      0x000098cc        0x8
 .__pa__159     0x000098cc        0x8 dist/AWS_IOT/production/__pa_temp_4543/atcacert_def.o
                0x000098cc                .__pa__159

.__pa__167      0x000098d4        0x8
 .__pa__167     0x000098d4        0x8 dist/AWS_IOT/production/__pa_temp_4543/atcacert_def.o
                0x000098d4                .__pa__167

.__pa__168      0x000098dc        0x8
 .__pa__168     0x000098dc        0x8 dist/AWS_IOT/production/__pa_temp_4543/atcacert_def.o
                0x000098dc                .__pa__168

.__pa__191      0x000098e4        0x8
 .__pa__191     0x000098e4        0x8 dist/AWS_IOT/production/__pa_temp_4543/atcacert_def.o
                0x000098e4                .__pa__191

.__pa__64       0x000098ec        0x8
 .__pa__64      0x000098ec        0x8 dist/AWS_IOT/production/__pa_temp_4543/atca_basic_secureboot.o
                0x000098ec                .__pa__64

.__pa__248      0x000098f4        0x8
 .__pa__248     0x000098f4        0x8 dist/AWS_IOT/production/__pa_temp_4543/atca_basic_write.o
                0x000098f4                .__pa__248

.__pa__59       0x000098fc        0x8
 .__pa__59      0x000098fc        0x8 dist/AWS_IOT/production/__pa_temp_4543/sha1_routines.o
                0x000098fc                .__pa__59

.text.atgetifacecfg
                0x00009904        0x8
 .text.atgetifacecfg
                0x00009904        0x8 dist/AWS_IOT/production/__pa_temp_4543/atca_iface.o
                0x00009904                atgetifacecfg

.text.timeout_initialize
                0x0000990c        0x8
 .text.timeout_initialize
                0x0000990c        0x8 dist/AWS_IOT/production/__pa_temp_4543/timeout.o
                0x0000990c                timeout_initialize

.__pa__110      0x00009914        0x8
 .__pa__110     0x00009914        0x8 dist/AWS_IOT/production/__pa_temp_4543/timeout.o
                0x00009914                .__pa__110

.__pa__241      0x0000991c        0x8
 .__pa__241     0x0000991c        0x8 dist/AWS_IOT/production/__pa_temp_4543/mqtt_core.o
                0x0000991c                .__pa__241

.__pa__210      0x00009924        0x8
 .__pa__210     0x00009924        0x8 dist/AWS_IOT/production/__pa_temp_4543/mqtt_winc_adapter.o
                0x00009924                .__pa__210

.__pa__213      0x0000992c        0x8
 .__pa__213     0x0000992c        0x8 dist/AWS_IOT/production/__pa_temp_4543/mqtt_winc_adapter.o
                0x0000992c                .__pa__213

.__pa__7        0x00009934        0x8
 .__pa__7       0x00009934        0x8 dist/AWS_IOT/production/__pa_temp_4543/pin_manager.o
                0x00009934                .__pa__7

.text.protected_write_io
                0x0000993c        0x8
 .text.protected_write_io
                0x0000993c        0x8 build/AWS_IOT/production/mcc_generated_files/src/protected_io.o
                0x0000993c                protected_write_io

.text.I2C0_DO_TX_ACK
                0x00009944        0x8
 .text.I2C0_DO_TX_ACK
                0x00009944        0x8 dist/AWS_IOT/production/__pa_temp_4543/twi0_master.o

.text.I2C0_DO_RX_ACK
                0x0000994c        0x8
 .text.I2C0_DO_RX_ACK
                0x0000994c        0x8 dist/AWS_IOT/production/__pa_temp_4543/twi0_master.o

.text.I2C0_DO_RX_NACK_RESTART
                0x00009954        0x8
 .text.I2C0_DO_RX_NACK_RESTART
                0x00009954        0x8 dist/AWS_IOT/production/__pa_temp_4543/twi0_master.o

.__pa__6        0x0000995c        0x8
 .__pa__6       0x0000995c        0x8 dist/AWS_IOT/production/__pa_temp_4543/twi0_master.o
                0x0000995c                .__pa__6

.__pa__236      0x00009964        0x8
 .__pa__236     0x00009964        0x8 dist/AWS_IOT/production/__pa_temp_4543/twi0_master.o
                0x00009964                .__pa__236

.text.ADC0_IsConversionDone
                0x0000996c        0x8
 .text.ADC0_IsConversionDone
                0x0000996c        0x8 build/AWS_IOT/production/mcc_generated_files/src/adc0.o
                0x0000996c                ADC0_IsConversionDone

.text.winc_adapter_chip_enable_assert
                0x00009974        0x8
 .text.winc_adapter_chip_enable_assert
                0x00009974        0x8 dist/AWS_IOT/production/__pa_temp_4543/winc_adapter.o
                0x00009974                winc_adapter_chip_enable_assert

.text.winc_adapter_chip_enable_deassert
                0x0000997c        0x8
 .text.winc_adapter_chip_enable_deassert
                0x0000997c        0x8 dist/AWS_IOT/production/__pa_temp_4543/winc_adapter.o
                0x0000997c                winc_adapter_chip_enable_deassert

.text.winc_adapter_reset_assert
                0x00009984        0x8
 .text.winc_adapter_reset_assert
                0x00009984        0x8 dist/AWS_IOT/production/__pa_temp_4543/winc_adapter.o
                0x00009984                winc_adapter_reset_assert

.text.winc_adapter_reset_deassert
                0x0000998c        0x8
 .text.winc_adapter_reset_deassert
                0x0000998c        0x8 dist/AWS_IOT/production/__pa_temp_4543/winc_adapter.o
                0x0000998c                winc_adapter_reset_deassert

.__pa__262      0x00009994        0x8
 .__pa__262     0x00009994        0x8 dist/AWS_IOT/production/__pa_temp_4543/winc_asic.o
                0x00009994                .__pa__262

.__pa__134      0x0000999c        0x8
 .__pa__134     0x0000999c        0x8 dist/AWS_IOT/production/__pa_temp_4543/m2m_wifi.o
                0x0000999c                .__pa__134

.__pa__73       0x000099a4        0x8
 .__pa__73      0x000099a4        0x8 dist/AWS_IOT/production/__pa_temp_4543/socket.o
                0x000099a4                .__pa__73

.text.ccp_write_io
                0x000099ac        0x8
 .text.ccp_write_io
                0x000099ac        0x8 build/AWS_IOT/production/mcc_generated_files/mcc.o

.__pa__43       0x000099b4        0x8
 .__pa__43      0x000099b4        0x8 dist/AWS_IOT/production/__pa_temp_4543/application_manager.o
                0x000099b4                .__pa__43

.__pa__61       0x000099bc        0x8
 .__pa__61      0x000099bc        0x8 dist/AWS_IOT/production/__pa_temp_4543/application_manager.o
                0x000099bc                .__pa__61

.__pa__21       0x000099c4        0x8
 .__pa__21      0x000099c4        0x8 dist/AWS_IOT/production/__pa_temp_4543/sensors_handling.o
                0x000099c4                .__pa__21

.text.avrlibc   0x000099cc        0x8
 .text.avrlibc  0x000099cc        0x8 /opt/microchip/xc8/v2.10/avr/bin/../lib/gcc/avr/5.4.0/../../../../avr/lib/avrxmega3/libc.a(atoi_M.o)
                0x000099cc                atoi

.text.libgcc.div
                0x000099d4        0x6
 .text.libgcc.div
                0x000099d4        0x6 dist/AWS_IOT/production/__pa_temp_4543/libgcc_a__negsi2.o
                0x000099d4                __negsi2

.text.WINC_open
                0x000099da        0x6
 .text.WINC_open
                0x000099da        0x6 build/AWS_IOT/production/mcc_generated_files/drivers/spi_master.o
                0x000099da                WINC_open

.text.dummyHandler
                0x000099e0        0x6
 .text.dummyHandler
                0x000099e0        0x6 dist/AWS_IOT/production/__pa_temp_4543/timeout.o
                0x000099e0                dummyHandler

.text.MQTT_GetClientConnectionInfo
                0x000099e6        0x6
 .text.MQTT_GetClientConnectionInfo
                0x000099e6        0x6 dist/AWS_IOT/production/__pa_temp_4543/mqtt_comm_layer.o
                0x000099e6                MQTT_GetClientConnectionInfo

.text.MQTT_initialiseState
                0x000099ec        0x6
 .text.MQTT_initialiseState
                0x000099ec        0x6 dist/AWS_IOT/production/__pa_temp_4543/mqtt_core.o
                0x000099ec                MQTT_initialiseState

.text.MQTT_GetConnectionState
                0x000099f2        0x6
 .text.MQTT_GetConnectionState
                0x000099f2        0x6 dist/AWS_IOT/production/__pa_temp_4543/mqtt_core.o
                0x000099f2                MQTT_GetConnectionState

.text.MQTT_GetLastHandlerState
                0x000099f8        0x6
 .text.MQTT_GetLastHandlerState
                0x000099f8        0x6 dist/AWS_IOT/production/__pa_temp_4543/mqtt_core.o
                0x000099f8                MQTT_GetLastHandlerState

.text.MQTT_GetLastReceivedPacketHeader
                0x000099fe        0x6
 .text.MQTT_GetLastReceivedPacketHeader
                0x000099fe        0x6 dist/AWS_IOT/production/__pa_temp_4543/mqtt_core.o
                0x000099fe                MQTT_GetLastReceivedPacketHeader

.text.BSD_htons
                0x00009a04        0x6
 .text.BSD_htons
                0x00009a04        0x6 dist/AWS_IOT/production/__pa_temp_4543/mqtt_winc_adapter.o
                0x00009a04                BSD_htons

.text.SPI0_Close
                0x00009a0a        0x6
 .text.SPI0_Close
                0x00009a0a        0x6 build/AWS_IOT/production/mcc_generated_files/src/spi0.o
                0x00009a0a                SPI0_Close

.text.SPI0_WriteByte
                0x00009a10        0x6
 .text.SPI0_WriteByte
                0x00009a10        0x6 build/AWS_IOT/production/mcc_generated_files/src/spi0.o
                0x00009a10                SPI0_WriteByte

.text.SPI0_ReadByte
                0x00009a16        0x6
 .text.SPI0_ReadByte
                0x00009a16        0x6 build/AWS_IOT/production/mcc_generated_files/src/spi0.o
                0x00009a16                SPI0_ReadByte

.text.I2C0_MasterRead
                0x00009a1c        0x6
 .text.I2C0_MasterRead
                0x00009a1c        0x6 dist/AWS_IOT/production/__pa_temp_4543/twi0_master.o
                0x00009a1c                I2C0_MasterRead

.text.I2C0_MasterWrite
                0x00009a22        0x6
 .text.I2C0_MasterWrite
                0x00009a22        0x6 dist/AWS_IOT/production/__pa_temp_4543/twi0_master.o
                0x00009a22                I2C0_MasterWrite

.text.winc_bus_error
                0x00009a28        0x6
 .text.winc_bus_error
                0x00009a28        0x6 dist/AWS_IOT/production/__pa_temp_4543/winc_spi.o
                0x00009a28                winc_bus_error

.text.debug_setSeverity
                0x00009a2e        0x6
 .text.debug_setSeverity
                0x00009a2e        0x6 dist/AWS_IOT/production/__pa_temp_4543/debug_print.o
                0x00009a2e                debug_setSeverity

.text.SENSORS_getLightValue
                0x00009a34        0x6
 .text.SENSORS_getLightValue
                0x00009a34        0x6 dist/AWS_IOT/production/__pa_temp_4543/sensors_handling.o
                0x00009a34                SENSORS_getLightValue

.text           0x00009a3a        0x4
 .text          0x00009a3a        0x4 /opt/microchip/mplabx/v5.30/packs/Microchip/ATmega_DFP/2.0.12/gcc/dev/atmega4808/avrxmega3/crtatmega4808.o
                0x00009a3a                __vector_28
                0x00009a3a                __vector_1
                0x00009a3a                __vector_34
                0x00009a3a                __vector_24
                0x00009a3a                __vector_12
                0x00009a3a                __bad_interrupt
                0x00009a3a                __vector_6
                0x00009a3a                __vector_35
                0x00009a3a                __vector_30
                0x00009a3a                __vector_25
                0x00009a3a                __vector_11
                0x00009a3a                __vector_13
                0x00009a3a                __vector_17
                0x00009a3a                __vector_19
                0x00009a3a                __vector_7
                0x00009a3a                __vector_27
                0x00009a3a                __vector_5
                0x00009a3a                __vector_9
                0x00009a3a                __vector_21
                0x00009a3a                __vector_15
                0x00009a3a                __vector_8
                0x00009a3a                __vector_26
                0x00009a3a                __vector_14
                0x00009a3a                __vector_10
                0x00009a3a                __vector_16
                0x00009a3a                __vector_18
                0x00009a3a                __vector_20

.text.MQTT_CLIENT_receive
                0x00009a3e        0x4
 .text.MQTT_CLIENT_receive
                0x00009a3e        0x4 dist/AWS_IOT/production/__pa_temp_4543/mqtt_service.o
                0x00009a3e                MQTT_CLIENT_receive

.text.CLOUD_publish
                0x00009a42        0x4
 .text.CLOUD_publish
                0x00009a42        0x4 dist/AWS_IOT/production/__pa_temp_4543/aws_cloud_service.o
                0x00009a42                CLOUD_publish

.text.hal_i2c_post_init
                0x00009a46        0x4
 .text.hal_i2c_post_init
                0x00009a46        0x4 dist/AWS_IOT/production/__pa_temp_4543/atca_i2c_hal.o
                0x00009a46                hal_i2c_post_init

.text.hal_i2c_release
                0x00009a4a        0x4
 .text.hal_i2c_release
                0x00009a4a        0x4 dist/AWS_IOT/production/__pa_temp_4543/atca_i2c_hal.o
                0x00009a4a                hal_i2c_release

.text.RTC_EnableOVFInterrupt
                0x00009a4e        0x4
 .text.RTC_EnableOVFInterrupt
                0x00009a4e        0x4 build/AWS_IOT/production/mcc_generated_files/src/rtc.o
                0x00009a4e                RTC_EnableOVFInterrupt

.text.RTC_DisableOVFInterrupt
                0x00009a52        0x4
 .text.RTC_DisableOVFInterrupt
                0x00009a52        0x4 build/AWS_IOT/production/mcc_generated_files/src/rtc.o
                0x00009a52                RTC_DisableOVFInterrupt

.text.I2C0_DO_SEND_RESTART
                0x00009a56        0x4
 .text.I2C0_DO_SEND_RESTART
                0x00009a56        0x4 dist/AWS_IOT/production/__pa_temp_4543/twi0_master.o

.text.I2C0_DO_SEND_RESTART_WRITE
                0x00009a5a        0x4
 .text.I2C0_DO_SEND_RESTART_WRITE
                0x00009a5a        0x4 dist/AWS_IOT/production/__pa_temp_4543/twi0_master.o

.text.I2C0_RETURN_RESET
                0x00009a5e        0x4
 .text.I2C0_RETURN_RESET
                0x00009a5e        0x4 dist/AWS_IOT/production/__pa_temp_4543/twi0_master.o

.text.I2C0_RETURN_STOP
                0x00009a62        0x4
 .text.I2C0_RETURN_STOP
                0x00009a62        0x4 dist/AWS_IOT/production/__pa_temp_4543/twi0_master.o

.text.I2C0_DO_SEND_RESTART_READ
                0x00009a66        0x4
 .text.I2C0_DO_SEND_RESTART_READ
                0x00009a66        0x4 dist/AWS_IOT/production/__pa_temp_4543/twi0_master.o

.text.I2C0_SetRestartWriteCallback
                0x00009a6a        0x4
 .text.I2C0_SetRestartWriteCallback
                0x00009a6a        0x4 dist/AWS_IOT/production/__pa_temp_4543/twi0_master.o
                0x00009a6a                I2C0_SetRestartWriteCallback

.text.winc_adapter_deinit
                0x00009a6e        0x4
 .text.winc_adapter_deinit
                0x00009a6e        0x4 dist/AWS_IOT/production/__pa_temp_4543/winc_adapter.o
                0x00009a6e                winc_adapter_deinit

.text.winc_adapter_spi_open
                0x00009a72        0x4
 .text.winc_adapter_spi_open
                0x00009a72        0x4 dist/AWS_IOT/production/__pa_temp_4543/winc_adapter.o
                0x00009a72                winc_adapter_spi_open

.text.winc_adapter_spi_close
                0x00009a76        0x4
 .text.winc_adapter_spi_close
                0x00009a76        0x4 dist/AWS_IOT/production/__pa_temp_4543/winc_adapter.o
                0x00009a76                winc_adapter_spi_close

.text.winc_hif_deinit
                0x00009a7a        0x4
 .text.winc_hif_deinit
                0x00009a7a        0x4 dist/AWS_IOT/production/__pa_temp_4543/winc_hif.o
                0x00009a7a                winc_hif_deinit

.text.m2m_wifi_handle_events
                0x00009a7e        0x4
 .text.m2m_wifi_handle_events
                0x00009a7e        0x4 dist/AWS_IOT/production/__pa_temp_4543/m2m_wifi.o
                0x00009a7e                m2m_wifi_handle_events

.text.runScheduler
                0x00009a82        0x4
 .text.runScheduler
                0x00009a82        0x4 dist/AWS_IOT/production/__pa_temp_4543/application_manager.o
                0x00009a82                runScheduler

.text.TIME_getDiffTime
                0x00009a86        0x4
 .text.TIME_getDiffTime
                0x00009a86        0x4 dist/AWS_IOT/production/__pa_temp_4543/time_service.o
                0x00009a86                TIME_getDiffTime

.text.PORTF_WAKE_DefaultInterruptHandler
                0x00009a8a        0x2
 .text.PORTF_WAKE_DefaultInterruptHandler
                0x00009a8a        0x2 dist/AWS_IOT/production/__pa_temp_4543/pin_manager.o
                0x00009a8a                PORTF_WAKE_DefaultInterruptHandler

.text.PORTF_SW0_DefaultInterruptHandler
                0x00009a8c        0x2
 .text.PORTF_SW0_DefaultInterruptHandler
                0x00009a8c        0x2 dist/AWS_IOT/production/__pa_temp_4543/pin_manager.o
                0x00009a8c                PORTF_SW0_DefaultInterruptHandler

.text.PORTF_PF1_DefaultInterruptHandler
                0x00009a8e        0x2
 .text.PORTF_PF1_DefaultInterruptHandler
                0x00009a8e        0x2 dist/AWS_IOT/production/__pa_temp_4543/pin_manager.o
                0x00009a8e                PORTF_PF1_DefaultInterruptHandler

.text.PORTF_PF0_DefaultInterruptHandler
                0x00009a90        0x2
 .text.PORTF_PF0_DefaultInterruptHandler
                0x00009a90        0x2 dist/AWS_IOT/production/__pa_temp_4543/pin_manager.o
                0x00009a90                PORTF_PF0_DefaultInterruptHandler

.text.PORTF_CE_DefaultInterruptHandler
                0x00009a92        0x2
 .text.PORTF_CE_DefaultInterruptHandler
                0x00009a92        0x2 dist/AWS_IOT/production/__pa_temp_4543/pin_manager.o
                0x00009a92                PORTF_CE_DefaultInterruptHandler

.text.PORTF_INT_DefaultInterruptHandler
                0x00009a94        0x2
 .text.PORTF_INT_DefaultInterruptHandler
                0x00009a94        0x2 dist/AWS_IOT/production/__pa_temp_4543/pin_manager.o
                0x00009a94                PORTF_INT_DefaultInterruptHandler

.text.PORTF_SW1_DefaultInterruptHandler
                0x00009a96        0x2
 .text.PORTF_SW1_DefaultInterruptHandler
                0x00009a96        0x2 dist/AWS_IOT/production/__pa_temp_4543/pin_manager.o
                0x00009a96                PORTF_SW1_DefaultInterruptHandler

.text.hif_null_cb
                0x00009a98        0x2
 .text.hif_null_cb
                0x00009a98        0x2 dist/AWS_IOT/production/__pa_temp_4543/winc_hif.o

.text.m2m_ssl_stop_processing_certs
                0x00009a9a        0x2
 .text.m2m_ssl_stop_processing_certs
                0x00009a9a        0x2 dist/AWS_IOT/production/__pa_temp_4543/m2m_ssl.o
                0x00009a9a                m2m_ssl_stop_processing_certs

.data.WiFiCbTable
                0x00802fef       0x2d load address 0x00009a9c
 .data.WiFiCbTable
                0x00802fef       0x2d dist/AWS_IOT/production/__pa_temp_4543/m2m_wifi.o

.data.cfg_ateccx08a_i2c_custom
                0x0080301c       0x26 load address 0x00009ac9
 .data.cfg_ateccx08a_i2c_custom
                0x0080301c       0x26 dist/AWS_IOT/production/__pa_temp_4543/crypto_client.o
                0x0080301c                cfg_ateccx08a_i2c_custom

.data.secureCfg
                0x00803042       0x26 load address 0x00009aef
 .data.secureCfg
                0x00803042       0x26 build/AWS_IOT/production/mcc_generated_files/CryptoAuthenticationLibrary/CryptoAuth_init.o
                0x00803042                secureCfg

.data.I2C0_fsmStateTable
                0x00803068       0x24 load address 0x00009b15
 .data.I2C0_fsmStateTable
                0x00803068       0x24 dist/AWS_IOT/production/__pa_temp_4543/twi0_master.o
                0x00803068                I2C0_fsmStateTable

.data.gacHttpProvDomainName.5271
                0x008030cd       0x15 load address 0x00009b39
 .data.gacHttpProvDomainName.5271
                0x008030cd       0x15 dist/AWS_IOT/production/__pa_temp_4543/wifi_service.o

.data.attDeviceID
                0x008030e2       0x14 load address 0x00009b4e
 .data.attDeviceID
                0x008030e2       0x14 dist/AWS_IOT/production/__pa_temp_4543/application_manager.o
                0x008030e2                attDeviceID

.data.debug_message_prefix
                0x008030f6       0x14 load address 0x00009b62
 .data.debug_message_prefix
                0x008030f6       0x14 dist/AWS_IOT/production/__pa_temp_4543/debug_print.o

.data.cloudContext
                0x0080311c       0x10 load address 0x00009b76
 .data.cloudContext
                0x0080311c       0x10 dist/AWS_IOT/production/__pa_temp_4543/cloud_service.o
                0x0080311c                cloudContext

.data.USART2_stream
                0x0080314a        0xe load address 0x00009b86
 .data.USART2_stream
                0x0080314a        0xe build/AWS_IOT/production/mcc_generated_files/src/usart2.o
                0x0080314a                USART2_stream

.data.CLI_task_timer
                0x00803165        0xa load address 0x00009b94
 .data.CLI_task_timer
                0x00803165        0xa dist/AWS_IOT/production/__pa_temp_4543/cli.o
                0x00803165                CLI_task_timer

.data.cloudResetTaskTimer
                0x0080316f        0xa load address 0x00009b9e
 .data.cloudResetTaskTimer
                0x0080316f        0xa dist/AWS_IOT/production/__pa_temp_4543/cloud_service.o
                0x0080316f                cloudResetTaskTimer

.data.mqttTimeoutTaskTimer
                0x00803179        0xa load address 0x00009ba8
 .data.mqttTimeoutTaskTimer
                0x00803179        0xa dist/AWS_IOT/production/__pa_temp_4543/cloud_service.o
                0x00803179                mqttTimeoutTaskTimer

.data.cloudTaskTimer
                0x00803183        0xa load address 0x00009bb2
 .data.cloudTaskTimer
                0x00803183        0xa dist/AWS_IOT/production/__pa_temp_4543/cloud_service.o
                0x00803183                cloudTaskTimer

.data.checkBackTimer
                0x0080318d        0xa load address 0x00009bbc
 .data.checkBackTimer
                0x0080318d        0xa dist/AWS_IOT/production/__pa_temp_4543/wifi_service.o
                0x0080318d                checkBackTimer

.data.wifiHandlerTimer
                0x00803197        0xa load address 0x00009bc6
 .data.wifiHandlerTimer
                0x00803197        0xa dist/AWS_IOT/production/__pa_temp_4543/wifi_service.o
                0x00803197                wifiHandlerTimer

.data.ntpTimeFetchTimer
                0x008031a1        0xa load address 0x00009bd0
 .data.ntpTimeFetchTimer
                0x008031a1        0xa dist/AWS_IOT/production/__pa_temp_4543/wifi_service.o
                0x008031a1                ntpTimeFetchTimer

.data.softApConnectTimer
                0x008031ab        0xa load address 0x00009bda
 .data.softApConnectTimer
                0x008031ab        0xa dist/AWS_IOT/production/__pa_temp_4543/wifi_service.o
                0x008031ab                softApConnectTimer

.data.dummy     0x008031b5        0xa load address 0x00009be4
 .data.dummy    0x008031b5        0xa dist/AWS_IOT/production/__pa_temp_4543/timeout.o
                0x008031b5                dummy

.data.unsubackTimer
                0x008031bf        0xa load address 0x00009bee
 .data.unsubackTimer
                0x008031bf        0xa dist/AWS_IOT/production/__pa_temp_4543/mqtt_core.o
                0x008031bf                unsubackTimer

.data.subackTimer
                0x008031c9        0xa load address 0x00009bf8
 .data.subackTimer
                0x008031c9        0xa dist/AWS_IOT/production/__pa_temp_4543/mqtt_core.o
                0x008031c9                subackTimer

.data.pingrespTimer
                0x008031d3        0xa load address 0x00009c02
 .data.pingrespTimer
                0x008031d3        0xa dist/AWS_IOT/production/__pa_temp_4543/mqtt_core.o
                0x008031d3                pingrespTimer

.data.pingreqTimer
                0x008031dd        0xa load address 0x00009c0c
 .data.pingreqTimer
                0x008031dd        0xa dist/AWS_IOT/production/__pa_temp_4543/mqtt_core.o
                0x008031dd                pingreqTimer

.data.connackTimer
                0x008031e7        0xa load address 0x00009c16
 .data.connackTimer
                0x008031e7        0xa dist/AWS_IOT/production/__pa_temp_4543/mqtt_core.o
                0x008031e7                connackTimer

.data.initDeviceShadowTimer
                0x008031f1        0xa load address 0x00009c20
 .data.initDeviceShadowTimer
                0x008031f1        0xa dist/AWS_IOT/production/__pa_temp_4543/application_manager.o
                0x008031f1                initDeviceShadowTimer

.data.MAIN_dataTasksTimer
                0x008031fb        0xa load address 0x00009c2a
 .data.MAIN_dataTasksTimer
                0x008031fb        0xa dist/AWS_IOT/production/__pa_temp_4543/application_manager.o
                0x008031fb                MAIN_dataTasksTimer

.data.LED_service_timer
                0x00803205        0xa load address 0x00009c34
 .data.LED_service_timer
                0x00803205        0xa build/AWS_IOT/production/mcc_generated_files/led.o

.data.lastAge.5665
                0x00803213        0x4 load address 0x00009c3e
 .data.lastAge.5665
                0x00803213        0x4 dist/AWS_IOT/production/__pa_temp_4543/cloud_service.o

.data.spi0_configurations
                0x0080321f        0x4 load address 0x00009c42
 .data.spi0_configurations
                0x0080321f        0x4 build/AWS_IOT/production/mcc_generated_files/src/spi0.o
                0x0080321f                spi0_configurations

.data.USART2_tx_isr_cb
                0x0080326b        0x2 load address 0x00009c46
 .data.USART2_tx_isr_cb
                0x0080326b        0x2 build/AWS_IOT/production/mcc_generated_files/src/usart2.o
                0x0080326b                USART2_tx_isr_cb

.data.USART2_rx_isr_cb
                0x0080326d        0x2 load address 0x00009c48
 .data.USART2_rx_isr_cb
                0x0080326d        0x2 build/AWS_IOT/production/mcc_generated_files/src/usart2.o
                0x0080326d                USART2_rx_isr_cb

.data.bSPIBusError
                0x00803295        0x1 load address 0x00009c4a
 .data.bSPIBusError
                0x00803295        0x1 dist/AWS_IOT/production/__pa_temp_4543/winc_spi.o

.data.genuStatus
                0x00803299        0x1 load address 0x00009c4b
 .data.genuStatus
                0x00803299        0x1 dist/AWS_IOT/production/__pa_temp_4543/m2m_ssl.o

.data.ledStatus.5571
                0x008032a3        0x1 load address 0x00009c4c
 .data.ledStatus.5571
                0x008032a3        0x1 build/AWS_IOT/production/mcc_generated_files/led.o

.data.ledStatus.5585
                0x008032a4        0x1 load address 0x00009c4d
 .data.ledStatus.5585
                0x008032a4        0x1 build/AWS_IOT/production/mcc_generated_files/led.o

.data.ledStatus.5599
                0x008032a5        0x1 load address 0x00009c4e
 .data.ledStatus.5599
                0x008032a5        0x1 build/AWS_IOT/production/mcc_generated_files/led.o

.data.ledStatus.5557
                0x008032a6        0x1 load address 0x00009c4f
 .data.ledStatus.5557
                0x008032a6        0x1 build/AWS_IOT/production/mcc_generated_files/led.o
