Archive member included to satisfy reference by file (symbol)

/opt/microchip/xc8/v2.10/avr/bin/../lib/gcc/avr/5.4.0/avrxmega3/libgcc.a(_udivmodqi4.o)
                              dist/GOOGLE_IOT/production/__pa_temp_8961/socket.o (__udivmodqi4)
/opt/microchip/xc8/v2.10/avr/bin/../lib/gcc/avr/5.4.0/avrxmega3/libgcc.a(_udivmodhi4.o)
                              dist/GOOGLE_IOT/production/__pa_temp_8961/atcacert_def.o (__udivmodhi4)
/opt/microchip/xc8/v2.10/avr/bin/../lib/gcc/avr/5.4.0/avrxmega3/libgcc.a(_divmodhi4.o)
                              dist/GOOGLE_IOT/production/__pa_temp_8961/atcacert_client.o (__divmodhi4)
/opt/microchip/xc8/v2.10/avr/bin/../lib/gcc/avr/5.4.0/avrxmega3/libgcc.a(_udivmodsi4.o)
                              dist/GOOGLE_IOT/production/__pa_temp_8961/atcacert_date.o (__udivmodsi4)
/opt/microchip/xc8/v2.10/avr/bin/../lib/gcc/avr/5.4.0/avrxmega3/libgcc.a(_divmodsi4.o)
                              dist/GOOGLE_IOT/production/__pa_temp_8961/sensors_handling.o (__divmodsi4)
/opt/microchip/xc8/v2.10/avr/bin/../lib/gcc/avr/5.4.0/avrxmega3/libgcc.a(_exit.o)
                              /opt/microchip/mplabx/v5.30/packs/Microchip/ATmega_DFP/2.0.12/gcc/dev/atmega4808/avrxmega3/crtatmega4808.o (exit)
/opt/microchip/xc8/v2.10/avr/bin/../lib/gcc/avr/5.4.0/avrxmega3/libgcc.a(_tablejump2.o)
                              dist/GOOGLE_IOT/production/__pa_temp_8961/atcacert_def.o (__tablejump2__)
/opt/microchip/xc8/v2.10/avr/bin/../lib/gcc/avr/5.4.0/avrxmega3/libgcc.a(_copy_data.o)
                              dist/GOOGLE_IOT/production/__pa_temp_8961/cli.o (__do_copy_data)
/opt/microchip/xc8/v2.10/avr/bin/../lib/gcc/avr/5.4.0/avrxmega3/libgcc.a(_bswapsi2.o)
                              dist/GOOGLE_IOT/production/__pa_temp_8961/atcacert_date.o (__bswapsi2)
/opt/microchip/xc8/v2.10/avr/bin/../lib/gcc/avr/5.4.0/avrxmega3/libgcc.a(_umulhisi3.o)
                              dist/GOOGLE_IOT/production/__pa_temp_8961/mqtt_core.o (__umulhisi3)
/opt/microchip/xc8/v2.10/avr/bin/../lib/gcc/avr/5.4.0/avrxmega3/libgcc.a(_usmulhisi3.o)
                              dist/GOOGLE_IOT/production/__pa_temp_8961/atcacert_date.o (__usmulhisi3)
/opt/microchip/xc8/v2.10/avr/bin/../lib/gcc/avr/5.4.0/avrxmega3/libgcc.a(_muluhisi3.o)
                              dist/GOOGLE_IOT/production/__pa_temp_8961/atcacert_date.o (__muluhisi3)
/opt/microchip/xc8/v2.10/avr/bin/../lib/gcc/avr/5.4.0/avrxmega3/libgcc.a(_mulshisi3.o)
                              dist/GOOGLE_IOT/production/__pa_temp_8961/atcacert_date.o (__mulshisi3)
/opt/microchip/xc8/v2.10/avr/bin/../lib/gcc/avr/5.4.0/../../../../avr/lib/avrxmega3/libc.a(atoi_M.o)
                              dist/GOOGLE_IOT/production/__pa_temp_8961/cli.o (atoi)
/opt/microchip/xc8/v2.10/avr/bin/../lib/gcc/avr/5.4.0/../../../../avr/lib/avrxmega3/libc.a(tolower.o)
                              dist/GOOGLE_IOT/production/__pa_temp_8961/atca_helpers.o (tolower)
/opt/microchip/xc8/v2.10/avr/bin/../lib/gcc/avr/5.4.0/../../../../avr/lib/avrxmega3/libc.a(toupper.o)
                              dist/GOOGLE_IOT/production/__pa_temp_8961/atca_helpers.o (toupper)
/opt/microchip/xc8/v2.10/avr/bin/../lib/gcc/avr/5.4.0/../../../../avr/lib/avrxmega3/libc.a(strtok.o)
                              dist/GOOGLE_IOT/production/__pa_temp_8961/cli.o (strtok)
/opt/microchip/xc8/v2.10/avr/bin/../lib/gcc/avr/5.4.0/../../../../avr/lib/avrxmega3/libc.a(memcmp.o)
                              dist/GOOGLE_IOT/production/__pa_temp_8961/mqtt_service.o (memcmp)
/opt/microchip/xc8/v2.10/avr/bin/../lib/gcc/avr/5.4.0/../../../../avr/lib/avrxmega3/libc.a(memcpy.o)
                              dist/GOOGLE_IOT/production/__pa_temp_8961/atcacert_client.o (memcpy)
/opt/microchip/xc8/v2.10/avr/bin/../lib/gcc/avr/5.4.0/../../../../avr/lib/avrxmega3/libc.a(memmove.o)
                              dist/GOOGLE_IOT/production/__pa_temp_8961/atcacert_client.o (memmove)
/opt/microchip/xc8/v2.10/avr/bin/../lib/gcc/avr/5.4.0/../../../../avr/lib/avrxmega3/libc.a(memset.o)
                              dist/GOOGLE_IOT/production/__pa_temp_8961/atcacert_def.o (memset)
/opt/microchip/xc8/v2.10/avr/bin/../lib/gcc/avr/5.4.0/../../../../avr/lib/avrxmega3/libc.a(strchr.o)
                              dist/GOOGLE_IOT/production/__pa_temp_8961/cli.o (strchr)
/opt/microchip/xc8/v2.10/avr/bin/../lib/gcc/avr/5.4.0/../../../../avr/lib/avrxmega3/libc.a(strcmp.o)
                              dist/GOOGLE_IOT/production/__pa_temp_8961/cli.o (strcmp)
/opt/microchip/xc8/v2.10/avr/bin/../lib/gcc/avr/5.4.0/../../../../avr/lib/avrxmega3/libc.a(strcpy.o)
                              dist/GOOGLE_IOT/production/__pa_temp_8961/cli.o (strcpy)
/opt/microchip/xc8/v2.10/avr/bin/../lib/gcc/avr/5.4.0/../../../../avr/lib/avrxmega3/libc.a(strncmp.o)
                              dist/GOOGLE_IOT/production/__pa_temp_8961/wifi_service.o (strncmp)
/opt/microchip/xc8/v2.10/avr/bin/../lib/gcc/avr/5.4.0/../../../../avr/lib/avrxmega3/libc.a(strncpy.o)
                              dist/GOOGLE_IOT/production/__pa_temp_8961/cli.o (strncpy)
/opt/microchip/xc8/v2.10/avr/bin/../lib/gcc/avr/5.4.0/../../../../avr/lib/avrxmega3/libc.a(strstr.o)
                              dist/GOOGLE_IOT/production/__pa_temp_8961/atcacert_pem.o (strstr)
/opt/microchip/xc8/v2.10/avr/bin/../lib/gcc/avr/5.4.0/../../../../avr/lib/avrxmega3/libc.a(strtok_r.o)
                              /opt/microchip/xc8/v2.10/avr/bin/../lib/gcc/avr/5.4.0/../../../../avr/lib/avrxmega3/libc.a(strtok.o) (strtok_r)
/opt/microchip/xc8/v2.10/avr/bin/../lib/gcc/avr/5.4.0/../../../../avr/lib/avrxmega3/libc.a(mulsi10.o)
                              dist/GOOGLE_IOT/production/__pa_temp_8961/libc_a_atol.o (__mulsi_const_10)
/opt/microchip/xc8/v2.10/avr/bin/../lib/gcc/avr/5.4.0/../../../../avr/lib/avrxmega3/libc.a(iob.o)
                              dist/GOOGLE_IOT/production/__pa_temp_8961/libc_a_puts.o (__iob)
/opt/microchip/xc8/v2.10/avr/bin/../lib/gcc/avr/5.4.0/../../../../avr/lib/avrxmega3/libc.a(printf.o)
                              dist/GOOGLE_IOT/production/__pa_temp_8961/cli.o (printf)
/opt/microchip/xc8/v2.10/avr/bin/../lib/gcc/avr/5.4.0/../../../../avr/lib/avrxmega3/libc.a(snprintf.o)
                              dist/GOOGLE_IOT/production/__pa_temp_8961/atca_jwt.o (snprintf)
/opt/microchip/xc8/v2.10/avr/bin/../lib/gcc/avr/5.4.0/../../../../avr/lib/avrxmega3/libc.a(sprintf.o)
                              dist/GOOGLE_IOT/production/__pa_temp_8961/cli.o (sprintf)
/opt/microchip/xc8/v2.10/avr/bin/../lib/gcc/avr/5.4.0/../../../../avr/lib/avrxmega3/libc.a(vprintf.o)
                              dist/GOOGLE_IOT/production/__pa_temp_8961/debug_print.o (vprintf)
/opt/microchip/xc8/v2.10/avr/bin/../lib/gcc/avr/5.4.0/../../../../avr/lib/avrxmega3/libc.a(ctime.o)
                              dist/GOOGLE_IOT/production/__pa_temp_8961/time_service.o (ctime)
/opt/microchip/xc8/v2.10/avr/bin/../lib/gcc/avr/5.4.0/../../../../avr/lib/avrxmega3/libc.a(difftime.o)
                              dist/GOOGLE_IOT/production/__pa_temp_8961/time_service.o (difftime)
/opt/microchip/xc8/v2.10/avr/bin/../lib/gcc/avr/5.4.0/../../../../avr/lib/avrxmega3/libc.a(localtime_r.o)
                              /opt/microchip/xc8/v2.10/avr/bin/../lib/gcc/avr/5.4.0/../../../../avr/lib/avrxmega3/libc.a(ctime.o) (localtime_r)
/opt/microchip/xc8/v2.10/avr/bin/../lib/gcc/avr/5.4.0/../../../../avr/lib/avrxmega3/libc.a(mktime.o)
                              dist/GOOGLE_IOT/production/__pa_temp_8961/time_service.o (mktime)
/opt/microchip/xc8/v2.10/avr/bin/../lib/gcc/avr/5.4.0/../../../../avr/lib/avrxmega3/libc.a(set_system_time.o)
                              dist/GOOGLE_IOT/production/__pa_temp_8961/time_service.o (set_system_time)
/opt/microchip/xc8/v2.10/avr/bin/../lib/gcc/avr/5.4.0/../../../../avr/lib/avrxmega3/libc.a(system_time.o)
                              /opt/microchip/xc8/v2.10/avr/bin/../lib/gcc/avr/5.4.0/../../../../avr/lib/avrxmega3/libc.a(set_system_time.o) (__system_time)
/opt/microchip/xc8/v2.10/avr/bin/../lib/gcc/avr/5.4.0/../../../../avr/lib/avrxmega3/libc.a(utc_offset.o)
                              /opt/microchip/xc8/v2.10/avr/bin/../lib/gcc/avr/5.4.0/../../../../avr/lib/avrxmega3/libc.a(localtime_r.o) (__utc_offset)
/opt/microchip/xc8/v2.10/avr/bin/../lib/gcc/avr/5.4.0/../../../../avr/lib/avrxmega3/libc.a(vfprintf_std.o)
                              /opt/microchip/xc8/v2.10/avr/bin/../lib/gcc/avr/5.4.0/../../../../avr/lib/avrxmega3/libc.a(printf.o) (vfprintf)
/opt/microchip/xc8/v2.10/avr/bin/../lib/gcc/avr/5.4.0/../../../../avr/lib/avrxmega3/libc.a(strnlen_P.o)
                              /opt/microchip/xc8/v2.10/avr/bin/../lib/gcc/avr/5.4.0/../../../../avr/lib/avrxmega3/libc.a(vfprintf_std.o) (strnlen_P)
/opt/microchip/xc8/v2.10/avr/bin/../lib/gcc/avr/5.4.0/../../../../avr/lib/avrxmega3/libc.a(strnlen.o)
                              /opt/microchip/xc8/v2.10/avr/bin/../lib/gcc/avr/5.4.0/../../../../avr/lib/avrxmega3/libc.a(vfprintf_std.o) (strnlen)
/opt/microchip/xc8/v2.10/avr/bin/../lib/gcc/avr/5.4.0/../../../../avr/lib/avrxmega3/libc.a(ultoa_invert.o)
                              /opt/microchip/xc8/v2.10/avr/bin/../lib/gcc/avr/5.4.0/../../../../avr/lib/avrxmega3/libc.a(vfprintf_std.o) (__ultoa_invert)
/opt/microchip/xc8/v2.10/avr/bin/../lib/gcc/avr/5.4.0/../../../../avr/lib/avrxmega3/libc.a(asc_store.o)
                              /opt/microchip/xc8/v2.10/avr/bin/../lib/gcc/avr/5.4.0/../../../../avr/lib/avrxmega3/libc.a(ctime.o) (__asc_store)
/opt/microchip/xc8/v2.10/avr/bin/../lib/gcc/avr/5.4.0/../../../../avr/lib/avrxmega3/libc.a(asctime_r.o)
                              /opt/microchip/xc8/v2.10/avr/bin/../lib/gcc/avr/5.4.0/../../../../avr/lib/avrxmega3/libc.a(ctime.o) (asctime_r)
/opt/microchip/xc8/v2.10/avr/bin/../lib/gcc/avr/5.4.0/../../../../avr/lib/avrxmega3/libc.a(dst_pointer.o)
                              /opt/microchip/xc8/v2.10/avr/bin/../lib/gcc/avr/5.4.0/../../../../avr/lib/avrxmega3/libc.a(localtime_r.o) (__dst_ptr)
/opt/microchip/xc8/v2.10/avr/bin/../lib/gcc/avr/5.4.0/../../../../avr/lib/avrxmega3/libc.a(gmtime_r.o)
                              /opt/microchip/xc8/v2.10/avr/bin/../lib/gcc/avr/5.4.0/../../../../avr/lib/avrxmega3/libc.a(localtime_r.o) (gmtime_r)
/opt/microchip/xc8/v2.10/avr/bin/../lib/gcc/avr/5.4.0/../../../../avr/lib/avrxmega3/libc.a(mk_gmtime.o)
                              /opt/microchip/xc8/v2.10/avr/bin/../lib/gcc/avr/5.4.0/../../../../avr/lib/avrxmega3/libc.a(mktime.o) (mk_gmtime)
/opt/microchip/xc8/v2.10/avr/bin/../lib/gcc/avr/5.4.0/../../../../avr/lib/avrxmega3/libc.a(print_lz.o)
                              /opt/microchip/xc8/v2.10/avr/bin/../lib/gcc/avr/5.4.0/../../../../avr/lib/avrxmega3/libc.a(asctime_r.o) (__print_lz)
/opt/microchip/xc8/v2.10/avr/bin/../lib/gcc/avr/5.4.0/../../../../avr/lib/avrxmega3/libc.a(isLeap.o)
                              /opt/microchip/xc8/v2.10/avr/bin/../lib/gcc/avr/5.4.0/../../../../avr/lib/avrxmega3/libc.a(mk_gmtime.o) (is_leap_year)
/opt/microchip/xc8/v2.10/avr/bin/../lib/gcc/avr/5.4.0/avrxmega3/libgcc.a(_mulsi3.o)
                              /opt/microchip/xc8/v2.10/avr/bin/../lib/gcc/avr/5.4.0/../../../../avr/lib/avrxmega3/libc.a(mk_gmtime.o) (__mulsi3)
/opt/microchip/xc8/v2.10/avr/bin/../lib/gcc/avr/5.4.0/avrxmega3/libgcc.a(_prologue.o)
                              /opt/microchip/xc8/v2.10/avr/bin/../lib/gcc/avr/5.4.0/../../../../avr/lib/avrxmega3/libc.a(printf.o) (__prologue_saves__)
/opt/microchip/xc8/v2.10/avr/bin/../lib/gcc/avr/5.4.0/avrxmega3/libgcc.a(_epilogue.o)
                              /opt/microchip/xc8/v2.10/avr/bin/../lib/gcc/avr/5.4.0/../../../../avr/lib/avrxmega3/libc.a(printf.o) (__epilogue_restores__)

Allocating common symbols
Common symbol       size              file

ssid                0x1f              build/GOOGLE_IOT/production/mcc_generated_files/credentials_storage/credentials_storage.o
g_atcab_device      0x4               dist/GOOGLE_IOT/production/__pa_temp_8961/atca_basic.o
mqttSubscribeTopic  0x64              dist/GOOGLE_IOT/production/__pa_temp_8961/application_manager.o
__store             0x1a              /opt/microchip/xc8/v2.10/avr/bin/../lib/gcc/avr/5.4.0/../../../../avr/lib/avrxmega3/libc.a(asc_store.o)
retValCryptoClientSerialNumber
                    0x1               dist/GOOGLE_IOT/production/__pa_temp_8961/application_manager.o
pass                0x1f              build/GOOGLE_IOT/production/mcc_generated_files/credentials_storage/credentials_storage.o
prevNTPServerName   0x14              dist/GOOGLE_IOT/production/__pa_temp_8961/wifi_service.o
ntpServerName       0x14              build/GOOGLE_IOT/production/mcc_generated_files/credentials_storage/credentials_storage.o
_gmyIface           0x13              build/GOOGLE_IOT/production/mcc_generated_files/CryptoAuthenticationLibrary/CryptoAuth_init.o
cloudStatus         0x1               dist/GOOGLE_IOT/production/__pa_temp_8961/cloud_service.o
mqttPassword        0x1c8             dist/GOOGLE_IOT/production/__pa_temp_8961/google_cloud_service.o
publishRecvCallback
                    0x2               build/GOOGLE_IOT/production/mcc_generated_files/mqtt/mqtt_packetTransfer_interface.o
imqtt_publishReceiveCallBackTable
                    0x4               dist/GOOGLE_IOT/production/__pa_temp_8961/google_cloud_service.o
deviceId            0x1e              dist/GOOGLE_IOT/production/__pa_temp_8961/google_cloud_service.o
_gmyCommand         0x4               build/GOOGLE_IOT/production/mcc_generated_files/CryptoAuthenticationLibrary/CryptoAuth_init.o
__dst_ptr           0x2               /opt/microchip/xc8/v2.10/avr/bin/../lib/gcc/avr/5.4.0/../../../../avr/lib/avrxmega3/libc.a(dst_pointer.o)
authType            0x2               build/GOOGLE_IOT/production/mcc_generated_files/credentials_storage/credentials_storage.o
mqttBrokerIP        0x4               dist/GOOGLE_IOT/production/__pa_temp_8961/cloud_service.o
g_atcab_iface       0x13              dist/GOOGLE_IOT/production/__pa_temp_8961/atca_basic.o
callback_funcPtr    0x2               dist/GOOGLE_IOT/production/__pa_temp_8961/wifi_service.o
__utc_offset        0x4               /opt/microchip/xc8/v2.10/avr/bin/../lib/gcc/avr/5.4.0/../../../../avr/lib/avrxmega3/libc.a(utc_offset.o)
shared_networking_params
                    0x1               dist/GOOGLE_IOT/production/__pa_temp_8961/cloud_service.o
cloud_packetReceiveCallBackTable
                    0xa               dist/GOOGLE_IOT/production/__pa_temp_8961/cloud_service.o
g_atcab_command     0x4               dist/GOOGLE_IOT/production/__pa_temp_8961/atca_basic.o
__iob               0x6               /opt/microchip/xc8/v2.10/avr/bin/../lib/gcc/avr/5.4.0/../../../../avr/lib/avrxmega3/libc.a(iob.o)
__system_time       0x4               /opt/microchip/xc8/v2.10/avr/bin/../lib/gcc/avr/5.4.0/../../../../avr/lib/avrxmega3/libc.a(system_time.o)
g_serial_number     0x9               dist/GOOGLE_IOT/production/__pa_temp_8961/crypto_client.o
cid                 0x64              dist/GOOGLE_IOT/production/__pa_temp_8961/mqtt_service.o

Discarded input sections

 .text          0x00000000        0x0 dist/GOOGLE_IOT/production/__pa_temp_8961/libgcc_a__negsi2.o
 .data          0x00000000        0x0 dist/GOOGLE_IOT/production/__pa_temp_8961/libgcc_a__negsi2.o
 .bss           0x00000000        0x0 dist/GOOGLE_IOT/production/__pa_temp_8961/libgcc_a__negsi2.o
 .text.libgcc.mul
                0x00000000        0x0 dist/GOOGLE_IOT/production/__pa_temp_8961/libgcc_a__negsi2.o
 .text.libgcc   0x00000000        0x0 dist/GOOGLE_IOT/production/__pa_temp_8961/libgcc_a__negsi2.o
 .text.libgcc.prologue
                0x00000000        0x0 dist/GOOGLE_IOT/production/__pa_temp_8961/libgcc_a__negsi2.o
 .text.libgcc.builtins
                0x00000000        0x0 dist/GOOGLE_IOT/production/__pa_temp_8961/libgcc_a__negsi2.o
 .text.libgcc.fmul
                0x00000000        0x0 dist/GOOGLE_IOT/production/__pa_temp_8961/libgcc_a__negsi2.o
 .text.libgcc.fixed
                0x00000000        0x0 dist/GOOGLE_IOT/production/__pa_temp_8961/libgcc_a__negsi2.o
 .text          0x00000000        0x0 dist/GOOGLE_IOT/production/__pa_temp_8961/libc_a_puts.o
 .data          0x00000000        0x0 dist/GOOGLE_IOT/production/__pa_temp_8961/libc_a_puts.o
 .bss           0x00000000        0x0 dist/GOOGLE_IOT/production/__pa_temp_8961/libc_a_puts.o
 .text          0x00000000        0x0 dist/GOOGLE_IOT/production/__pa_temp_8961/libc_a_fputc.o
 .data          0x00000000        0x0 dist/GOOGLE_IOT/production/__pa_temp_8961/libc_a_fputc.o
 .bss           0x00000000        0x0 dist/GOOGLE_IOT/production/__pa_temp_8961/libc_a_fputc.o
 .text          0x00000000        0x0 dist/GOOGLE_IOT/production/__pa_temp_8961/libc_a_atol.o
 .data          0x00000000        0x0 dist/GOOGLE_IOT/production/__pa_temp_8961/libc_a_atol.o
 .bss           0x00000000        0x0 dist/GOOGLE_IOT/production/__pa_temp_8961/libc_a_atol.o
 .data          0x00000000        0x0 /opt/microchip/mplabx/v5.30/packs/Microchip/ATmega_DFP/2.0.12/gcc/dev/atmega4808/avrxmega3/crtatmega4808.o
 .bss           0x00000000        0x0 /opt/microchip/mplabx/v5.30/packs/Microchip/ATmega_DFP/2.0.12/gcc/dev/atmega4808/avrxmega3/crtatmega4808.o
 .text          0x00000000        0x0 dist/GOOGLE_IOT/production/__pa_temp_8961/cli.o
 .data          0x00000000        0x0 dist/GOOGLE_IOT/production/__pa_temp_8961/cli.o
 .bss           0x00000000        0x0 dist/GOOGLE_IOT/production/__pa_temp_8961/cli.o
 .rodata.firmware_version_number
                0x00000000        0x2 dist/GOOGLE_IOT/production/__pa_temp_8961/cli.o
 .rodata.cli_version_number
                0x00000000        0x2 dist/GOOGLE_IOT/production/__pa_temp_8961/cli.o
 .text          0x00000000        0x0 dist/GOOGLE_IOT/production/__pa_temp_8961/crypto_client.o
 .data          0x00000000        0x0 dist/GOOGLE_IOT/production/__pa_temp_8961/crypto_client.o
 .bss           0x00000000        0x0 dist/GOOGLE_IOT/production/__pa_temp_8961/crypto_client.o
 .text          0x00000000        0x0 dist/GOOGLE_IOT/production/__pa_temp_8961/cloud_service.o
 .data          0x00000000        0x0 dist/GOOGLE_IOT/production/__pa_temp_8961/cloud_service.o
 .bss           0x00000000        0x0 dist/GOOGLE_IOT/production/__pa_temp_8961/cloud_service.o
 .text.CLOUD_checkIsDisconnected
                0x00000000        0xa dist/GOOGLE_IOT/production/__pa_temp_8961/cloud_service.o
 .text          0x00000000        0x0 dist/GOOGLE_IOT/production/__pa_temp_8961/wifi_service.o
 .data          0x00000000        0x0 dist/GOOGLE_IOT/production/__pa_temp_8961/wifi_service.o
 .bss           0x00000000        0x0 dist/GOOGLE_IOT/production/__pa_temp_8961/wifi_service.o
 .text          0x00000000        0x0 dist/GOOGLE_IOT/production/__pa_temp_8961/mqtt_service.o
 .data          0x00000000        0x0 dist/GOOGLE_IOT/production/__pa_temp_8961/mqtt_service.o
 .bss           0x00000000        0x0 dist/GOOGLE_IOT/production/__pa_temp_8961/mqtt_service.o
 .text.MQTT_GetPublishReceptionHandlerTable
                0x00000000        0xa dist/GOOGLE_IOT/production/__pa_temp_8961/mqtt_service.o
 .text          0x00000000        0x0 dist/GOOGLE_IOT/production/__pa_temp_8961/google_cloud_service.o
 .data          0x00000000        0x0 dist/GOOGLE_IOT/production/__pa_temp_8961/google_cloud_service.o
 .bss           0x00000000        0x0 dist/GOOGLE_IOT/production/__pa_temp_8961/google_cloud_service.o
 .text          0x00000000        0x0 build/GOOGLE_IOT/production/mcc_generated_files/credentials_storage/credentials_storage.o
 .data          0x00000000        0x0 build/GOOGLE_IOT/production/mcc_generated_files/credentials_storage/credentials_storage.o
 .bss           0x00000000        0x0 build/GOOGLE_IOT/production/mcc_generated_files/credentials_storage/credentials_storage.o
 .text          0x00000000        0x0 dist/GOOGLE_IOT/production/__pa_temp_8961/atcacert_client.o
 .data          0x00000000        0x0 dist/GOOGLE_IOT/production/__pa_temp_8961/atcacert_client.o
 .bss           0x00000000        0x0 dist/GOOGLE_IOT/production/__pa_temp_8961/atcacert_client.o
 .text.atcacert_get_response
                0x00000000       0x20 dist/GOOGLE_IOT/production/__pa_temp_8961/atcacert_client.o
 .text.atcacert_read_device_loc
                0x00000000       0xd8 dist/GOOGLE_IOT/production/__pa_temp_8961/atcacert_client.o
 .text.atcacert_read_cert
                0x00000000       0xfe dist/GOOGLE_IOT/production/__pa_temp_8961/atcacert_client.o
 .text.atcacert_write_cert
                0x00000000      0x196 dist/GOOGLE_IOT/production/__pa_temp_8961/atcacert_client.o
 .rodata        0x00000000      0x16b dist/GOOGLE_IOT/production/__pa_temp_8961/atcacert_client.o
 .text.atcacert_create_csr
                0x00000000      0x220 dist/GOOGLE_IOT/production/__pa_temp_8961/atcacert_client.o
 .text.atcacert_create_csr_pem
                0x00000000       0xa6 dist/GOOGLE_IOT/production/__pa_temp_8961/atcacert_client.o
 .bss.data.3472
                0x00000000      0x1a0 dist/GOOGLE_IOT/production/__pa_temp_8961/atcacert_client.o
 .bss.data.3457
                0x00000000      0x1a0 dist/GOOGLE_IOT/production/__pa_temp_8961/atcacert_client.o
 .text          0x00000000        0x0 dist/GOOGLE_IOT/production/__pa_temp_8961/atcacert_date.o
 .data          0x00000000        0x0 dist/GOOGLE_IOT/production/__pa_temp_8961/atcacert_date.o
 .bss           0x00000000        0x0 dist/GOOGLE_IOT/production/__pa_temp_8961/atcacert_date.o
 .text.uint_to_str
                0x00000000       0x72 dist/GOOGLE_IOT/production/__pa_temp_8961/atcacert_date.o
 .text.str_to_int
                0x00000000      0x10a dist/GOOGLE_IOT/production/__pa_temp_8961/atcacert_date.o
 .text.atcacert_gmtime32.isra.1
                0x00000000      0x186 dist/GOOGLE_IOT/production/__pa_temp_8961/atcacert_date.o
 .text.atcacert_date_enc_posix_uint32.part.2
                0x00000000      0x262 dist/GOOGLE_IOT/production/__pa_temp_8961/atcacert_date.o
 .text.atcacert_date_get_max_date
                0x00000000       0x84 dist/GOOGLE_IOT/production/__pa_temp_8961/atcacert_date.o
 .text.atcacert_date_enc_iso8601_sep
                0x00000000       0xae dist/GOOGLE_IOT/production/__pa_temp_8961/atcacert_date.o
 .text.atcacert_date_dec_iso8601_sep
                0x00000000      0x108 dist/GOOGLE_IOT/production/__pa_temp_8961/atcacert_date.o
 .text.atcacert_date_enc_rfc5280_utc
                0x00000000       0x9e dist/GOOGLE_IOT/production/__pa_temp_8961/atcacert_date.o
 .text.atcacert_date_dec_rfc5280_utc
                0x00000000       0xdc dist/GOOGLE_IOT/production/__pa_temp_8961/atcacert_date.o
 .text.atcacert_date_enc_rfc5280_gen
                0x00000000       0x86 dist/GOOGLE_IOT/production/__pa_temp_8961/atcacert_date.o
 .text.atcacert_date_dec_rfc5280_gen
                0x00000000       0xba dist/GOOGLE_IOT/production/__pa_temp_8961/atcacert_date.o
 .text.atcacert_date_enc_posix_uint32_be
                0x00000000       0x52 dist/GOOGLE_IOT/production/__pa_temp_8961/atcacert_date.o
 .text.atcacert_date_dec_posix_uint32_be
                0x00000000       0x24 dist/GOOGLE_IOT/production/__pa_temp_8961/atcacert_date.o
 .text.atcacert_date_enc_posix_uint32_le
                0x00000000       0x52 dist/GOOGLE_IOT/production/__pa_temp_8961/atcacert_date.o
 .text.atcacert_date_enc
                0x00000000       0xae dist/GOOGLE_IOT/production/__pa_temp_8961/atcacert_date.o
 .text.atcacert_date_dec_posix_uint32_le
                0x00000000       0x20 dist/GOOGLE_IOT/production/__pa_temp_8961/atcacert_date.o
 .text.atcacert_date_dec
                0x00000000       0x5c dist/GOOGLE_IOT/production/__pa_temp_8961/atcacert_date.o
 .text.atcacert_date_enc_compcert
                0x00000000       0xee dist/GOOGLE_IOT/production/__pa_temp_8961/atcacert_date.o
 .text.atcacert_date_dec_compcert
                0x00000000       0xf8 dist/GOOGLE_IOT/production/__pa_temp_8961/atcacert_date.o
 .rodata.month_secs.1917
                0x00000000       0x30 dist/GOOGLE_IOT/production/__pa_temp_8961/atcacert_date.o
 .rodata.ATCACERT_DATE_FORMAT_SIZES
                0x00000000        0xa dist/GOOGLE_IOT/production/__pa_temp_8961/atcacert_date.o
 .__pa__15      0x00000000       0x14 dist/GOOGLE_IOT/production/__pa_temp_8961/atcacert_date.o
 .__pa__17      0x00000000        0xe dist/GOOGLE_IOT/production/__pa_temp_8961/atcacert_date.o
 .__pa__33      0x00000000        0xa dist/GOOGLE_IOT/production/__pa_temp_8961/atcacert_date.o
 .__pa__44      0x00000000       0x12 dist/GOOGLE_IOT/production/__pa_temp_8961/atcacert_date.o
 .__pa__45      0x00000000        0xc dist/GOOGLE_IOT/production/__pa_temp_8961/atcacert_date.o
 .__pa__52      0x00000000        0xc dist/GOOGLE_IOT/production/__pa_temp_8961/atcacert_date.o
 .__pa__58      0x00000000        0xe dist/GOOGLE_IOT/production/__pa_temp_8961/atcacert_date.o
 .__pa__63      0x00000000        0xa dist/GOOGLE_IOT/production/__pa_temp_8961/atcacert_date.o
 .__pa__86      0x00000000        0xe dist/GOOGLE_IOT/production/__pa_temp_8961/atcacert_date.o
 .__pa__90      0x00000000        0xa dist/GOOGLE_IOT/production/__pa_temp_8961/atcacert_date.o
 .__pa__93      0x00000000       0x10 dist/GOOGLE_IOT/production/__pa_temp_8961/atcacert_date.o
 .__pa__94      0x00000000        0xe dist/GOOGLE_IOT/production/__pa_temp_8961/atcacert_date.o
 .__pa__95      0x00000000        0xa dist/GOOGLE_IOT/production/__pa_temp_8961/atcacert_date.o
 .__pa__96      0x00000000       0x12 dist/GOOGLE_IOT/production/__pa_temp_8961/atcacert_date.o
 .__pa__99      0x00000000        0xa dist/GOOGLE_IOT/production/__pa_temp_8961/atcacert_date.o
 .__pa__100     0x00000000        0xa dist/GOOGLE_IOT/production/__pa_temp_8961/atcacert_date.o
 .__pa__101     0x00000000        0xa dist/GOOGLE_IOT/production/__pa_temp_8961/atcacert_date.o
 .__pa__102     0x00000000        0xc dist/GOOGLE_IOT/production/__pa_temp_8961/atcacert_date.o
 .__pa__103     0x00000000        0xa dist/GOOGLE_IOT/production/__pa_temp_8961/atcacert_date.o
 .__pa__114     0x00000000        0xc dist/GOOGLE_IOT/production/__pa_temp_8961/atcacert_date.o
 .__pa__115     0x00000000        0xc dist/GOOGLE_IOT/production/__pa_temp_8961/atcacert_date.o
 .__pa__117     0x00000000       0x18 dist/GOOGLE_IOT/production/__pa_temp_8961/atcacert_date.o
 .__pa__118     0x00000000       0x16 dist/GOOGLE_IOT/production/__pa_temp_8961/atcacert_date.o
 .text          0x00000000        0x0 dist/GOOGLE_IOT/production/__pa_temp_8961/atcacert_def.o
 .data          0x00000000        0x0 dist/GOOGLE_IOT/production/__pa_temp_8961/atcacert_def.o
 .bss           0x00000000        0x0 dist/GOOGLE_IOT/production/__pa_temp_8961/atcacert_def.o
 .text.atcacert_is_device_loc_match
                0x00000000       0x82 dist/GOOGLE_IOT/production/__pa_temp_8961/atcacert_def.o
 .text.uint8_to_hex
                0x00000000       0x28 dist/GOOGLE_IOT/production/__pa_temp_8961/atcacert_def.o
 .text.hex_to_uint8
                0x00000000       0x6e dist/GOOGLE_IOT/production/__pa_temp_8961/atcacert_def.o
 .text.atcacert_copy_device_loc_data
                0x00000000       0x68 dist/GOOGLE_IOT/production/__pa_temp_8961/atcacert_def.o
 .text.get_effective_offset
                0x00000000       0x42 dist/GOOGLE_IOT/production/__pa_temp_8961/atcacert_def.o
 .text.atcacert_merge_device_loc
                0x00000000      0x1a2 dist/GOOGLE_IOT/production/__pa_temp_8961/atcacert_def.o
 .text.atcacert_get_device_locs
                0x00000000      0x162 dist/GOOGLE_IOT/production/__pa_temp_8961/atcacert_def.o
 .text.atcacert_is_device_loc_overlap
                0x00000000       0x5e dist/GOOGLE_IOT/production/__pa_temp_8961/atcacert_def.o
 .text.atcacert_get_tbs
                0x00000000       0x9c dist/GOOGLE_IOT/production/__pa_temp_8961/atcacert_def.o
 .text.atcacert_get_tbs_digest
                0x00000000       0x68 dist/GOOGLE_IOT/production/__pa_temp_8961/atcacert_def.o
 .text.atcacert_set_cert_element
                0x00000000       0xae dist/GOOGLE_IOT/production/__pa_temp_8961/atcacert_def.o
 .text.atcacert_set_signature
                0x00000000      0x158 dist/GOOGLE_IOT/production/__pa_temp_8961/atcacert_def.o
 .text.atcacert_set_issue_date
                0x00000000       0x88 dist/GOOGLE_IOT/production/__pa_temp_8961/atcacert_def.o
 .text.atcacert_set_expire_date
                0x00000000       0x88 dist/GOOGLE_IOT/production/__pa_temp_8961/atcacert_def.o
 .text.atcacert_set_signer_id
                0x00000000       0x8c dist/GOOGLE_IOT/production/__pa_temp_8961/atcacert_def.o
 .text.atcacert_set_comp_cert
                0x00000000      0x124 dist/GOOGLE_IOT/production/__pa_temp_8961/atcacert_def.o
 .text.atcacert_set_cert_sn
                0x00000000      0x1ba dist/GOOGLE_IOT/production/__pa_temp_8961/atcacert_def.o
 .text.atcacert_set_auth_key_id_raw
                0x00000000       0x3e dist/GOOGLE_IOT/production/__pa_temp_8961/atcacert_def.o
 .text.atcacert_get_cert_element
                0x00000000       0x94 dist/GOOGLE_IOT/production/__pa_temp_8961/atcacert_def.o
 .text.atcacert_get_subj_public_key
                0x00000000       0x3a dist/GOOGLE_IOT/production/__pa_temp_8961/atcacert_def.o
 .text.atcacert_get_subj_key_id
                0x00000000       0x3a dist/GOOGLE_IOT/production/__pa_temp_8961/atcacert_def.o
 .text.atcacert_get_signature
                0x00000000       0xb2 dist/GOOGLE_IOT/production/__pa_temp_8961/atcacert_def.o
 .text.atcacert_get_issue_date
                0x00000000       0xa6 dist/GOOGLE_IOT/production/__pa_temp_8961/atcacert_def.o
 .text.atcacert_get_expire_date
                0x00000000       0xa6 dist/GOOGLE_IOT/production/__pa_temp_8961/atcacert_def.o
 .text.atcacert_get_signer_id
                0x00000000       0x80 dist/GOOGLE_IOT/production/__pa_temp_8961/atcacert_def.o
 .text.atcacert_gen_cert_sn
                0x00000000      0x21c dist/GOOGLE_IOT/production/__pa_temp_8961/atcacert_def.o
 .progmem.gcc_sw_table.atcacert_gen_cert_sn
                0x00000000       0x10 dist/GOOGLE_IOT/production/__pa_temp_8961/atcacert_def.o
 .text.atcacert_cert_build_finish
                0x00000000       0x32 dist/GOOGLE_IOT/production/__pa_temp_8961/atcacert_def.o
 .text.atcacert_get_comp_cert
                0x00000000      0x12a dist/GOOGLE_IOT/production/__pa_temp_8961/atcacert_def.o
 .text.atcacert_get_cert_sn
                0x00000000       0x60 dist/GOOGLE_IOT/production/__pa_temp_8961/atcacert_def.o
 .text.atcacert_get_auth_key_id
                0x00000000       0x3a dist/GOOGLE_IOT/production/__pa_temp_8961/atcacert_def.o
 .text.atcacert_get_key_id
                0x00000000       0x4c dist/GOOGLE_IOT/production/__pa_temp_8961/atcacert_def.o
 .text.atcacert_set_subj_public_key
                0x00000000       0xb0 dist/GOOGLE_IOT/production/__pa_temp_8961/atcacert_def.o
 .text.atcacert_set_auth_key_id
                0x00000000       0x82 dist/GOOGLE_IOT/production/__pa_temp_8961/atcacert_def.o
 .text.atcacert_cert_build_start
                0x00000000      0x118 dist/GOOGLE_IOT/production/__pa_temp_8961/atcacert_def.o
 .text.atcacert_public_key_add_padding
                0x00000000       0x52 dist/GOOGLE_IOT/production/__pa_temp_8961/atcacert_def.o
 .text.atcacert_get_device_data
                0x00000000      0x238 dist/GOOGLE_IOT/production/__pa_temp_8961/atcacert_def.o
 .text.atcacert_public_key_remove_padding
                0x00000000       0x36 dist/GOOGLE_IOT/production/__pa_temp_8961/atcacert_def.o
 .text.atcacert_transform_data
                0x00000000       0xca dist/GOOGLE_IOT/production/__pa_temp_8961/atcacert_def.o
 .progmem.gcc_sw_table.atcacert_transform_data
                0x00000000       0x14 dist/GOOGLE_IOT/production/__pa_temp_8961/atcacert_def.o
 .text.atcacert_cert_build_process
                0x00000000      0x2be dist/GOOGLE_IOT/production/__pa_temp_8961/atcacert_def.o
 .text.atcacert_max_cert_size
                0x00000000       0x74 dist/GOOGLE_IOT/production/__pa_temp_8961/atcacert_def.o
 .rodata.device_sn_dev_loc.3320
                0x00000000        0x7 dist/GOOGLE_IOT/production/__pa_temp_8961/atcacert_def.o
 .__pa__41      0x00000000        0xa dist/GOOGLE_IOT/production/__pa_temp_8961/atcacert_def.o
 .__pa__43      0x00000000       0x14 dist/GOOGLE_IOT/production/__pa_temp_8961/atcacert_def.o
 .__pa__57      0x00000000        0xa dist/GOOGLE_IOT/production/__pa_temp_8961/atcacert_def.o
 .__pa__89      0x00000000        0xe dist/GOOGLE_IOT/production/__pa_temp_8961/atcacert_def.o
 .__pa__122     0x00000000        0xa dist/GOOGLE_IOT/production/__pa_temp_8961/atcacert_def.o
 .__pa__137     0x00000000        0xa dist/GOOGLE_IOT/production/__pa_temp_8961/atcacert_def.o
 .__pa__142     0x00000000        0x8 dist/GOOGLE_IOT/production/__pa_temp_8961/atcacert_def.o
 .__pa__155     0x00000000       0x10 dist/GOOGLE_IOT/production/__pa_temp_8961/atcacert_def.o
 .__pa__158     0x00000000        0xe dist/GOOGLE_IOT/production/__pa_temp_8961/atcacert_def.o
 .__pa__164     0x00000000        0xe dist/GOOGLE_IOT/production/__pa_temp_8961/atcacert_def.o
 .__pa__174     0x00000000        0xa dist/GOOGLE_IOT/production/__pa_temp_8961/atcacert_def.o
 .__pa__175     0x00000000       0x14 dist/GOOGLE_IOT/production/__pa_temp_8961/atcacert_def.o
 .__pa__181     0x00000000       0x18 dist/GOOGLE_IOT/production/__pa_temp_8961/atcacert_def.o
 .__pa__197     0x00000000        0xe dist/GOOGLE_IOT/production/__pa_temp_8961/atcacert_def.o
 .__pa__198     0x00000000        0xe dist/GOOGLE_IOT/production/__pa_temp_8961/atcacert_def.o
 .__pa__205     0x00000000        0xe dist/GOOGLE_IOT/production/__pa_temp_8961/atcacert_def.o
 .__pa__206     0x00000000        0xe dist/GOOGLE_IOT/production/__pa_temp_8961/atcacert_def.o
 .text          0x00000000        0x0 dist/GOOGLE_IOT/production/__pa_temp_8961/atcacert_der.o
 .data          0x00000000        0x0 dist/GOOGLE_IOT/production/__pa_temp_8961/atcacert_der.o
 .bss           0x00000000        0x0 dist/GOOGLE_IOT/production/__pa_temp_8961/atcacert_der.o
 .text.atcacert_der_enc_length
                0x00000000       0xd6 dist/GOOGLE_IOT/production/__pa_temp_8961/atcacert_der.o
 .text.atcacert_der_dec_length
                0x00000000      0x132 dist/GOOGLE_IOT/production/__pa_temp_8961/atcacert_der.o
 .text.atcacert_der_adjust_length
                0x00000000       0xee dist/GOOGLE_IOT/production/__pa_temp_8961/atcacert_der.o
 .text.atcacert_der_enc_integer
                0x00000000      0x168 dist/GOOGLE_IOT/production/__pa_temp_8961/atcacert_der.o
 .text.atcacert_der_dec_integer
                0x00000000      0x128 dist/GOOGLE_IOT/production/__pa_temp_8961/atcacert_der.o
 .text.atcacert_der_enc_ecdsa_sig_value
                0x00000000      0x12a dist/GOOGLE_IOT/production/__pa_temp_8961/atcacert_der.o
 .text.atcacert_der_dec_ecdsa_sig_value
                0x00000000      0x29c dist/GOOGLE_IOT/production/__pa_temp_8961/atcacert_der.o
 .debug_info    0x00000000      0xbf6 dist/GOOGLE_IOT/production/__pa_temp_8961/atcacert_der.o
 .debug_abbrev  0x00000000      0x1e3 dist/GOOGLE_IOT/production/__pa_temp_8961/atcacert_der.o
 .debug_loc     0x00000000      0xe9e dist/GOOGLE_IOT/production/__pa_temp_8961/atcacert_der.o
 .debug_aranges
                0x00000000       0x50 dist/GOOGLE_IOT/production/__pa_temp_8961/atcacert_der.o
 .debug_ranges  0x00000000       0x58 dist/GOOGLE_IOT/production/__pa_temp_8961/atcacert_der.o
 .debug_line    0x00000000      0x679 dist/GOOGLE_IOT/production/__pa_temp_8961/atcacert_der.o
 .debug_str     0x00000000       0x4c dist/GOOGLE_IOT/production/__pa_temp_8961/atcacert_der.o
 .comment       0x00000000       0x30 dist/GOOGLE_IOT/production/__pa_temp_8961/atcacert_der.o
 .debug_frame   0x00000000      0x278 dist/GOOGLE_IOT/production/__pa_temp_8961/atcacert_der.o
 .__pa__97      0x00000000        0xa dist/GOOGLE_IOT/production/__pa_temp_8961/atcacert_der.o
 .__pa__172     0x00000000       0x14 dist/GOOGLE_IOT/production/__pa_temp_8961/atcacert_der.o
 .__pa__246     0x00000000       0x18 dist/GOOGLE_IOT/production/__pa_temp_8961/atcacert_der.o
 .text          0x00000000        0x0 dist/GOOGLE_IOT/production/__pa_temp_8961/atcacert_host_hw.o
 .data          0x00000000        0x0 dist/GOOGLE_IOT/production/__pa_temp_8961/atcacert_host_hw.o
 .bss           0x00000000        0x0 dist/GOOGLE_IOT/production/__pa_temp_8961/atcacert_host_hw.o
 .text.atcacert_verify_cert_hw
                0x00000000       0x9c dist/GOOGLE_IOT/production/__pa_temp_8961/atcacert_host_hw.o
 .text.atcacert_gen_challenge_hw
                0x00000000       0x12 dist/GOOGLE_IOT/production/__pa_temp_8961/atcacert_host_hw.o
 .text.atcacert_verify_response_hw
                0x00000000       0x4e dist/GOOGLE_IOT/production/__pa_temp_8961/atcacert_host_hw.o
 .debug_info    0x00000000      0xfb3 dist/GOOGLE_IOT/production/__pa_temp_8961/atcacert_host_hw.o
 .debug_abbrev  0x00000000      0x146 dist/GOOGLE_IOT/production/__pa_temp_8961/atcacert_host_hw.o
 .debug_loc     0x00000000      0x346 dist/GOOGLE_IOT/production/__pa_temp_8961/atcacert_host_hw.o
 .debug_aranges
                0x00000000       0x30 dist/GOOGLE_IOT/production/__pa_temp_8961/atcacert_host_hw.o
 .debug_ranges  0x00000000       0x20 dist/GOOGLE_IOT/production/__pa_temp_8961/atcacert_host_hw.o
 .debug_line    0x00000000      0x27b dist/GOOGLE_IOT/production/__pa_temp_8961/atcacert_host_hw.o
 .debug_str     0x00000000       0x66 dist/GOOGLE_IOT/production/__pa_temp_8961/atcacert_host_hw.o
 .comment       0x00000000       0x30 dist/GOOGLE_IOT/production/__pa_temp_8961/atcacert_host_hw.o
 .debug_frame   0x00000000       0x8c dist/GOOGLE_IOT/production/__pa_temp_8961/atcacert_host_hw.o
 .__pa__156     0x00000000        0xe dist/GOOGLE_IOT/production/__pa_temp_8961/atcacert_host_hw.o
 .__pa__168     0x00000000       0x10 dist/GOOGLE_IOT/production/__pa_temp_8961/atcacert_host_hw.o
 .text          0x00000000        0x0 dist/GOOGLE_IOT/production/__pa_temp_8961/atcacert_host_sw.o
 .data          0x00000000        0x0 dist/GOOGLE_IOT/production/__pa_temp_8961/atcacert_host_sw.o
 .bss           0x00000000        0x0 dist/GOOGLE_IOT/production/__pa_temp_8961/atcacert_host_sw.o
 .text.atcacert_verify_cert_sw
                0x00000000       0x74 dist/GOOGLE_IOT/production/__pa_temp_8961/atcacert_host_sw.o
 .text.atcacert_gen_challenge_sw
                0x00000000       0x12 dist/GOOGLE_IOT/production/__pa_temp_8961/atcacert_host_sw.o
 .text.atcacert_verify_response_sw
                0x00000000       0x20 dist/GOOGLE_IOT/production/__pa_temp_8961/atcacert_host_sw.o
 .debug_info    0x00000000      0xc8f dist/GOOGLE_IOT/production/__pa_temp_8961/atcacert_host_sw.o
 .debug_abbrev  0x00000000      0x136 dist/GOOGLE_IOT/production/__pa_temp_8961/atcacert_host_sw.o
 .debug_loc     0x00000000      0x27c dist/GOOGLE_IOT/production/__pa_temp_8961/atcacert_host_sw.o
 .debug_aranges
                0x00000000       0x30 dist/GOOGLE_IOT/production/__pa_temp_8961/atcacert_host_sw.o
 .debug_ranges  0x00000000       0x20 dist/GOOGLE_IOT/production/__pa_temp_8961/atcacert_host_sw.o
 .debug_line    0x00000000      0x222 dist/GOOGLE_IOT/production/__pa_temp_8961/atcacert_host_sw.o
 .debug_str     0x00000000       0x64 dist/GOOGLE_IOT/production/__pa_temp_8961/atcacert_host_sw.o
 .comment       0x00000000       0x30 dist/GOOGLE_IOT/production/__pa_temp_8961/atcacert_host_sw.o
 .debug_frame   0x00000000       0x7c dist/GOOGLE_IOT/production/__pa_temp_8961/atcacert_host_sw.o
 .text          0x00000000        0x0 dist/GOOGLE_IOT/production/__pa_temp_8961/atcacert_pem.o
 .data          0x00000000        0x0 dist/GOOGLE_IOT/production/__pa_temp_8961/atcacert_pem.o
 .bss           0x00000000        0x0 dist/GOOGLE_IOT/production/__pa_temp_8961/atcacert_pem.o
 .text.atcacert_encode_pem
                0x00000000      0x172 dist/GOOGLE_IOT/production/__pa_temp_8961/atcacert_pem.o
 .text.atcacert_decode_pem
                0x00000000       0xba dist/GOOGLE_IOT/production/__pa_temp_8961/atcacert_pem.o
 .rodata        0x00000000       0x7c dist/GOOGLE_IOT/production/__pa_temp_8961/atcacert_pem.o
 .text.atcacert_encode_pem_cert
                0x00000000       0x22 dist/GOOGLE_IOT/production/__pa_temp_8961/atcacert_pem.o
 .text.atcacert_encode_pem_csr
                0x00000000       0x22 dist/GOOGLE_IOT/production/__pa_temp_8961/atcacert_pem.o
 .text.atcacert_decode_pem_cert
                0x00000000       0x22 dist/GOOGLE_IOT/production/__pa_temp_8961/atcacert_pem.o
 .text.atcacert_decode_pem_csr
                0x00000000       0x22 dist/GOOGLE_IOT/production/__pa_temp_8961/atcacert_pem.o
 .debug_info    0x00000000      0xd3c dist/GOOGLE_IOT/production/__pa_temp_8961/atcacert_pem.o
 .debug_abbrev  0x00000000      0x16f dist/GOOGLE_IOT/production/__pa_temp_8961/atcacert_pem.o
 .debug_loc     0x00000000      0xa16 dist/GOOGLE_IOT/production/__pa_temp_8961/atcacert_pem.o
 .debug_aranges
                0x00000000       0x48 dist/GOOGLE_IOT/production/__pa_temp_8961/atcacert_pem.o
 .debug_ranges  0x00000000       0x50 dist/GOOGLE_IOT/production/__pa_temp_8961/atcacert_pem.o
 .debug_line    0x00000000      0x375 dist/GOOGLE_IOT/production/__pa_temp_8961/atcacert_pem.o
 .debug_str     0x00000000       0x80 dist/GOOGLE_IOT/production/__pa_temp_8961/atcacert_pem.o
 .comment       0x00000000       0x30 dist/GOOGLE_IOT/production/__pa_temp_8961/atcacert_pem.o
 .debug_frame   0x00000000      0x16c dist/GOOGLE_IOT/production/__pa_temp_8961/atcacert_pem.o
 .text          0x00000000        0x0 dist/GOOGLE_IOT/production/__pa_temp_8961/atca_basic.o
 .data          0x00000000        0x0 dist/GOOGLE_IOT/production/__pa_temp_8961/atca_basic.o
 .bss           0x00000000        0x0 dist/GOOGLE_IOT/production/__pa_temp_8961/atca_basic.o
 .text.atcab_version
                0x00000000        0xc dist/GOOGLE_IOT/production/__pa_temp_8961/atca_basic.o
 .text.atcab_init_device
                0x00000000       0x44 dist/GOOGLE_IOT/production/__pa_temp_8961/atca_basic.o
 .text.atcab_get_device
                0x00000000        0xa dist/GOOGLE_IOT/production/__pa_temp_8961/atca_basic.o
 .text.atcab_get_device_type
                0x00000000       0x16 dist/GOOGLE_IOT/production/__pa_temp_8961/atca_basic.o
 .text.atcab_wakeup
                0x00000000       0x18 dist/GOOGLE_IOT/production/__pa_temp_8961/atca_basic.o
 .text.atcab_idle
                0x00000000       0x18 dist/GOOGLE_IOT/production/__pa_temp_8961/atca_basic.o
 .text.atcab_sleep
                0x00000000       0x18 dist/GOOGLE_IOT/production/__pa_temp_8961/atca_basic.o
 .text.atcab_cfg_discover
                0x00000000       0xb4 dist/GOOGLE_IOT/production/__pa_temp_8961/atca_basic.o
 .text._atcab_exit
                0x00000000        0x4 dist/GOOGLE_IOT/production/__pa_temp_8961/atca_basic.o
 .rodata.atca_version
                0x00000000        0x9 dist/GOOGLE_IOT/production/__pa_temp_8961/atca_basic.o
 .__pa__266     0x00000000       0x10 dist/GOOGLE_IOT/production/__pa_temp_8961/atca_basic.o
 .text          0x00000000        0x0 dist/GOOGLE_IOT/production/__pa_temp_8961/atca_basic_checkmac.o
 .data          0x00000000        0x0 dist/GOOGLE_IOT/production/__pa_temp_8961/atca_basic_checkmac.o
 .bss           0x00000000        0x0 dist/GOOGLE_IOT/production/__pa_temp_8961/atca_basic_checkmac.o
 .text.atcab_checkmac
                0x00000000       0xb0 dist/GOOGLE_IOT/production/__pa_temp_8961/atca_basic_checkmac.o
 .debug_info    0x00000000      0xd7f dist/GOOGLE_IOT/production/__pa_temp_8961/atca_basic_checkmac.o
 .debug_abbrev  0x00000000      0x16c dist/GOOGLE_IOT/production/__pa_temp_8961/atca_basic_checkmac.o
 .debug_loc     0x00000000      0x173 dist/GOOGLE_IOT/production/__pa_temp_8961/atca_basic_checkmac.o
 .debug_aranges
                0x00000000       0x20 dist/GOOGLE_IOT/production/__pa_temp_8961/atca_basic_checkmac.o
 .debug_ranges  0x00000000       0x10 dist/GOOGLE_IOT/production/__pa_temp_8961/atca_basic_checkmac.o
 .debug_line    0x00000000      0x1cb dist/GOOGLE_IOT/production/__pa_temp_8961/atca_basic_checkmac.o
 .debug_str     0x00000000       0x20 dist/GOOGLE_IOT/production/__pa_temp_8961/atca_basic_checkmac.o
 .comment       0x00000000       0x30 dist/GOOGLE_IOT/production/__pa_temp_8961/atca_basic_checkmac.o
 .debug_frame   0x00000000       0x4c dist/GOOGLE_IOT/production/__pa_temp_8961/atca_basic_checkmac.o
 .text          0x00000000        0x0 dist/GOOGLE_IOT/production/__pa_temp_8961/atca_basic_counter.o
 .data          0x00000000        0x0 dist/GOOGLE_IOT/production/__pa_temp_8961/atca_basic_counter.o
 .bss           0x00000000        0x0 dist/GOOGLE_IOT/production/__pa_temp_8961/atca_basic_counter.o
 .text.atcab_counter
                0x00000000       0x78 dist/GOOGLE_IOT/production/__pa_temp_8961/atca_basic_counter.o
 .text.atcab_counter_increment
                0x00000000        0xa dist/GOOGLE_IOT/production/__pa_temp_8961/atca_basic_counter.o
 .text.atcab_counter_read
                0x00000000        0xa dist/GOOGLE_IOT/production/__pa_temp_8961/atca_basic_counter.o
 .debug_info    0x00000000      0xe23 dist/GOOGLE_IOT/production/__pa_temp_8961/atca_basic_counter.o
 .debug_abbrev  0x00000000      0x182 dist/GOOGLE_IOT/production/__pa_temp_8961/atca_basic_counter.o
 .debug_loc     0x00000000      0x1fe dist/GOOGLE_IOT/production/__pa_temp_8961/atca_basic_counter.o
 .debug_aranges
                0x00000000       0x30 dist/GOOGLE_IOT/production/__pa_temp_8961/atca_basic_counter.o
 .debug_ranges  0x00000000       0x20 dist/GOOGLE_IOT/production/__pa_temp_8961/atca_basic_counter.o
 .debug_line    0x00000000      0x1ce dist/GOOGLE_IOT/production/__pa_temp_8961/atca_basic_counter.o
 .debug_str     0x00000000       0x38 dist/GOOGLE_IOT/production/__pa_temp_8961/atca_basic_counter.o
 .comment       0x00000000       0x30 dist/GOOGLE_IOT/production/__pa_temp_8961/atca_basic_counter.o
 .debug_frame   0x00000000       0x60 dist/GOOGLE_IOT/production/__pa_temp_8961/atca_basic_counter.o
 .text          0x00000000        0x0 dist/GOOGLE_IOT/production/__pa_temp_8961/atca_basic_derivekey.o
 .data          0x00000000        0x0 dist/GOOGLE_IOT/production/__pa_temp_8961/atca_basic_derivekey.o
 .bss           0x00000000        0x0 dist/GOOGLE_IOT/production/__pa_temp_8961/atca_basic_derivekey.o
 .text.atcab_derivekey
                0x00000000       0x6e dist/GOOGLE_IOT/production/__pa_temp_8961/atca_basic_derivekey.o
 .debug_info    0x00000000      0xd59 dist/GOOGLE_IOT/production/__pa_temp_8961/atca_basic_derivekey.o
 .debug_abbrev  0x00000000      0x15f dist/GOOGLE_IOT/production/__pa_temp_8961/atca_basic_derivekey.o
 .debug_loc     0x00000000       0xda dist/GOOGLE_IOT/production/__pa_temp_8961/atca_basic_derivekey.o
 .debug_aranges
                0x00000000       0x20 dist/GOOGLE_IOT/production/__pa_temp_8961/atca_basic_derivekey.o
 .debug_ranges  0x00000000       0x10 dist/GOOGLE_IOT/production/__pa_temp_8961/atca_basic_derivekey.o
 .debug_line    0x00000000      0x18a dist/GOOGLE_IOT/production/__pa_temp_8961/atca_basic_derivekey.o
 .debug_str     0x00000000       0x21 dist/GOOGLE_IOT/production/__pa_temp_8961/atca_basic_derivekey.o
 .comment       0x00000000       0x30 dist/GOOGLE_IOT/production/__pa_temp_8961/atca_basic_derivekey.o
 .debug_frame   0x00000000       0x40 dist/GOOGLE_IOT/production/__pa_temp_8961/atca_basic_derivekey.o
 .text          0x00000000        0x0 dist/GOOGLE_IOT/production/__pa_temp_8961/atca_basic_ecdh.o
 .data          0x00000000        0x0 dist/GOOGLE_IOT/production/__pa_temp_8961/atca_basic_ecdh.o
 .bss           0x00000000        0x0 dist/GOOGLE_IOT/production/__pa_temp_8961/atca_basic_ecdh.o
 .text.atcab_ecdh_base
                0x00000000       0xa2 dist/GOOGLE_IOT/production/__pa_temp_8961/atca_basic_ecdh.o
 .text.atcab_ecdh
                0x00000000       0x1a dist/GOOGLE_IOT/production/__pa_temp_8961/atca_basic_ecdh.o
 .rodata        0x00000000       0x73 dist/GOOGLE_IOT/production/__pa_temp_8961/atca_basic_ecdh.o
 .text.atcab_ecdh_enc
                0x00000000       0x9e dist/GOOGLE_IOT/production/__pa_temp_8961/atca_basic_ecdh.o
 .text.atcab_ecdh_ioenc
                0x00000000       0x68 dist/GOOGLE_IOT/production/__pa_temp_8961/atca_basic_ecdh.o
 .text.atcab_ecdh_tempkey
                0x00000000       0x1c dist/GOOGLE_IOT/production/__pa_temp_8961/atca_basic_ecdh.o
 .text.atcab_ecdh_tempkey_ioenc
                0x00000000       0x70 dist/GOOGLE_IOT/production/__pa_temp_8961/atca_basic_ecdh.o
 .debug_info    0x00000000     0x121c dist/GOOGLE_IOT/production/__pa_temp_8961/atca_basic_ecdh.o
 .debug_abbrev  0x00000000      0x1dc dist/GOOGLE_IOT/production/__pa_temp_8961/atca_basic_ecdh.o
 .debug_loc     0x00000000      0x55c dist/GOOGLE_IOT/production/__pa_temp_8961/atca_basic_ecdh.o
 .debug_aranges
                0x00000000       0x48 dist/GOOGLE_IOT/production/__pa_temp_8961/atca_basic_ecdh.o
 .debug_ranges  0x00000000       0x38 dist/GOOGLE_IOT/production/__pa_temp_8961/atca_basic_ecdh.o
 .debug_line    0x00000000      0x360 dist/GOOGLE_IOT/production/__pa_temp_8961/atca_basic_ecdh.o
 .debug_str     0x00000000       0x6d dist/GOOGLE_IOT/production/__pa_temp_8961/atca_basic_ecdh.o
 .comment       0x00000000       0x30 dist/GOOGLE_IOT/production/__pa_temp_8961/atca_basic_ecdh.o
 .debug_frame   0x00000000      0x178 dist/GOOGLE_IOT/production/__pa_temp_8961/atca_basic_ecdh.o
 .__pa__284     0x00000000       0x16 dist/GOOGLE_IOT/production/__pa_temp_8961/atca_basic_ecdh.o
 .text          0x00000000        0x0 dist/GOOGLE_IOT/production/__pa_temp_8961/atca_basic_gendig.o
 .data          0x00000000        0x0 dist/GOOGLE_IOT/production/__pa_temp_8961/atca_basic_gendig.o
 .bss           0x00000000        0x0 dist/GOOGLE_IOT/production/__pa_temp_8961/atca_basic_gendig.o
 .text.atcab_gendig
                0x00000000       0x90 dist/GOOGLE_IOT/production/__pa_temp_8961/atca_basic_gendig.o
 .debug_info    0x00000000      0xd93 dist/GOOGLE_IOT/production/__pa_temp_8961/atca_basic_gendig.o
 .debug_abbrev  0x00000000      0x15f dist/GOOGLE_IOT/production/__pa_temp_8961/atca_basic_gendig.o
 .debug_loc     0x00000000      0x1bc dist/GOOGLE_IOT/production/__pa_temp_8961/atca_basic_gendig.o
 .debug_aranges
                0x00000000       0x20 dist/GOOGLE_IOT/production/__pa_temp_8961/atca_basic_gendig.o
 .debug_ranges  0x00000000       0x10 dist/GOOGLE_IOT/production/__pa_temp_8961/atca_basic_gendig.o
 .debug_line    0x00000000      0x1cf dist/GOOGLE_IOT/production/__pa_temp_8961/atca_basic_gendig.o
 .debug_str     0x00000000       0x1e dist/GOOGLE_IOT/production/__pa_temp_8961/atca_basic_gendig.o
 .comment       0x00000000       0x30 dist/GOOGLE_IOT/production/__pa_temp_8961/atca_basic_gendig.o
 .debug_frame   0x00000000       0x40 dist/GOOGLE_IOT/production/__pa_temp_8961/atca_basic_gendig.o
 .text          0x00000000        0x0 dist/GOOGLE_IOT/production/__pa_temp_8961/atca_basic_genkey.o
 .data          0x00000000        0x0 dist/GOOGLE_IOT/production/__pa_temp_8961/atca_basic_genkey.o
 .bss           0x00000000        0x0 dist/GOOGLE_IOT/production/__pa_temp_8961/atca_basic_genkey.o
 .text.atcab_genkey
                0x00000000        0xe dist/GOOGLE_IOT/production/__pa_temp_8961/atca_basic_genkey.o
 .text          0x00000000        0x0 dist/GOOGLE_IOT/production/__pa_temp_8961/atca_basic_hmac.o
 .data          0x00000000        0x0 dist/GOOGLE_IOT/production/__pa_temp_8961/atca_basic_hmac.o
 .bss           0x00000000        0x0 dist/GOOGLE_IOT/production/__pa_temp_8961/atca_basic_hmac.o
 .text.atcab_hmac
                0x00000000       0x72 dist/GOOGLE_IOT/production/__pa_temp_8961/atca_basic_hmac.o
 .debug_info    0x00000000      0xd3a dist/GOOGLE_IOT/production/__pa_temp_8961/atca_basic_hmac.o
 .debug_abbrev  0x00000000      0x177 dist/GOOGLE_IOT/production/__pa_temp_8961/atca_basic_hmac.o
 .debug_loc     0x00000000      0x131 dist/GOOGLE_IOT/production/__pa_temp_8961/atca_basic_hmac.o
 .debug_aranges
                0x00000000       0x20 dist/GOOGLE_IOT/production/__pa_temp_8961/atca_basic_hmac.o
 .debug_ranges  0x00000000       0x10 dist/GOOGLE_IOT/production/__pa_temp_8961/atca_basic_hmac.o
 .debug_line    0x00000000      0x197 dist/GOOGLE_IOT/production/__pa_temp_8961/atca_basic_hmac.o
 .debug_str     0x00000000       0x15 dist/GOOGLE_IOT/production/__pa_temp_8961/atca_basic_hmac.o
 .comment       0x00000000       0x30 dist/GOOGLE_IOT/production/__pa_temp_8961/atca_basic_hmac.o
 .debug_frame   0x00000000       0x40 dist/GOOGLE_IOT/production/__pa_temp_8961/atca_basic_hmac.o
 .text          0x00000000        0x0 dist/GOOGLE_IOT/production/__pa_temp_8961/atca_basic_info.o
 .data          0x00000000        0x0 dist/GOOGLE_IOT/production/__pa_temp_8961/atca_basic_info.o
 .bss           0x00000000        0x0 dist/GOOGLE_IOT/production/__pa_temp_8961/atca_basic_info.o
 .text.atcab_info_base
                0x00000000       0x6a dist/GOOGLE_IOT/production/__pa_temp_8961/atca_basic_info.o
 .text.atcab_info
                0x00000000       0x14 dist/GOOGLE_IOT/production/__pa_temp_8961/atca_basic_info.o
 .text.atcab_info_get_latch
                0x00000000       0x4e dist/GOOGLE_IOT/production/__pa_temp_8961/atca_basic_info.o
 .text.atcab_info_set_latch
                0x00000000       0x10 dist/GOOGLE_IOT/production/__pa_temp_8961/atca_basic_info.o
 .debug_info    0x00000000      0xea2 dist/GOOGLE_IOT/production/__pa_temp_8961/atca_basic_info.o
 .debug_abbrev  0x00000000      0x1b4 dist/GOOGLE_IOT/production/__pa_temp_8961/atca_basic_info.o
 .debug_loc     0x00000000      0x1ef dist/GOOGLE_IOT/production/__pa_temp_8961/atca_basic_info.o
 .debug_aranges
                0x00000000       0x38 dist/GOOGLE_IOT/production/__pa_temp_8961/atca_basic_info.o
 .debug_ranges  0x00000000       0x28 dist/GOOGLE_IOT/production/__pa_temp_8961/atca_basic_info.o
 .debug_line    0x00000000      0x206 dist/GOOGLE_IOT/production/__pa_temp_8961/atca_basic_info.o
 .debug_str     0x00000000       0x25 dist/GOOGLE_IOT/production/__pa_temp_8961/atca_basic_info.o
 .comment       0x00000000       0x30 dist/GOOGLE_IOT/production/__pa_temp_8961/atca_basic_info.o
 .debug_frame   0x00000000       0x8c dist/GOOGLE_IOT/production/__pa_temp_8961/atca_basic_info.o
 .text          0x00000000        0x0 dist/GOOGLE_IOT/production/__pa_temp_8961/atca_basic_kdf.o
 .data          0x00000000        0x0 dist/GOOGLE_IOT/production/__pa_temp_8961/atca_basic_kdf.o
 .bss           0x00000000        0x0 dist/GOOGLE_IOT/production/__pa_temp_8961/atca_basic_kdf.o
 .text.atcab_kdf
                0x00000000      0x130 dist/GOOGLE_IOT/production/__pa_temp_8961/atca_basic_kdf.o
 .debug_info    0x00000000      0xe0d dist/GOOGLE_IOT/production/__pa_temp_8961/atca_basic_kdf.o
 .debug_abbrev  0x00000000      0x18c dist/GOOGLE_IOT/production/__pa_temp_8961/atca_basic_kdf.o
 .debug_loc     0x00000000      0x22b dist/GOOGLE_IOT/production/__pa_temp_8961/atca_basic_kdf.o
 .debug_aranges
                0x00000000       0x20 dist/GOOGLE_IOT/production/__pa_temp_8961/atca_basic_kdf.o
 .debug_ranges  0x00000000       0x10 dist/GOOGLE_IOT/production/__pa_temp_8961/atca_basic_kdf.o
 .debug_line    0x00000000      0x1fd dist/GOOGLE_IOT/production/__pa_temp_8961/atca_basic_kdf.o
 .debug_str     0x00000000       0x15 dist/GOOGLE_IOT/production/__pa_temp_8961/atca_basic_kdf.o
 .comment       0x00000000       0x30 dist/GOOGLE_IOT/production/__pa_temp_8961/atca_basic_kdf.o
 .debug_frame   0x00000000       0x7c dist/GOOGLE_IOT/production/__pa_temp_8961/atca_basic_kdf.o
 .text          0x00000000        0x0 dist/GOOGLE_IOT/production/__pa_temp_8961/atca_basic_lock.o
 .data          0x00000000        0x0 dist/GOOGLE_IOT/production/__pa_temp_8961/atca_basic_lock.o
 .bss           0x00000000        0x0 dist/GOOGLE_IOT/production/__pa_temp_8961/atca_basic_lock.o
 .text.atcab_lock_config_zone
                0x00000000        0xa dist/GOOGLE_IOT/production/__pa_temp_8961/atca_basic_lock.o
 .text.atcab_lock_config_zone_crc
                0x00000000        0x8 dist/GOOGLE_IOT/production/__pa_temp_8961/atca_basic_lock.o
 .text.atcab_lock_data_zone
                0x00000000        0xa dist/GOOGLE_IOT/production/__pa_temp_8961/atca_basic_lock.o
 .text.atcab_lock_data_zone_crc
                0x00000000        0x8 dist/GOOGLE_IOT/production/__pa_temp_8961/atca_basic_lock.o
 .text          0x00000000        0x0 dist/GOOGLE_IOT/production/__pa_temp_8961/atca_basic_mac.o
 .data          0x00000000        0x0 dist/GOOGLE_IOT/production/__pa_temp_8961/atca_basic_mac.o
 .bss           0x00000000        0x0 dist/GOOGLE_IOT/production/__pa_temp_8961/atca_basic_mac.o
 .text.atcab_mac
                0x00000000       0x88 dist/GOOGLE_IOT/production/__pa_temp_8961/atca_basic_mac.o
 .debug_info    0x00000000      0xd61 dist/GOOGLE_IOT/production/__pa_temp_8961/atca_basic_mac.o
 .debug_abbrev  0x00000000      0x17e dist/GOOGLE_IOT/production/__pa_temp_8961/atca_basic_mac.o
 .debug_loc     0x00000000      0x101 dist/GOOGLE_IOT/production/__pa_temp_8961/atca_basic_mac.o
 .debug_aranges
                0x00000000       0x20 dist/GOOGLE_IOT/production/__pa_temp_8961/atca_basic_mac.o
 .debug_ranges  0x00000000       0x10 dist/GOOGLE_IOT/production/__pa_temp_8961/atca_basic_mac.o
 .debug_line    0x00000000      0x19c dist/GOOGLE_IOT/production/__pa_temp_8961/atca_basic_mac.o
 .debug_str     0x00000000       0x15 dist/GOOGLE_IOT/production/__pa_temp_8961/atca_basic_mac.o
 .comment       0x00000000       0x30 dist/GOOGLE_IOT/production/__pa_temp_8961/atca_basic_mac.o
 .debug_frame   0x00000000       0x4c dist/GOOGLE_IOT/production/__pa_temp_8961/atca_basic_mac.o
 .text          0x00000000        0x0 dist/GOOGLE_IOT/production/__pa_temp_8961/atca_basic_nonce.o
 .data          0x00000000        0x0 dist/GOOGLE_IOT/production/__pa_temp_8961/atca_basic_nonce.o
 .bss           0x00000000        0x0 dist/GOOGLE_IOT/production/__pa_temp_8961/atca_basic_nonce.o
 .text.atcab_challenge
                0x00000000       0x10 dist/GOOGLE_IOT/production/__pa_temp_8961/atca_basic_nonce.o
 .text.atcab_nonce
                0x00000000        0x4 dist/GOOGLE_IOT/production/__pa_temp_8961/atca_basic_nonce.o
 .text.atcab_challenge_seed_update
                0x00000000        0xe dist/GOOGLE_IOT/production/__pa_temp_8961/atca_basic_nonce.o
 .text.atcab_nonce_rand
                0x00000000        0x4 dist/GOOGLE_IOT/production/__pa_temp_8961/atca_basic_nonce.o
 .text          0x00000000        0x0 dist/GOOGLE_IOT/production/__pa_temp_8961/atca_basic_privwrite.o
 .data          0x00000000        0x0 dist/GOOGLE_IOT/production/__pa_temp_8961/atca_basic_privwrite.o
 .bss           0x00000000        0x0 dist/GOOGLE_IOT/production/__pa_temp_8961/atca_basic_privwrite.o
 .text.atcab_priv_write
                0x00000000      0x2b4 dist/GOOGLE_IOT/production/__pa_temp_8961/atca_basic_privwrite.o
 .debug_info    0x00000000     0x129d dist/GOOGLE_IOT/production/__pa_temp_8961/atca_basic_privwrite.o
 .debug_abbrev  0x00000000      0x214 dist/GOOGLE_IOT/production/__pa_temp_8961/atca_basic_privwrite.o
 .debug_loc     0x00000000      0x19d dist/GOOGLE_IOT/production/__pa_temp_8961/atca_basic_privwrite.o
 .debug_aranges
                0x00000000       0x20 dist/GOOGLE_IOT/production/__pa_temp_8961/atca_basic_privwrite.o
 .debug_ranges  0x00000000       0x10 dist/GOOGLE_IOT/production/__pa_temp_8961/atca_basic_privwrite.o
 .debug_line    0x00000000      0x2ea dist/GOOGLE_IOT/production/__pa_temp_8961/atca_basic_privwrite.o
 .debug_str     0x00000000       0xa6 dist/GOOGLE_IOT/production/__pa_temp_8961/atca_basic_privwrite.o
 .comment       0x00000000       0x30 dist/GOOGLE_IOT/production/__pa_temp_8961/atca_basic_privwrite.o
 .debug_frame   0x00000000       0x88 dist/GOOGLE_IOT/production/__pa_temp_8961/atca_basic_privwrite.o
 .text          0x00000000        0x0 dist/GOOGLE_IOT/production/__pa_temp_8961/atca_basic_random.o
 .data          0x00000000        0x0 dist/GOOGLE_IOT/production/__pa_temp_8961/atca_basic_random.o
 .bss           0x00000000        0x0 dist/GOOGLE_IOT/production/__pa_temp_8961/atca_basic_random.o
 .text          0x00000000        0x0 dist/GOOGLE_IOT/production/__pa_temp_8961/atca_basic_read.o
 .data          0x00000000        0x0 dist/GOOGLE_IOT/production/__pa_temp_8961/atca_basic_read.o
 .bss           0x00000000        0x0 dist/GOOGLE_IOT/production/__pa_temp_8961/atca_basic_read.o
 .text.atcab_is_slot_locked
                0x00000000       0x82 dist/GOOGLE_IOT/production/__pa_temp_8961/atca_basic_read.o
 .text.atcab_is_locked
                0x00000000       0x72 dist/GOOGLE_IOT/production/__pa_temp_8961/atca_basic_read.o
 .rodata        0x00000000      0x130 dist/GOOGLE_IOT/production/__pa_temp_8961/atca_basic_read.o
 .text.atcab_read_enc
                0x00000000      0x244 dist/GOOGLE_IOT/production/__pa_temp_8961/atca_basic_read.o
 .text.atcab_read_sig
                0x00000000       0x5c dist/GOOGLE_IOT/production/__pa_temp_8961/atca_basic_read.o
 .text.atcab_read_pubkey
                0x00000000       0xc6 dist/GOOGLE_IOT/production/__pa_temp_8961/atca_basic_read.o
 .text.atcab_read_config_zone
                0x00000000       0x3c dist/GOOGLE_IOT/production/__pa_temp_8961/atca_basic_read.o
 .text.atcab_cmp_config_zone
                0x00000000      0x124 dist/GOOGLE_IOT/production/__pa_temp_8961/atca_basic_read.o
 .__pa__169     0x00000000        0xa dist/GOOGLE_IOT/production/__pa_temp_8961/atca_basic_read.o
 .text          0x00000000        0x0 dist/GOOGLE_IOT/production/__pa_temp_8961/atca_basic_secureboot.o
 .data          0x00000000        0x0 dist/GOOGLE_IOT/production/__pa_temp_8961/atca_basic_secureboot.o
 .bss           0x00000000        0x0 dist/GOOGLE_IOT/production/__pa_temp_8961/atca_basic_secureboot.o
 .text.atcab_secureboot
                0x00000000       0x9e dist/GOOGLE_IOT/production/__pa_temp_8961/atca_basic_secureboot.o
 .text.atcab_secureboot_mac
                0x00000000      0x1b6 dist/GOOGLE_IOT/production/__pa_temp_8961/atca_basic_secureboot.o
 .__pa__120     0x00000000        0xa dist/GOOGLE_IOT/production/__pa_temp_8961/atca_basic_secureboot.o
 .__pa__232     0x00000000        0xc dist/GOOGLE_IOT/production/__pa_temp_8961/atca_basic_secureboot.o
 .text          0x00000000        0x0 dist/GOOGLE_IOT/production/__pa_temp_8961/atca_basic_selftest.o
 .data          0x00000000        0x0 dist/GOOGLE_IOT/production/__pa_temp_8961/atca_basic_selftest.o
 .bss           0x00000000        0x0 dist/GOOGLE_IOT/production/__pa_temp_8961/atca_basic_selftest.o
 .text.atcab_selftest
                0x00000000       0x82 dist/GOOGLE_IOT/production/__pa_temp_8961/atca_basic_selftest.o
 .debug_info    0x00000000      0xd54 dist/GOOGLE_IOT/production/__pa_temp_8961/atca_basic_selftest.o
 .debug_abbrev  0x00000000      0x158 dist/GOOGLE_IOT/production/__pa_temp_8961/atca_basic_selftest.o
 .debug_loc     0x00000000       0xf7 dist/GOOGLE_IOT/production/__pa_temp_8961/atca_basic_selftest.o
 .debug_aranges
                0x00000000       0x20 dist/GOOGLE_IOT/production/__pa_temp_8961/atca_basic_selftest.o
 .debug_ranges  0x00000000       0x10 dist/GOOGLE_IOT/production/__pa_temp_8961/atca_basic_selftest.o
 .debug_line    0x00000000      0x19b dist/GOOGLE_IOT/production/__pa_temp_8961/atca_basic_selftest.o
 .debug_str     0x00000000       0x20 dist/GOOGLE_IOT/production/__pa_temp_8961/atca_basic_selftest.o
 .comment       0x00000000       0x30 dist/GOOGLE_IOT/production/__pa_temp_8961/atca_basic_selftest.o
 .debug_frame   0x00000000       0x44 dist/GOOGLE_IOT/production/__pa_temp_8961/atca_basic_selftest.o
 .text          0x00000000        0x0 dist/GOOGLE_IOT/production/__pa_temp_8961/atca_basic_sha.o
 .data          0x00000000        0x0 dist/GOOGLE_IOT/production/__pa_temp_8961/atca_basic_sha.o
 .bss           0x00000000        0x0 dist/GOOGLE_IOT/production/__pa_temp_8961/atca_basic_sha.o
 .text.atcab_sha_base
                0x00000000       0xec dist/GOOGLE_IOT/production/__pa_temp_8961/atca_basic_sha.o
 .text.atcab_sha_start
                0x00000000       0x20 dist/GOOGLE_IOT/production/__pa_temp_8961/atca_basic_sha.o
 .text.atcab_sha_update
                0x00000000       0x1c dist/GOOGLE_IOT/production/__pa_temp_8961/atca_basic_sha.o
 .text.atcab_sha_end
                0x00000000       0x30 dist/GOOGLE_IOT/production/__pa_temp_8961/atca_basic_sha.o
 .text.atcab_sha_read_context
                0x00000000       0x18 dist/GOOGLE_IOT/production/__pa_temp_8961/atca_basic_sha.o
 .text.atcab_sha_write_context
                0x00000000       0x16 dist/GOOGLE_IOT/production/__pa_temp_8961/atca_basic_sha.o
 .text.atcab_hw_sha2_256_init
                0x00000000        0xe dist/GOOGLE_IOT/production/__pa_temp_8961/atca_basic_sha.o
 .text.atcab_hw_sha2_256_update
                0x00000000      0x15c dist/GOOGLE_IOT/production/__pa_temp_8961/atca_basic_sha.o
 .text.atcab_hw_sha2_256_finish
                0x00000000      0x156 dist/GOOGLE_IOT/production/__pa_temp_8961/atca_basic_sha.o
 .text.atcab_hw_sha2_256
                0x00000000       0x58 dist/GOOGLE_IOT/production/__pa_temp_8961/atca_basic_sha.o
 .text.atcab_sha
                0x00000000        0xa dist/GOOGLE_IOT/production/__pa_temp_8961/atca_basic_sha.o
 .text.atcab_sha_hmac_init
                0x00000000       0x22 dist/GOOGLE_IOT/production/__pa_temp_8961/atca_basic_sha.o
 .text.atcab_sha_hmac_update
                0x00000000      0x176 dist/GOOGLE_IOT/production/__pa_temp_8961/atca_basic_sha.o
 .text.atcab_sha_hmac_finish
                0x00000000       0x5e dist/GOOGLE_IOT/production/__pa_temp_8961/atca_basic_sha.o
 .text.atcab_sha_hmac
                0x00000000       0x6a dist/GOOGLE_IOT/production/__pa_temp_8961/atca_basic_sha.o
 .__pa__4       0x00000000       0x1a dist/GOOGLE_IOT/production/__pa_temp_8961/atca_basic_sha.o
 .__pa__25      0x00000000        0xa dist/GOOGLE_IOT/production/__pa_temp_8961/atca_basic_sha.o
 .__pa__187     0x00000000       0x12 dist/GOOGLE_IOT/production/__pa_temp_8961/atca_basic_sha.o
 .__pa__269     0x00000000        0x8 dist/GOOGLE_IOT/production/__pa_temp_8961/atca_basic_sha.o
 .__pa__281     0x00000000       0x14 dist/GOOGLE_IOT/production/__pa_temp_8961/atca_basic_sha.o
 .text          0x00000000        0x0 dist/GOOGLE_IOT/production/__pa_temp_8961/atca_basic_sign.o
 .data          0x00000000        0x0 dist/GOOGLE_IOT/production/__pa_temp_8961/atca_basic_sign.o
 .bss           0x00000000        0x0 dist/GOOGLE_IOT/production/__pa_temp_8961/atca_basic_sign.o
 .text.atcab_sign_internal
                0x00000000       0x10 dist/GOOGLE_IOT/production/__pa_temp_8961/atca_basic_sign.o
 .text          0x00000000        0x0 dist/GOOGLE_IOT/production/__pa_temp_8961/atca_basic_updateextra.o
 .data          0x00000000        0x0 dist/GOOGLE_IOT/production/__pa_temp_8961/atca_basic_updateextra.o
 .bss           0x00000000        0x0 dist/GOOGLE_IOT/production/__pa_temp_8961/atca_basic_updateextra.o
 .text.atcab_updateextra
                0x00000000       0x58 dist/GOOGLE_IOT/production/__pa_temp_8961/atca_basic_updateextra.o
 .text          0x00000000        0x0 dist/GOOGLE_IOT/production/__pa_temp_8961/atca_basic_verify.o
 .data          0x00000000        0x0 dist/GOOGLE_IOT/production/__pa_temp_8961/atca_basic_verify.o
 .bss           0x00000000        0x0 dist/GOOGLE_IOT/production/__pa_temp_8961/atca_basic_verify.o
 .text.atcab_verify
                0x00000000       0xde dist/GOOGLE_IOT/production/__pa_temp_8961/atca_basic_verify.o
 .text.atcab_verify_extern_stored_mac.part.0
                0x00000000      0x12c dist/GOOGLE_IOT/production/__pa_temp_8961/atca_basic_verify.o
 .text.atcab_verify_extern
                0x00000000       0x96 dist/GOOGLE_IOT/production/__pa_temp_8961/atca_basic_verify.o
 .text.atcab_verify_extern_mac
                0x00000000       0x5e dist/GOOGLE_IOT/production/__pa_temp_8961/atca_basic_verify.o
 .text.atcab_verify_stored
                0x00000000       0x8c dist/GOOGLE_IOT/production/__pa_temp_8961/atca_basic_verify.o
 .text.atcab_verify_stored_mac
                0x00000000       0x5a dist/GOOGLE_IOT/production/__pa_temp_8961/atca_basic_verify.o
 .text.atcab_verify_validate
                0x00000000       0x42 dist/GOOGLE_IOT/production/__pa_temp_8961/atca_basic_verify.o
 .text.atcab_verify_invalidate
                0x00000000       0x42 dist/GOOGLE_IOT/production/__pa_temp_8961/atca_basic_verify.o
 .debug_info    0x00000000     0x17dd dist/GOOGLE_IOT/production/__pa_temp_8961/atca_basic_verify.o
 .debug_abbrev  0x00000000      0x2b0 dist/GOOGLE_IOT/production/__pa_temp_8961/atca_basic_verify.o
 .debug_loc     0x00000000      0xf04 dist/GOOGLE_IOT/production/__pa_temp_8961/atca_basic_verify.o
 .debug_aranges
                0x00000000       0x58 dist/GOOGLE_IOT/production/__pa_temp_8961/atca_basic_verify.o
 .debug_ranges  0x00000000       0x48 dist/GOOGLE_IOT/production/__pa_temp_8961/atca_basic_verify.o
 .debug_line    0x00000000      0x4b1 dist/GOOGLE_IOT/production/__pa_temp_8961/atca_basic_verify.o
 .debug_str     0x00000000       0xb7 dist/GOOGLE_IOT/production/__pa_temp_8961/atca_basic_verify.o
 .comment       0x00000000       0x30 dist/GOOGLE_IOT/production/__pa_temp_8961/atca_basic_verify.o
 .debug_frame   0x00000000      0x228 dist/GOOGLE_IOT/production/__pa_temp_8961/atca_basic_verify.o
 .__pa__38      0x00000000        0xc dist/GOOGLE_IOT/production/__pa_temp_8961/atca_basic_verify.o
 .__pa__39      0x00000000       0x10 dist/GOOGLE_IOT/production/__pa_temp_8961/atca_basic_verify.o
 .__pa__40      0x00000000       0x12 dist/GOOGLE_IOT/production/__pa_temp_8961/atca_basic_verify.o
 .__pa__153     0x00000000        0xa dist/GOOGLE_IOT/production/__pa_temp_8961/atca_basic_verify.o
 .__pa__208     0x00000000        0xa dist/GOOGLE_IOT/production/__pa_temp_8961/atca_basic_verify.o
 .text          0x00000000        0x0 dist/GOOGLE_IOT/production/__pa_temp_8961/atca_basic_write.o
 .data          0x00000000        0x0 dist/GOOGLE_IOT/production/__pa_temp_8961/atca_basic_write.o
 .bss           0x00000000        0x0 dist/GOOGLE_IOT/production/__pa_temp_8961/atca_basic_write.o
 .text.atcab_write
                0x00000000       0x94 dist/GOOGLE_IOT/production/__pa_temp_8961/atca_basic_write.o
 .text.atcab_write_zone
                0x00000000       0x6e dist/GOOGLE_IOT/production/__pa_temp_8961/atca_basic_write.o
 .rodata        0x00000000       0xeb dist/GOOGLE_IOT/production/__pa_temp_8961/atca_basic_write.o
 .text.atcab_write_enc
                0x00000000      0x318 dist/GOOGLE_IOT/production/__pa_temp_8961/atca_basic_write.o
 .text.atcab_write_pubkey
                0x00000000       0xa0 dist/GOOGLE_IOT/production/__pa_temp_8961/atca_basic_write.o
 .text.atcab_write_bytes_zone
                0x00000000      0x16a dist/GOOGLE_IOT/production/__pa_temp_8961/atca_basic_write.o
 .text.atcab_write_config_zone
                0x00000000       0x84 dist/GOOGLE_IOT/production/__pa_temp_8961/atca_basic_write.o
 .text.atcab_write_config_counter
                0x00000000       0xf0 dist/GOOGLE_IOT/production/__pa_temp_8961/atca_basic_write.o
 .__pa__31      0x00000000        0x8 dist/GOOGLE_IOT/production/__pa_temp_8961/atca_basic_write.o
 .__pa__279     0x00000000        0xe dist/GOOGLE_IOT/production/__pa_temp_8961/atca_basic_write.o
 .__pa__280     0x00000000       0x10 dist/GOOGLE_IOT/production/__pa_temp_8961/atca_basic_write.o
 .text          0x00000000        0x0 dist/GOOGLE_IOT/production/__pa_temp_8961/atca_helpers.o
 .data          0x00000000        0x0 dist/GOOGLE_IOT/production/__pa_temp_8961/atca_helpers.o
 .bss           0x00000000        0x0 dist/GOOGLE_IOT/production/__pa_temp_8961/atca_helpers.o
 .text.atcab_base64decode_block
                0x00000000       0xde dist/GOOGLE_IOT/production/__pa_temp_8961/atca_helpers.o
 .text.hex_digit_to_num
                0x00000000       0x26 dist/GOOGLE_IOT/production/__pa_temp_8961/atca_helpers.o
 .text.atcab_reversal
                0x00000000       0x3c dist/GOOGLE_IOT/production/__pa_temp_8961/atca_helpers.o
 .text.atcab_bin2hex_
                0x00000000      0x182 dist/GOOGLE_IOT/production/__pa_temp_8961/atca_helpers.o
 .text.atcab_bin2hex
                0x00000000       0x1c dist/GOOGLE_IOT/production/__pa_temp_8961/atca_helpers.o
 .text.isDigit  0x00000000        0xe dist/GOOGLE_IOT/production/__pa_temp_8961/atca_helpers.o
 .text.isWhiteSpace
                0x00000000       0x1e dist/GOOGLE_IOT/production/__pa_temp_8961/atca_helpers.o
 .text.isAlpha  0x00000000       0x10 dist/GOOGLE_IOT/production/__pa_temp_8961/atca_helpers.o
 .text.isHexAlpha
                0x00000000       0x10 dist/GOOGLE_IOT/production/__pa_temp_8961/atca_helpers.o
 .text.isHexDigit
                0x00000000       0x14 dist/GOOGLE_IOT/production/__pa_temp_8961/atca_helpers.o
 .text.atcab_hex2bin_
                0x00000000       0xe2 dist/GOOGLE_IOT/production/__pa_temp_8961/atca_helpers.o
 .text.atcab_hex2bin
                0x00000000        0xc dist/GOOGLE_IOT/production/__pa_temp_8961/atca_helpers.o
 .text.isHex    0x00000000       0x1e dist/GOOGLE_IOT/production/__pa_temp_8961/atca_helpers.o
 .text.packHex  0x00000000       0x84 dist/GOOGLE_IOT/production/__pa_temp_8961/atca_helpers.o
 .text.atcab_printbin
                0x00000000       0xbc dist/GOOGLE_IOT/production/__pa_temp_8961/atca_helpers.o
 .text.atcab_printbin_label
                0x00000000       0x36 dist/GOOGLE_IOT/production/__pa_temp_8961/atca_helpers.o
 .text.atcab_printbin_sp
                0x00000000        0x6 dist/GOOGLE_IOT/production/__pa_temp_8961/atca_helpers.o
 .text.isBase64Digit
                0x00000000       0x3e dist/GOOGLE_IOT/production/__pa_temp_8961/atca_helpers.o
 .text.isBase64
                0x00000000       0x1e dist/GOOGLE_IOT/production/__pa_temp_8961/atca_helpers.o
 .text.base64Index
                0x00000000       0x46 dist/GOOGLE_IOT/production/__pa_temp_8961/atca_helpers.o
 .text.atcab_base64decode_
                0x00000000      0x17c dist/GOOGLE_IOT/production/__pa_temp_8961/atca_helpers.o
 .text.atcab_base64decode
                0x00000000       0x12 dist/GOOGLE_IOT/production/__pa_temp_8961/atca_helpers.o
 .data.atcab_b64rules_mime
                0x00000000        0x4 dist/GOOGLE_IOT/production/__pa_temp_8961/atca_helpers.o
 .__pa__16      0x00000000       0x14 dist/GOOGLE_IOT/production/__pa_temp_8961/atca_helpers.o
 .text          0x00000000        0x0 dist/GOOGLE_IOT/production/__pa_temp_8961/sha1_routines.o
 .data          0x00000000        0x0 dist/GOOGLE_IOT/production/__pa_temp_8961/sha1_routines.o
 .bss           0x00000000        0x0 dist/GOOGLE_IOT/production/__pa_temp_8961/sha1_routines.o
 .text.CL_hashInit
                0x00000000       0x1a dist/GOOGLE_IOT/production/__pa_temp_8961/sha1_routines.o
 .text.shaEngine
                0x00000000      0x2f4 dist/GOOGLE_IOT/production/__pa_temp_8961/sha1_routines.o
 .text.CL_hashUpdate
                0x00000000      0x104 dist/GOOGLE_IOT/production/__pa_temp_8961/sha1_routines.o
 .text.CL_hashFinal
                0x00000000      0x12c dist/GOOGLE_IOT/production/__pa_temp_8961/sha1_routines.o
 .text.CL_hash  0x00000000       0x50 dist/GOOGLE_IOT/production/__pa_temp_8961/sha1_routines.o
 .rodata.hashContext_h_init.2122
                0x00000000       0x14 dist/GOOGLE_IOT/production/__pa_temp_8961/sha1_routines.o
 .__pa__1       0x00000000        0xa dist/GOOGLE_IOT/production/__pa_temp_8961/sha1_routines.o
 .__pa__5       0x00000000        0xa dist/GOOGLE_IOT/production/__pa_temp_8961/sha1_routines.o
 .__pa__49      0x00000000        0xc dist/GOOGLE_IOT/production/__pa_temp_8961/sha1_routines.o
 .__pa__128     0x00000000        0xa dist/GOOGLE_IOT/production/__pa_temp_8961/sha1_routines.o
 .__pa__161     0x00000000        0xa dist/GOOGLE_IOT/production/__pa_temp_8961/sha1_routines.o
 .__pa__213     0x00000000       0x16 dist/GOOGLE_IOT/production/__pa_temp_8961/sha1_routines.o
 .__pa__216     0x00000000        0xc dist/GOOGLE_IOT/production/__pa_temp_8961/sha1_routines.o
 .__pa__217     0x00000000        0xa dist/GOOGLE_IOT/production/__pa_temp_8961/sha1_routines.o
 .__pa__221     0x00000000       0x16 dist/GOOGLE_IOT/production/__pa_temp_8961/sha1_routines.o
 .__pa__222     0x00000000       0x12 dist/GOOGLE_IOT/production/__pa_temp_8961/sha1_routines.o
 .text          0x00000000        0x0 dist/GOOGLE_IOT/production/__pa_temp_8961/sha2_routines.o
 .data          0x00000000        0x0 dist/GOOGLE_IOT/production/__pa_temp_8961/sha2_routines.o
 .bss           0x00000000        0x0 dist/GOOGLE_IOT/production/__pa_temp_8961/sha2_routines.o
 .text.sw_sha256
                0x00000000       0x56 dist/GOOGLE_IOT/production/__pa_temp_8961/sha2_routines.o
 .text          0x00000000        0x0 build/GOOGLE_IOT/production/mcc_generated_files/CryptoAuthenticationLibrary/crypto/atca_crypto_sw_ecdsa.o
 .data          0x00000000        0x0 build/GOOGLE_IOT/production/mcc_generated_files/CryptoAuthenticationLibrary/crypto/atca_crypto_sw_ecdsa.o
 .bss           0x00000000        0x0 build/GOOGLE_IOT/production/mcc_generated_files/CryptoAuthenticationLibrary/crypto/atca_crypto_sw_ecdsa.o
 .text.atcac_sw_ecdsa_verify_p256
                0x00000000        0x6 build/GOOGLE_IOT/production/mcc_generated_files/CryptoAuthenticationLibrary/crypto/atca_crypto_sw_ecdsa.o
 .debug_info    0x00000000      0x5df build/GOOGLE_IOT/production/mcc_generated_files/CryptoAuthenticationLibrary/crypto/atca_crypto_sw_ecdsa.o
 .debug_abbrev  0x00000000       0x90 build/GOOGLE_IOT/production/mcc_generated_files/CryptoAuthenticationLibrary/crypto/atca_crypto_sw_ecdsa.o
 .debug_loc     0x00000000       0x26 build/GOOGLE_IOT/production/mcc_generated_files/CryptoAuthenticationLibrary/crypto/atca_crypto_sw_ecdsa.o
 .debug_aranges
                0x00000000       0x20 build/GOOGLE_IOT/production/mcc_generated_files/CryptoAuthenticationLibrary/crypto/atca_crypto_sw_ecdsa.o
 .debug_ranges  0x00000000       0x10 build/GOOGLE_IOT/production/mcc_generated_files/CryptoAuthenticationLibrary/crypto/atca_crypto_sw_ecdsa.o
 .debug_line    0x00000000       0xf7 build/GOOGLE_IOT/production/mcc_generated_files/CryptoAuthenticationLibrary/crypto/atca_crypto_sw_ecdsa.o
 .debug_str     0x00000000        0x0 build/GOOGLE_IOT/production/mcc_generated_files/CryptoAuthenticationLibrary/crypto/atca_crypto_sw_ecdsa.o
 .comment       0x00000000       0x30 build/GOOGLE_IOT/production/mcc_generated_files/CryptoAuthenticationLibrary/crypto/atca_crypto_sw_ecdsa.o
 .debug_frame   0x00000000       0x24 build/GOOGLE_IOT/production/mcc_generated_files/CryptoAuthenticationLibrary/crypto/atca_crypto_sw_ecdsa.o
 .text          0x00000000        0x0 build/GOOGLE_IOT/production/mcc_generated_files/CryptoAuthenticationLibrary/crypto/atca_crypto_sw_rand.o
 .data          0x00000000        0x0 build/GOOGLE_IOT/production/mcc_generated_files/CryptoAuthenticationLibrary/crypto/atca_crypto_sw_rand.o
 .bss           0x00000000        0x0 build/GOOGLE_IOT/production/mcc_generated_files/CryptoAuthenticationLibrary/crypto/atca_crypto_sw_rand.o
 .text.atcac_sw_random
                0x00000000        0x6 build/GOOGLE_IOT/production/mcc_generated_files/CryptoAuthenticationLibrary/crypto/atca_crypto_sw_rand.o
 .debug_info    0x00000000      0x5c4 build/GOOGLE_IOT/production/mcc_generated_files/CryptoAuthenticationLibrary/crypto/atca_crypto_sw_rand.o
 .debug_abbrev  0x00000000       0x89 build/GOOGLE_IOT/production/mcc_generated_files/CryptoAuthenticationLibrary/crypto/atca_crypto_sw_rand.o
 .debug_loc     0x00000000       0x26 build/GOOGLE_IOT/production/mcc_generated_files/CryptoAuthenticationLibrary/crypto/atca_crypto_sw_rand.o
 .debug_aranges
                0x00000000       0x20 build/GOOGLE_IOT/production/mcc_generated_files/CryptoAuthenticationLibrary/crypto/atca_crypto_sw_rand.o
 .debug_ranges  0x00000000       0x10 build/GOOGLE_IOT/production/mcc_generated_files/CryptoAuthenticationLibrary/crypto/atca_crypto_sw_rand.o
 .debug_line    0x00000000      0x139 build/GOOGLE_IOT/production/mcc_generated_files/CryptoAuthenticationLibrary/crypto/atca_crypto_sw_rand.o
 .debug_str     0x00000000        0x0 build/GOOGLE_IOT/production/mcc_generated_files/CryptoAuthenticationLibrary/crypto/atca_crypto_sw_rand.o
 .comment       0x00000000       0x30 build/GOOGLE_IOT/production/mcc_generated_files/CryptoAuthenticationLibrary/crypto/atca_crypto_sw_rand.o
 .debug_frame   0x00000000       0x24 build/GOOGLE_IOT/production/mcc_generated_files/CryptoAuthenticationLibrary/crypto/atca_crypto_sw_rand.o
 .text          0x00000000        0x0 dist/GOOGLE_IOT/production/__pa_temp_8961/atca_crypto_sw_sha1.o
 .data          0x00000000        0x0 dist/GOOGLE_IOT/production/__pa_temp_8961/atca_crypto_sw_sha1.o
 .bss           0x00000000        0x0 dist/GOOGLE_IOT/production/__pa_temp_8961/atca_crypto_sw_sha1.o
 .text.atcac_sw_sha1_init
                0x00000000        0xa dist/GOOGLE_IOT/production/__pa_temp_8961/atca_crypto_sw_sha1.o
 .text.atcac_sw_sha1_update
                0x00000000        0xa dist/GOOGLE_IOT/production/__pa_temp_8961/atca_crypto_sw_sha1.o
 .text.atcac_sw_sha1_finish
                0x00000000        0xa dist/GOOGLE_IOT/production/__pa_temp_8961/atca_crypto_sw_sha1.o
 .text.atcac_sw_sha1
                0x00000000       0x54 dist/GOOGLE_IOT/production/__pa_temp_8961/atca_crypto_sw_sha1.o
 .debug_info    0x00000000      0x94a dist/GOOGLE_IOT/production/__pa_temp_8961/atca_crypto_sw_sha1.o
 .debug_abbrev  0x00000000      0x174 dist/GOOGLE_IOT/production/__pa_temp_8961/atca_crypto_sw_sha1.o
 .debug_loc     0x00000000      0x1e4 dist/GOOGLE_IOT/production/__pa_temp_8961/atca_crypto_sw_sha1.o
 .debug_aranges
                0x00000000       0x38 dist/GOOGLE_IOT/production/__pa_temp_8961/atca_crypto_sw_sha1.o
 .debug_ranges  0x00000000       0x28 dist/GOOGLE_IOT/production/__pa_temp_8961/atca_crypto_sw_sha1.o
 .debug_line    0x00000000      0x20b dist/GOOGLE_IOT/production/__pa_temp_8961/atca_crypto_sw_sha1.o
 .debug_str     0x00000000       0x31 dist/GOOGLE_IOT/production/__pa_temp_8961/atca_crypto_sw_sha1.o
 .comment       0x00000000       0x30 dist/GOOGLE_IOT/production/__pa_temp_8961/atca_crypto_sw_sha1.o
 .debug_frame   0x00000000       0x84 dist/GOOGLE_IOT/production/__pa_temp_8961/atca_crypto_sw_sha1.o
 .text          0x00000000        0x0 dist/GOOGLE_IOT/production/__pa_temp_8961/atca_crypto_sw_sha2.o
 .data          0x00000000        0x0 dist/GOOGLE_IOT/production/__pa_temp_8961/atca_crypto_sw_sha2.o
 .bss           0x00000000        0x0 dist/GOOGLE_IOT/production/__pa_temp_8961/atca_crypto_sw_sha2.o
 .text.atcac_sw_sha2_256_init
                0x00000000        0xa dist/GOOGLE_IOT/production/__pa_temp_8961/atca_crypto_sw_sha2.o
 .text.atcac_sw_sha2_256_update
                0x00000000       0x10 dist/GOOGLE_IOT/production/__pa_temp_8961/atca_crypto_sw_sha2.o
 .text.atcac_sw_sha2_256_finish
                0x00000000        0xa dist/GOOGLE_IOT/production/__pa_temp_8961/atca_crypto_sw_sha2.o
 .text          0x00000000        0x0 dist/GOOGLE_IOT/production/__pa_temp_8961/atca_hal.o
 .data          0x00000000        0x0 dist/GOOGLE_IOT/production/__pa_temp_8961/atca_hal.o
 .bss           0x00000000        0x0 dist/GOOGLE_IOT/production/__pa_temp_8961/atca_hal.o
 .text          0x00000000        0x0 dist/GOOGLE_IOT/production/__pa_temp_8961/atca_i2c_hal.o
 .data          0x00000000        0x0 dist/GOOGLE_IOT/production/__pa_temp_8961/atca_i2c_hal.o
 .bss           0x00000000        0x0 dist/GOOGLE_IOT/production/__pa_temp_8961/atca_i2c_hal.o
 .text.hal_i2c_discover_buses
                0x00000000        0x4 dist/GOOGLE_IOT/production/__pa_temp_8961/atca_i2c_hal.o
 .text.hal_i2c_discover_devices
                0x00000000        0x4 dist/GOOGLE_IOT/production/__pa_temp_8961/atca_i2c_hal.o
 .text          0x00000000        0x0 dist/GOOGLE_IOT/production/__pa_temp_8961/hal_i2c_timer.o
 .data          0x00000000        0x0 dist/GOOGLE_IOT/production/__pa_temp_8961/hal_i2c_timer.o
 .bss           0x00000000        0x0 dist/GOOGLE_IOT/production/__pa_temp_8961/hal_i2c_timer.o
 .text          0x00000000        0x0 dist/GOOGLE_IOT/production/__pa_temp_8961/atca_host.o
 .data          0x00000000        0x0 dist/GOOGLE_IOT/production/__pa_temp_8961/atca_host.o
 .bss           0x00000000        0x0 dist/GOOGLE_IOT/production/__pa_temp_8961/atca_host.o
 .text.atcah_include_data
                0x00000000       0xd6 dist/GOOGLE_IOT/production/__pa_temp_8961/atca_host.o
 .text.atcah_nonce
                0x00000000       0xe6 dist/GOOGLE_IOT/production/__pa_temp_8961/atca_host.o
 .text.atcah_io_decrypt
                0x00000000      0x120 dist/GOOGLE_IOT/production/__pa_temp_8961/atca_host.o
 .text.atcah_verify_mac
                0x00000000      0x224 dist/GOOGLE_IOT/production/__pa_temp_8961/atca_host.o
 .text.atcah_secureboot_enc
                0x00000000       0xce dist/GOOGLE_IOT/production/__pa_temp_8961/atca_host.o
 .text.atcah_secureboot_mac
                0x00000000       0xe0 dist/GOOGLE_IOT/production/__pa_temp_8961/atca_host.o
 .text.atcah_mac
                0x00000000      0x182 dist/GOOGLE_IOT/production/__pa_temp_8961/atca_host.o
 .text.atcah_check_mac
                0x00000000      0x248 dist/GOOGLE_IOT/production/__pa_temp_8961/atca_host.o
 .text.atcah_hmac
                0x00000000      0x1fc dist/GOOGLE_IOT/production/__pa_temp_8961/atca_host.o
 .text.atcah_gen_dig
                0x00000000      0x14e dist/GOOGLE_IOT/production/__pa_temp_8961/atca_host.o
 .text.atcah_gen_mac
                0x00000000       0xda dist/GOOGLE_IOT/production/__pa_temp_8961/atca_host.o
 .text.atcah_write_auth_mac
                0x00000000       0xbe dist/GOOGLE_IOT/production/__pa_temp_8961/atca_host.o
 .text.atcah_privwrite_auth_mac
                0x00000000      0x116 dist/GOOGLE_IOT/production/__pa_temp_8961/atca_host.o
 .text.atcah_derive_key
                0x00000000      0x118 dist/GOOGLE_IOT/production/__pa_temp_8961/atca_host.o
 .text.atcah_derive_key_mac
                0x00000000       0x6e dist/GOOGLE_IOT/production/__pa_temp_8961/atca_host.o
 .text.atcah_decrypt
                0x00000000       0x74 dist/GOOGLE_IOT/production/__pa_temp_8961/atca_host.o
 .text.atcah_sha256
                0x00000000        0xc dist/GOOGLE_IOT/production/__pa_temp_8961/atca_host.o
 .text.atcah_gen_key_msg
                0x00000000      0x134 dist/GOOGLE_IOT/production/__pa_temp_8961/atca_host.o
 .text.atcah_config_to_sign_internal
                0x00000000       0xcc dist/GOOGLE_IOT/production/__pa_temp_8961/atca_host.o
 .text.atcah_sign_internal_msg
                0x00000000      0x186 dist/GOOGLE_IOT/production/__pa_temp_8961/atca_host.o
 .text.atcah_encode_counter_match
                0x00000000       0x4a dist/GOOGLE_IOT/production/__pa_temp_8961/atca_host.o
 .debug_info    0x00000000     0x203d dist/GOOGLE_IOT/production/__pa_temp_8961/atca_host.o
 .debug_abbrev  0x00000000      0x24a dist/GOOGLE_IOT/production/__pa_temp_8961/atca_host.o
 .debug_loc     0x00000000      0xff6 dist/GOOGLE_IOT/production/__pa_temp_8961/atca_host.o
 .debug_aranges
                0x00000000       0xc0 dist/GOOGLE_IOT/production/__pa_temp_8961/atca_host.o
 .debug_ranges  0x00000000       0xb0 dist/GOOGLE_IOT/production/__pa_temp_8961/atca_host.o
 .debug_line    0x00000000     0x1169 dist/GOOGLE_IOT/production/__pa_temp_8961/atca_host.o
 .debug_str     0x00000000      0x11a dist/GOOGLE_IOT/production/__pa_temp_8961/atca_host.o
 .comment       0x00000000       0x30 dist/GOOGLE_IOT/production/__pa_temp_8961/atca_host.o
 .debug_frame   0x00000000      0x3f8 dist/GOOGLE_IOT/production/__pa_temp_8961/atca_host.o
 .__pa__2       0x00000000       0x12 dist/GOOGLE_IOT/production/__pa_temp_8961/atca_host.o
 .__pa__8       0x00000000       0x1a dist/GOOGLE_IOT/production/__pa_temp_8961/atca_host.o
 .__pa__9       0x00000000       0x22 dist/GOOGLE_IOT/production/__pa_temp_8961/atca_host.o
 .__pa__26      0x00000000        0x8 dist/GOOGLE_IOT/production/__pa_temp_8961/atca_host.o
 .__pa__46      0x00000000        0xa dist/GOOGLE_IOT/production/__pa_temp_8961/atca_host.o
 .__pa__70      0x00000000        0xe dist/GOOGLE_IOT/production/__pa_temp_8961/atca_host.o
 .__pa__84      0x00000000       0x26 dist/GOOGLE_IOT/production/__pa_temp_8961/atca_host.o
 .__pa__125     0x00000000        0xc dist/GOOGLE_IOT/production/__pa_temp_8961/atca_host.o
 .__pa__129     0x00000000       0x16 dist/GOOGLE_IOT/production/__pa_temp_8961/atca_host.o
 .__pa__131     0x00000000       0x10 dist/GOOGLE_IOT/production/__pa_temp_8961/atca_host.o
 .__pa__136     0x00000000        0xa dist/GOOGLE_IOT/production/__pa_temp_8961/atca_host.o
 .__pa__138     0x00000000       0x16 dist/GOOGLE_IOT/production/__pa_temp_8961/atca_host.o
 .__pa__139     0x00000000        0xa dist/GOOGLE_IOT/production/__pa_temp_8961/atca_host.o
 .__pa__140     0x00000000        0xa dist/GOOGLE_IOT/production/__pa_temp_8961/atca_host.o
 .__pa__141     0x00000000        0xa dist/GOOGLE_IOT/production/__pa_temp_8961/atca_host.o
 .__pa__145     0x00000000        0xe dist/GOOGLE_IOT/production/__pa_temp_8961/atca_host.o
 .__pa__146     0x00000000        0xa dist/GOOGLE_IOT/production/__pa_temp_8961/atca_host.o
 .__pa__150     0x00000000        0x8 dist/GOOGLE_IOT/production/__pa_temp_8961/atca_host.o
 .__pa__151     0x00000000        0x8 dist/GOOGLE_IOT/production/__pa_temp_8961/atca_host.o
 .__pa__185     0x00000000        0x8 dist/GOOGLE_IOT/production/__pa_temp_8961/atca_host.o
 .__pa__188     0x00000000        0xa dist/GOOGLE_IOT/production/__pa_temp_8961/atca_host.o
 .__pa__199     0x00000000       0x12 dist/GOOGLE_IOT/production/__pa_temp_8961/atca_host.o
 .__pa__200     0x00000000        0xa dist/GOOGLE_IOT/production/__pa_temp_8961/atca_host.o
 .__pa__234     0x00000000       0x30 dist/GOOGLE_IOT/production/__pa_temp_8961/atca_host.o
 .__pa__238     0x00000000        0xa dist/GOOGLE_IOT/production/__pa_temp_8961/atca_host.o
 .__pa__239     0x00000000        0xa dist/GOOGLE_IOT/production/__pa_temp_8961/atca_host.o
 .__pa__282     0x00000000        0xa dist/GOOGLE_IOT/production/__pa_temp_8961/atca_host.o
 .__pa__283     0x00000000        0xe dist/GOOGLE_IOT/production/__pa_temp_8961/atca_host.o
 .__pa__285     0x00000000        0xa dist/GOOGLE_IOT/production/__pa_temp_8961/atca_host.o
 .text          0x00000000        0x0 dist/GOOGLE_IOT/production/__pa_temp_8961/atca_jwt.o
 .data          0x00000000        0x0 dist/GOOGLE_IOT/production/__pa_temp_8961/atca_jwt.o
 .bss           0x00000000        0x0 dist/GOOGLE_IOT/production/__pa_temp_8961/atca_jwt.o
 .text.atca_jwt_verify
                0x00000000       0xec dist/GOOGLE_IOT/production/__pa_temp_8961/atca_jwt.o
 .__pa__56      0x00000000        0xa dist/GOOGLE_IOT/production/__pa_temp_8961/atca_jwt.o
 .__pa__160     0x00000000       0x10 dist/GOOGLE_IOT/production/__pa_temp_8961/atca_jwt.o
 .text          0x00000000        0x0 build/GOOGLE_IOT/production/mcc_generated_files/CryptoAuthenticationLibrary/atca_cfgs.o
 .data          0x00000000        0x0 build/GOOGLE_IOT/production/mcc_generated_files/CryptoAuthenticationLibrary/atca_cfgs.o
 .bss           0x00000000        0x0 build/GOOGLE_IOT/production/mcc_generated_files/CryptoAuthenticationLibrary/atca_cfgs.o
 .data.cfg_atsha204a_kithid_default
                0x00000000       0x26 build/GOOGLE_IOT/production/mcc_generated_files/CryptoAuthenticationLibrary/atca_cfgs.o
 .data.cfg_atsha204a_kitcdc_default
                0x00000000       0x26 build/GOOGLE_IOT/production/mcc_generated_files/CryptoAuthenticationLibrary/atca_cfgs.o
 .data.cfg_atsha204a_swi_default
                0x00000000       0x26 build/GOOGLE_IOT/production/mcc_generated_files/CryptoAuthenticationLibrary/atca_cfgs.o
 .data.cfg_atsha204a_i2c_default
                0x00000000       0x26 build/GOOGLE_IOT/production/mcc_generated_files/CryptoAuthenticationLibrary/atca_cfgs.o
 .data.cfg_ateccx08a_kithid_default
                0x00000000       0x26 build/GOOGLE_IOT/production/mcc_generated_files/CryptoAuthenticationLibrary/atca_cfgs.o
 .data.cfg_ateccx08a_kitcdc_default
                0x00000000       0x26 build/GOOGLE_IOT/production/mcc_generated_files/CryptoAuthenticationLibrary/atca_cfgs.o
 .data.cfg_ateccx08a_swi_default
                0x00000000       0x26 build/GOOGLE_IOT/production/mcc_generated_files/CryptoAuthenticationLibrary/atca_cfgs.o
 .data.cfg_ateccx08a_i2c_default
                0x00000000       0x26 build/GOOGLE_IOT/production/mcc_generated_files/CryptoAuthenticationLibrary/atca_cfgs.o
 .debug_info    0x00000000      0xae6 build/GOOGLE_IOT/production/mcc_generated_files/CryptoAuthenticationLibrary/atca_cfgs.o
 .debug_abbrev  0x00000000       0xd3 build/GOOGLE_IOT/production/mcc_generated_files/CryptoAuthenticationLibrary/atca_cfgs.o
 .debug_aranges
                0x00000000       0x18 build/GOOGLE_IOT/production/mcc_generated_files/CryptoAuthenticationLibrary/atca_cfgs.o
 .debug_line    0x00000000       0xc2 build/GOOGLE_IOT/production/mcc_generated_files/CryptoAuthenticationLibrary/atca_cfgs.o
 .debug_str     0x00000000        0x0 build/GOOGLE_IOT/production/mcc_generated_files/CryptoAuthenticationLibrary/atca_cfgs.o
 .comment       0x00000000       0x30 build/GOOGLE_IOT/production/mcc_generated_files/CryptoAuthenticationLibrary/atca_cfgs.o
 .text          0x00000000        0x0 dist/GOOGLE_IOT/production/__pa_temp_8961/atca_command.o
 .data          0x00000000        0x0 dist/GOOGLE_IOT/production/__pa_temp_8961/atca_command.o
 .bss           0x00000000        0x0 dist/GOOGLE_IOT/production/__pa_temp_8961/atca_command.o
 .text.atCheckMAC
                0x00000000       0x14 dist/GOOGLE_IOT/production/__pa_temp_8961/atca_command.o
 .text.atCounter
                0x00000000       0x10 dist/GOOGLE_IOT/production/__pa_temp_8961/atca_command.o
 .text.atDeriveKey
                0x00000000       0x1c dist/GOOGLE_IOT/production/__pa_temp_8961/atca_command.o
 .text.atECDH   0x00000000       0x14 dist/GOOGLE_IOT/production/__pa_temp_8961/atca_command.o
 .text.atGenDig
                0x00000000       0x26 dist/GOOGLE_IOT/production/__pa_temp_8961/atca_command.o
 .text.atHMAC   0x00000000       0x10 dist/GOOGLE_IOT/production/__pa_temp_8961/atca_command.o
 .text.atInfo   0x00000000       0x10 dist/GOOGLE_IOT/production/__pa_temp_8961/atca_command.o
 .text.atMAC    0x00000000       0x1e dist/GOOGLE_IOT/production/__pa_temp_8961/atca_command.o
 .text.atPause  0x00000000       0x10 dist/GOOGLE_IOT/production/__pa_temp_8961/atca_command.o
 .text.atPrivWrite
                0x00000000       0x14 dist/GOOGLE_IOT/production/__pa_temp_8961/atca_command.o
 .text.atSecureBoot
                0x00000000       0x30 dist/GOOGLE_IOT/production/__pa_temp_8961/atca_command.o
 .text.atSHA    0x00000000       0x3e dist/GOOGLE_IOT/production/__pa_temp_8961/atca_command.o
 .text.atUpdateExtra
                0x00000000       0x10 dist/GOOGLE_IOT/production/__pa_temp_8961/atca_command.o
 .text.atVerify
                0x00000000       0x2c dist/GOOGLE_IOT/production/__pa_temp_8961/atca_command.o
 .text.atWrite  0x00000000       0x2c dist/GOOGLE_IOT/production/__pa_temp_8961/atca_command.o
 .text.atAES    0x00000000       0x24 dist/GOOGLE_IOT/production/__pa_temp_8961/atca_command.o
 .text.atSelfTest
                0x00000000       0x10 dist/GOOGLE_IOT/production/__pa_temp_8961/atca_command.o
 .text.atKDF    0x00000000       0x22 dist/GOOGLE_IOT/production/__pa_temp_8961/atca_command.o
 .text.atIsSHAFamily
                0x00000000        0xc dist/GOOGLE_IOT/production/__pa_temp_8961/atca_command.o
 .text.atIsECCFamily
                0x00000000        0xe dist/GOOGLE_IOT/production/__pa_temp_8961/atca_command.o
 .text          0x00000000        0x0 build/GOOGLE_IOT/production/mcc_generated_files/CryptoAuthenticationLibrary/atca_device.o
 .data          0x00000000        0x0 build/GOOGLE_IOT/production/mcc_generated_files/CryptoAuthenticationLibrary/atca_device.o
 .bss           0x00000000        0x0 build/GOOGLE_IOT/production/mcc_generated_files/CryptoAuthenticationLibrary/atca_device.o
 .text.atGetCommands
                0x00000000        0x8 build/GOOGLE_IOT/production/mcc_generated_files/CryptoAuthenticationLibrary/atca_device.o
 .text.atGetIFace
                0x00000000        0x8 build/GOOGLE_IOT/production/mcc_generated_files/CryptoAuthenticationLibrary/atca_device.o
 .text          0x00000000        0x0 dist/GOOGLE_IOT/production/__pa_temp_8961/atca_execution.o
 .data          0x00000000        0x0 dist/GOOGLE_IOT/production/__pa_temp_8961/atca_execution.o
 .bss           0x00000000        0x0 dist/GOOGLE_IOT/production/__pa_temp_8961/atca_execution.o
 .text          0x00000000        0x0 dist/GOOGLE_IOT/production/__pa_temp_8961/atca_iface.o
 .data          0x00000000        0x0 dist/GOOGLE_IOT/production/__pa_temp_8961/atca_iface.o
 .bss           0x00000000        0x0 dist/GOOGLE_IOT/production/__pa_temp_8961/atca_iface.o
 .text.atsleep  0x00000000       0x1e dist/GOOGLE_IOT/production/__pa_temp_8961/atca_iface.o
 .text.atgetifacehaldat
                0x00000000        0x8 dist/GOOGLE_IOT/production/__pa_temp_8961/atca_iface.o
 .text          0x00000000        0x0 build/GOOGLE_IOT/production/mcc_generated_files/drivers/spi_master.o
 .data          0x00000000        0x0 build/GOOGLE_IOT/production/mcc_generated_files/drivers/spi_master.o
 .bss           0x00000000        0x0 build/GOOGLE_IOT/production/mcc_generated_files/drivers/spi_master.o
 .text.spi_master_open
                0x00000000        0xc build/GOOGLE_IOT/production/mcc_generated_files/drivers/spi_master.o
 .text          0x00000000        0x0 dist/GOOGLE_IOT/production/__pa_temp_8961/timeout.o
 .data          0x00000000        0x0 dist/GOOGLE_IOT/production/__pa_temp_8961/timeout.o
 .bss           0x00000000        0x0 dist/GOOGLE_IOT/production/__pa_temp_8961/timeout.o
 .text.timeout_hasPendingTimeouts
                0x00000000       0x12 dist/GOOGLE_IOT/production/__pa_temp_8961/timeout.o
 .text.timeout_hasPendingCallbacks
                0x00000000       0x12 dist/GOOGLE_IOT/production/__pa_temp_8961/timeout.o
 .text.timeout_getTimeRemaining
                0x00000000       0x34 dist/GOOGLE_IOT/production/__pa_temp_8961/timeout.o
 .rodata        0x00000000        0xd dist/GOOGLE_IOT/production/__pa_temp_8961/timeout.o
 .text.printList
                0x00000000       0x54 dist/GOOGLE_IOT/production/__pa_temp_8961/timeout.o
 .text.timeout_flushAll
                0x00000000       0x32 dist/GOOGLE_IOT/production/__pa_temp_8961/timeout.o
 .text.timeout_startTimer
                0x00000000        0xc dist/GOOGLE_IOT/production/__pa_temp_8961/timeout.o
 .text.timeout_stopTimer
                0x00000000       0x4e dist/GOOGLE_IOT/production/__pa_temp_8961/timeout.o
 .text          0x00000000        0x0 dist/GOOGLE_IOT/production/__pa_temp_8961/i2c_simple_master.o
 .data          0x00000000        0x0 dist/GOOGLE_IOT/production/__pa_temp_8961/i2c_simple_master.o
 .bss           0x00000000        0x0 dist/GOOGLE_IOT/production/__pa_temp_8961/i2c_simple_master.o
 .text.wr1RegCompleteHandler
                0x00000000       0x14 dist/GOOGLE_IOT/production/__pa_temp_8961/i2c_simple_master.o
 .text.rd1RegCompleteHandler
                0x00000000       0x14 dist/GOOGLE_IOT/production/__pa_temp_8961/i2c_simple_master.o
 .text.wr2RegCompleteHandler
                0x00000000       0x14 dist/GOOGLE_IOT/production/__pa_temp_8961/i2c_simple_master.o
 .text.rdBlkRegCompleteHandler
                0x00000000       0x14 dist/GOOGLE_IOT/production/__pa_temp_8961/i2c_simple_master.o
 .text.i2c_write1ByteRegister
                0x00000000       0x56 dist/GOOGLE_IOT/production/__pa_temp_8961/i2c_simple_master.o
 .text.i2c_read1ByteRegister
                0x00000000       0x72 dist/GOOGLE_IOT/production/__pa_temp_8961/i2c_simple_master.o
 .text.i2c_write2ByteRegister
                0x00000000       0x5c dist/GOOGLE_IOT/production/__pa_temp_8961/i2c_simple_master.o
 .text.i2c_readDataBlock
                0x00000000       0x64 dist/GOOGLE_IOT/production/__pa_temp_8961/i2c_simple_master.o
 .text          0x00000000        0x0 dist/GOOGLE_IOT/production/__pa_temp_8961/mqtt_comm_layer.o
 .data          0x00000000        0x0 dist/GOOGLE_IOT/production/__pa_temp_8961/mqtt_comm_layer.o
 .bss           0x00000000        0x0 dist/GOOGLE_IOT/production/__pa_temp_8961/mqtt_comm_layer.o
 .text.MQTT_LastSentSize
                0x00000000        0xa dist/GOOGLE_IOT/production/__pa_temp_8961/mqtt_comm_layer.o
 .text          0x00000000        0x0 dist/GOOGLE_IOT/production/__pa_temp_8961/mqtt_core.o
 .data          0x00000000        0x0 dist/GOOGLE_IOT/production/__pa_temp_8961/mqtt_core.o
 .bss           0x00000000        0x0 dist/GOOGLE_IOT/production/__pa_temp_8961/mqtt_core.o
 .text.MQTT_CreateUnsubscribePacket
                0x00000000       0x7a dist/GOOGLE_IOT/production/__pa_temp_8961/mqtt_core.o
 .text.MQTT_GetLastReceivedLength
                0x00000000        0xa dist/GOOGLE_IOT/production/__pa_temp_8961/mqtt_core.o
 .text          0x00000000        0x0 dist/GOOGLE_IOT/production/__pa_temp_8961/mqtt_exchange_buffer.o
 .data          0x00000000        0x0 dist/GOOGLE_IOT/production/__pa_temp_8961/mqtt_exchange_buffer.o
 .bss           0x00000000        0x0 dist/GOOGLE_IOT/production/__pa_temp_8961/mqtt_exchange_buffer.o
 .text          0x00000000        0x0 build/GOOGLE_IOT/production/mcc_generated_files/mqtt/mqtt_packetTransfer_interface.o
 .data          0x00000000        0x0 build/GOOGLE_IOT/production/mcc_generated_files/mqtt/mqtt_packetTransfer_interface.o
 .bss           0x00000000        0x0 build/GOOGLE_IOT/production/mcc_generated_files/mqtt/mqtt_packetTransfer_interface.o
 .text          0x00000000        0x0 dist/GOOGLE_IOT/production/__pa_temp_8961/mqtt_winc_adapter.o
 .data          0x00000000        0x0 dist/GOOGLE_IOT/production/__pa_temp_8961/mqtt_winc_adapter.o
 .bss           0x00000000        0x0 dist/GOOGLE_IOT/production/__pa_temp_8961/mqtt_winc_adapter.o
 .text.BSD_GetErrNo
                0x00000000        0x6 dist/GOOGLE_IOT/production/__pa_temp_8961/mqtt_winc_adapter.o
 .text.BSD_GetRecvHandlerTable
                0x00000000        0xa dist/GOOGLE_IOT/production/__pa_temp_8961/mqtt_winc_adapter.o
 .text.BSD_ntohl
                0x00000000        0x6 dist/GOOGLE_IOT/production/__pa_temp_8961/mqtt_winc_adapter.o
 .text.BSD_htonl
                0x00000000        0x4 dist/GOOGLE_IOT/production/__pa_temp_8961/mqtt_winc_adapter.o
 .text.BSD_ntohs
                0x00000000        0x6 dist/GOOGLE_IOT/production/__pa_temp_8961/mqtt_winc_adapter.o
 .text.BSD_bind
                0x00000000       0x8c dist/GOOGLE_IOT/production/__pa_temp_8961/mqtt_winc_adapter.o
 .text.BSD_recvfrom
                0x00000000       0x76 dist/GOOGLE_IOT/production/__pa_temp_8961/mqtt_winc_adapter.o
 .text.BSD_listen
                0x00000000       0x3a dist/GOOGLE_IOT/production/__pa_temp_8961/mqtt_winc_adapter.o
 .text.BSD_accept
                0x00000000       0x6e dist/GOOGLE_IOT/production/__pa_temp_8961/mqtt_winc_adapter.o
 .text.BSD_getsockopt
                0x00000000        0xc dist/GOOGLE_IOT/production/__pa_temp_8961/mqtt_winc_adapter.o
 .text.BSD_setsockopt
                0x00000000       0x66 dist/GOOGLE_IOT/production/__pa_temp_8961/mqtt_winc_adapter.o
 .text.BSD_write
                0x00000000        0xc dist/GOOGLE_IOT/production/__pa_temp_8961/mqtt_winc_adapter.o
 .text.BSD_read
                0x00000000        0xc dist/GOOGLE_IOT/production/__pa_temp_8961/mqtt_winc_adapter.o
 .text.BSD_poll
                0x00000000        0xc dist/GOOGLE_IOT/production/__pa_temp_8961/mqtt_winc_adapter.o
 .text.BSD_sendto
                0x00000000       0xbc dist/GOOGLE_IOT/production/__pa_temp_8961/mqtt_winc_adapter.o
 .bss.winc_sockaddr.3477
                0x00000000       0x10 dist/GOOGLE_IOT/production/__pa_temp_8961/mqtt_winc_adapter.o
 .text          0x00000000        0x0 dist/GOOGLE_IOT/production/__pa_temp_8961/pin_manager.o
 .data          0x00000000        0x0 dist/GOOGLE_IOT/production/__pa_temp_8961/pin_manager.o
 .bss           0x00000000        0x0 dist/GOOGLE_IOT/production/__pa_temp_8961/pin_manager.o
 .text.PORTD_LED_GREEN_DefaultInterruptHandler
                0x00000000        0x2 dist/GOOGLE_IOT/production/__pa_temp_8961/pin_manager.o
 .text.PORTA_PA2_DefaultInterruptHandler
                0x00000000        0x2 dist/GOOGLE_IOT/production/__pa_temp_8961/pin_manager.o
 .text.PORTD_PD5_DefaultInterruptHandler
                0x00000000        0x2 dist/GOOGLE_IOT/production/__pa_temp_8961/pin_manager.o
 .text.PORTA_RST_DefaultInterruptHandler
                0x00000000        0x2 dist/GOOGLE_IOT/production/__pa_temp_8961/pin_manager.o
 .text.PORTA_PA4_DefaultInterruptHandler
                0x00000000        0x2 dist/GOOGLE_IOT/production/__pa_temp_8961/pin_manager.o
 .text.PORTA_PA3_DefaultInterruptHandler
                0x00000000        0x2 dist/GOOGLE_IOT/production/__pa_temp_8961/pin_manager.o
 .text.PORTA_PA6_DefaultInterruptHandler
                0x00000000        0x2 dist/GOOGLE_IOT/production/__pa_temp_8961/pin_manager.o
 .text.PORTA_PA5_DefaultInterruptHandler
                0x00000000        0x2 dist/GOOGLE_IOT/production/__pa_temp_8961/pin_manager.o
 .text.PORTA_nCS_DefaultInterruptHandler
                0x00000000        0x2 dist/GOOGLE_IOT/production/__pa_temp_8961/pin_manager.o
 .text.PORTD_LED_YELLOW_DefaultInterruptHandler
                0x00000000        0x2 dist/GOOGLE_IOT/production/__pa_temp_8961/pin_manager.o
 .text.PORTD_LED_RED_DefaultInterruptHandler
                0x00000000        0x2 dist/GOOGLE_IOT/production/__pa_temp_8961/pin_manager.o
 .text.PORTD_LED_BLUE_DefaultInterruptHandler
                0x00000000        0x2 dist/GOOGLE_IOT/production/__pa_temp_8961/pin_manager.o
 .text.PORTA_PA2_SetInterruptHandler
                0x00000000        0x2 dist/GOOGLE_IOT/production/__pa_temp_8961/pin_manager.o
 .text.PORTD_PD5_SetInterruptHandler
                0x00000000        0x2 dist/GOOGLE_IOT/production/__pa_temp_8961/pin_manager.o
 .text.PORTF_SW0_SetInterruptHandler
                0x00000000        0xa dist/GOOGLE_IOT/production/__pa_temp_8961/pin_manager.o
 .text.PORTA_RST_SetInterruptHandler
                0x00000000        0x2 dist/GOOGLE_IOT/production/__pa_temp_8961/pin_manager.o
 .text.PORTA_PA4_SetInterruptHandler
                0x00000000        0x2 dist/GOOGLE_IOT/production/__pa_temp_8961/pin_manager.o
 .text.PORTA_PA3_SetInterruptHandler
                0x00000000        0x2 dist/GOOGLE_IOT/production/__pa_temp_8961/pin_manager.o
 .text.PORTA_PA6_SetInterruptHandler
                0x00000000        0x2 dist/GOOGLE_IOT/production/__pa_temp_8961/pin_manager.o
 .text.PORTA_PA5_SetInterruptHandler
                0x00000000        0x2 dist/GOOGLE_IOT/production/__pa_temp_8961/pin_manager.o
 .text.PORTA_nCS_SetInterruptHandler
                0x00000000        0x2 dist/GOOGLE_IOT/production/__pa_temp_8961/pin_manager.o
 .text.PORTF_PF1_SetInterruptHandler
                0x00000000        0xa dist/GOOGLE_IOT/production/__pa_temp_8961/pin_manager.o
 .text.PORTF_PF0_SetInterruptHandler
                0x00000000        0xa dist/GOOGLE_IOT/production/__pa_temp_8961/pin_manager.o
 .text.PORTD_LED_YELLOW_SetInterruptHandler
                0x00000000        0x2 dist/GOOGLE_IOT/production/__pa_temp_8961/pin_manager.o
 .text.PORTF_CE_SetInterruptHandler
                0x00000000        0xa dist/GOOGLE_IOT/production/__pa_temp_8961/pin_manager.o
 .text.PORTD_LED_RED_SetInterruptHandler
                0x00000000        0x2 dist/GOOGLE_IOT/production/__pa_temp_8961/pin_manager.o
 .text.PORTF_SW1_SetInterruptHandler
                0x00000000        0xa dist/GOOGLE_IOT/production/__pa_temp_8961/pin_manager.o
 .text.PORTD_LED_BLUE_SetInterruptHandler
                0x00000000        0x2 dist/GOOGLE_IOT/production/__pa_temp_8961/pin_manager.o
 .text.PORTD_LED_GREEN_SetInterruptHandler
                0x00000000        0x2 dist/GOOGLE_IOT/production/__pa_temp_8961/pin_manager.o
 .text.PORTF_WAKE_SetInterruptHandler
                0x00000000        0xa dist/GOOGLE_IOT/production/__pa_temp_8961/pin_manager.o
 .text          0x00000000        0x0 build/GOOGLE_IOT/production/mcc_generated_files/src/cpuint.o
 .data          0x00000000        0x0 build/GOOGLE_IOT/production/mcc_generated_files/src/cpuint.o
 .bss           0x00000000        0x0 build/GOOGLE_IOT/production/mcc_generated_files/src/cpuint.o
 .text          0x00000000        0x0 build/GOOGLE_IOT/production/mcc_generated_files/src/spi0.o
 .data          0x00000000        0x0 build/GOOGLE_IOT/production/mcc_generated_files/src/spi0.o
 .bss           0x00000000        0x0 build/GOOGLE_IOT/production/mcc_generated_files/src/spi0.o
 .text.SPI0_Enable
                0x00000000        0xc build/GOOGLE_IOT/production/mcc_generated_files/src/spi0.o
 .text.SPI0_Disable
                0x00000000        0xc build/GOOGLE_IOT/production/mcc_generated_files/src/spi0.o
 .text.SPI0_Selected
                0x00000000        0x4 build/GOOGLE_IOT/production/mcc_generated_files/src/spi0.o
 .text.SPI0_GetRxData
                0x00000000        0x6 build/GOOGLE_IOT/production/mcc_generated_files/src/spi0.o
 .text.SPI0_WriteTxData
                0x00000000        0x6 build/GOOGLE_IOT/production/mcc_generated_files/src/spi0.o
 .text.SPI0_WaitDataready
                0x00000000        0xa build/GOOGLE_IOT/production/mcc_generated_files/src/spi0.o
 .text          0x00000000        0x0 build/GOOGLE_IOT/production/mcc_generated_files/src/protected_io.o
 .data          0x00000000        0x0 build/GOOGLE_IOT/production/mcc_generated_files/src/protected_io.o
 .bss           0x00000000        0x0 build/GOOGLE_IOT/production/mcc_generated_files/src/protected_io.o
 .text          0x00000000        0x0 build/GOOGLE_IOT/production/mcc_generated_files/src/rtc.o
 .data          0x00000000        0x0 build/GOOGLE_IOT/production/mcc_generated_files/src/rtc.o
 .bss           0x00000000        0x0 build/GOOGLE_IOT/production/mcc_generated_files/src/rtc.o
 .text.RTC_SetCMPIsrCallback
                0x00000000        0xa build/GOOGLE_IOT/production/mcc_generated_files/src/rtc.o
 .text.RTC_WritePeroid
                0x00000000       0x12 build/GOOGLE_IOT/production/mcc_generated_files/src/rtc.o
 .text.RTC_ReadPeriod
                0x00000000        0xa build/GOOGLE_IOT/production/mcc_generated_files/src/rtc.o
 .text.RTC_EnableCMPInterrupt
                0x00000000        0xc build/GOOGLE_IOT/production/mcc_generated_files/src/rtc.o
 .text.RTC_DisableCMPInterrupt
                0x00000000        0xc build/GOOGLE_IOT/production/mcc_generated_files/src/rtc.o
 .text          0x00000000        0x0 dist/GOOGLE_IOT/production/__pa_temp_8961/twi0_master.o
 .data          0x00000000        0x0 dist/GOOGLE_IOT/production/__pa_temp_8961/twi0_master.o
 .bss           0x00000000        0x0 dist/GOOGLE_IOT/production/__pa_temp_8961/twi0_master.o
 .text.I2C0_SetWriteCollisionCallback
                0x00000000        0xa dist/GOOGLE_IOT/production/__pa_temp_8961/twi0_master.o
 .text.I2C0_SetDataNackCallback
                0x00000000        0xa dist/GOOGLE_IOT/production/__pa_temp_8961/twi0_master.o
 .text.I2C0_SetTimeoutCallback
                0x00000000        0xa dist/GOOGLE_IOT/production/__pa_temp_8961/twi0_master.o
 .text.I2C0_SetAddress
                0x00000000        0x6 dist/GOOGLE_IOT/production/__pa_temp_8961/twi0_master.o
 .text.I2C0_MasterOpen
                0x00000000        0x8 dist/GOOGLE_IOT/production/__pa_temp_8961/twi0_master.o
 .text.I2C0_MasterClose
                0x00000000        0x6 dist/GOOGLE_IOT/production/__pa_temp_8961/twi0_master.o
 .text.I2C0_MasterEnableIrq
                0x00000000        0xc dist/GOOGLE_IOT/production/__pa_temp_8961/twi0_master.o
 .text.I2C0_MasterIsIrqEnabled
                0x00000000       0x1e dist/GOOGLE_IOT/production/__pa_temp_8961/twi0_master.o
 .text.I2C0_SetTimeout
                0x00000000       0x1a dist/GOOGLE_IOT/production/__pa_temp_8961/twi0_master.o
 .text.I2C0_MasterGetRxData
                0x00000000        0x6 dist/GOOGLE_IOT/production/__pa_temp_8961/twi0_master.o
 .text.I2C0_MasterTxData
                0x00000000        0x6 dist/GOOGLE_IOT/production/__pa_temp_8961/twi0_master.o
 .text.I2C0_MasterTxAddr
                0x00000000        0x6 dist/GOOGLE_IOT/production/__pa_temp_8961/twi0_master.o
 .text.I2C0_SetReturnStopCallback
                0x00000000        0x4 dist/GOOGLE_IOT/production/__pa_temp_8961/twi0_master.o
 .text.I2C0_SetReturnResetCallback
                0x00000000        0x4 dist/GOOGLE_IOT/production/__pa_temp_8961/twi0_master.o
 .text.I2C0_SetRestartReadCallback
                0x00000000        0x4 dist/GOOGLE_IOT/production/__pa_temp_8961/twi0_master.o
 .text          0x00000000        0x0 build/GOOGLE_IOT/production/mcc_generated_files/src/adc0.o
 .data          0x00000000        0x0 build/GOOGLE_IOT/production/mcc_generated_files/src/adc0.o
 .bss           0x00000000        0x0 build/GOOGLE_IOT/production/mcc_generated_files/src/adc0.o
 .text.ADC0_Enable
                0x00000000        0xc build/GOOGLE_IOT/production/mcc_generated_files/src/adc0.o
 .text.ADC0_Disable
                0x00000000        0xc build/GOOGLE_IOT/production/mcc_generated_files/src/adc0.o
 .text.ADC0_EnableAutoTrigger
                0x00000000        0xc build/GOOGLE_IOT/production/mcc_generated_files/src/adc0.o
 .text.ADC0_DisableAutoTrigger
                0x00000000        0xc build/GOOGLE_IOT/production/mcc_generated_files/src/adc0.o
 .text.ADC0_SetWindowHigh
                0x00000000        0xa build/GOOGLE_IOT/production/mcc_generated_files/src/adc0.o
 .text.ADC0_SetWindowLow
                0x00000000        0xa build/GOOGLE_IOT/production/mcc_generated_files/src/adc0.o
 .text.ADC0_SetWindowMode
                0x00000000        0x6 build/GOOGLE_IOT/production/mcc_generated_files/src/adc0.o
 .text.ADC0_SetWindowChannel
                0x00000000        0x6 build/GOOGLE_IOT/production/mcc_generated_files/src/adc0.o
 .text.ADC0_StartConversion
                0x00000000        0xc build/GOOGLE_IOT/production/mcc_generated_files/src/adc0.o
 .text.ADC0_GetConversionResult
                0x00000000        0xa build/GOOGLE_IOT/production/mcc_generated_files/src/adc0.o
 .text.ADC0_GetWindowResult
                0x00000000       0x10 build/GOOGLE_IOT/production/mcc_generated_files/src/adc0.o
 .text.ADC0_GetResolution
                0x00000000       0x10 build/GOOGLE_IOT/production/mcc_generated_files/src/adc0.o
 .text.ADC0_RegisterWindowCallback
                0x00000000        0xa build/GOOGLE_IOT/production/mcc_generated_files/src/adc0.o
 .text          0x00000000        0x0 build/GOOGLE_IOT/production/mcc_generated_files/src/usart2.o
 .data          0x00000000        0x0 build/GOOGLE_IOT/production/mcc_generated_files/src/usart2.o
 .bss           0x00000000        0x0 build/GOOGLE_IOT/production/mcc_generated_files/src/usart2.o
 .text.USART2_SetISRCb
                0x00000000       0x1e build/GOOGLE_IOT/production/mcc_generated_files/src/usart2.o
 .text.USART2_SetRXISRCb
                0x00000000        0xa build/GOOGLE_IOT/production/mcc_generated_files/src/usart2.o
 .text.USART2_SetTXISRCb
                0x00000000        0xa build/GOOGLE_IOT/production/mcc_generated_files/src/usart2.o
 .text.USART2_IsTxReady
                0x00000000        0xe build/GOOGLE_IOT/production/mcc_generated_files/src/usart2.o
 .text.USART2_IsTxBusy
                0x00000000       0x10 build/GOOGLE_IOT/production/mcc_generated_files/src/usart2.o
 .text.USART2_IsTxDone
                0x00000000        0xc build/GOOGLE_IOT/production/mcc_generated_files/src/usart2.o
 .text.USART2_Enable
                0x00000000        0xc build/GOOGLE_IOT/production/mcc_generated_files/src/usart2.o
 .text.USART2_EnableRx
                0x00000000        0xc build/GOOGLE_IOT/production/mcc_generated_files/src/usart2.o
 .text.USART2_EnableTx
                0x00000000        0xc build/GOOGLE_IOT/production/mcc_generated_files/src/usart2.o
 .text.USART2_Disable
                0x00000000        0xc build/GOOGLE_IOT/production/mcc_generated_files/src/usart2.o
 .text.USART2_GetData
                0x00000000        0x6 build/GOOGLE_IOT/production/mcc_generated_files/src/usart2.o
 .text          0x00000000        0x0 dist/GOOGLE_IOT/production/__pa_temp_8961/winc_spi.o
 .data          0x00000000        0x0 dist/GOOGLE_IOT/production/__pa_temp_8961/winc_spi.o
 .bss           0x00000000        0x0 dist/GOOGLE_IOT/production/__pa_temp_8961/winc_spi.o
 .text.winc_bus_write_reg_no_rsp
                0x00000000       0x66 dist/GOOGLE_IOT/production/__pa_temp_8961/winc_spi.o
 .text.winc_bus_reset
                0x00000000        0xe dist/GOOGLE_IOT/production/__pa_temp_8961/winc_spi.o
 .rodata.u8CmdBuf.3406
                0x00000000        0x4 dist/GOOGLE_IOT/production/__pa_temp_8961/winc_spi.o
 .text          0x00000000        0x0 dist/GOOGLE_IOT/production/__pa_temp_8961/winc_adapter.o
 .data          0x00000000        0x0 dist/GOOGLE_IOT/production/__pa_temp_8961/winc_adapter.o
 .bss           0x00000000        0x0 dist/GOOGLE_IOT/production/__pa_temp_8961/winc_adapter.o
 .text          0x00000000        0x0 dist/GOOGLE_IOT/production/__pa_temp_8961/winc_hif.o
 .data          0x00000000        0x0 dist/GOOGLE_IOT/production/__pa_temp_8961/winc_hif.o
 .bss           0x00000000        0x0 dist/GOOGLE_IOT/production/__pa_temp_8961/winc_hif.o
 .text.winc_hif_set_power_save
                0x00000000        0x6 dist/GOOGLE_IOT/production/__pa_temp_8961/winc_hif.o
 .text          0x00000000        0x0 dist/GOOGLE_IOT/production/__pa_temp_8961/winc_asic.o
 .data          0x00000000        0x0 dist/GOOGLE_IOT/production/__pa_temp_8961/winc_asic.o
 .bss           0x00000000        0x0 dist/GOOGLE_IOT/production/__pa_temp_8961/winc_asic.o
 .text.winc_chip_reset
                0x00000000       0x1e dist/GOOGLE_IOT/production/__pa_temp_8961/winc_asic.o
 .text.winc_chip_deinit
                0x00000000        0xe dist/GOOGLE_IOT/production/__pa_temp_8961/winc_asic.o
 .text.winc_chip_get_otp_mac_address
                0x00000000       0x7e dist/GOOGLE_IOT/production/__pa_temp_8961/winc_asic.o
 .text.winc_chip_get_mac_address
                0x00000000       0x4c dist/GOOGLE_IOT/production/__pa_temp_8961/winc_asic.o
 .__pa__236     0x00000000       0x1a dist/GOOGLE_IOT/production/__pa_temp_8961/winc_asic.o
 .__pa__243     0x00000000       0x1a dist/GOOGLE_IOT/production/__pa_temp_8961/winc_asic.o
 .text          0x00000000        0x0 dist/GOOGLE_IOT/production/__pa_temp_8961/winc_drv.o
 .data          0x00000000        0x0 dist/GOOGLE_IOT/production/__pa_temp_8961/winc_drv.o
 .bss           0x00000000        0x0 dist/GOOGLE_IOT/production/__pa_temp_8961/winc_drv.o
 .text.winc_drv_deinit
                0x00000000       0x2c dist/GOOGLE_IOT/production/__pa_temp_8961/winc_drv.o
 .text          0x00000000        0x0 dist/GOOGLE_IOT/production/__pa_temp_8961/m2m_ssl.o
 .data          0x00000000        0x0 dist/GOOGLE_IOT/production/__pa_temp_8961/m2m_ssl.o
 .bss           0x00000000        0x0 dist/GOOGLE_IOT/production/__pa_temp_8961/m2m_ssl.o
 .text.m2m_ssl_init
                0x00000000       0x22 dist/GOOGLE_IOT/production/__pa_temp_8961/m2m_ssl.o
 .text.m2m_ssl_handshake_rsp
                0x00000000       0x32 dist/GOOGLE_IOT/production/__pa_temp_8961/m2m_ssl.o
 .text.m2m_ssl_send_certs_to_winc
                0x00000000      0x1aa dist/GOOGLE_IOT/production/__pa_temp_8961/m2m_ssl.o
 .text.m2m_ssl_retrieve_cert
                0x00000000      0x21a dist/GOOGLE_IOT/production/__pa_temp_8961/m2m_ssl.o
 .text.m2m_ssl_retrieve_hash
                0x00000000       0x28 dist/GOOGLE_IOT/production/__pa_temp_8961/m2m_ssl.o
 .text.m2m_ssl_stop_processing_certs
                0x00000000        0x2 dist/GOOGLE_IOT/production/__pa_temp_8961/m2m_ssl.o
 .text.m2m_ssl_ecc_process_done
                0x00000000       0x12 dist/GOOGLE_IOT/production/__pa_temp_8961/m2m_ssl.o
 .text.m2m_ssl_set_active_ciphersuites
                0x00000000       0x28 dist/GOOGLE_IOT/production/__pa_temp_8961/m2m_ssl.o
 .__pa__87      0x00000000        0xe dist/GOOGLE_IOT/production/__pa_temp_8961/m2m_ssl.o
 .__pa__88      0x00000000        0xe dist/GOOGLE_IOT/production/__pa_temp_8961/m2m_ssl.o
 .__pa__260     0x00000000       0x10 dist/GOOGLE_IOT/production/__pa_temp_8961/m2m_ssl.o
 .__pa__262     0x00000000       0x14 dist/GOOGLE_IOT/production/__pa_temp_8961/m2m_ssl.o
 .text          0x00000000        0x0 dist/GOOGLE_IOT/production/__pa_temp_8961/m2m_wifi.o
 .data          0x00000000        0x0 dist/GOOGLE_IOT/production/__pa_temp_8961/m2m_wifi.o
 .bss           0x00000000        0x0 dist/GOOGLE_IOT/production/__pa_temp_8961/m2m_wifi.o
 .text.m2m_wifi_download_mode
                0x00000000       0x22 dist/GOOGLE_IOT/production/__pa_temp_8961/m2m_wifi.o
 .text.m2m_wifi_send_crl
                0x00000000       0x38 dist/GOOGLE_IOT/production/__pa_temp_8961/m2m_wifi.o
 .text.m2m_wifi_deinit
                0x00000000       0x10 dist/GOOGLE_IOT/production/__pa_temp_8961/m2m_wifi.o
 .text.m2m_wifi_delete_sc
                0x00000000       0x3a dist/GOOGLE_IOT/production/__pa_temp_8961/m2m_wifi.o
 .text.m2m_wifi_connect_1x_tls
                0x00000000      0x1f8 dist/GOOGLE_IOT/production/__pa_temp_8961/m2m_wifi.o
 .text.m2m_wifi_set_mac_address
                0x00000000       0x34 dist/GOOGLE_IOT/production/__pa_temp_8961/m2m_wifi.o
 .text.m2m_wifi_set_static_ip
                0x00000000        0xe dist/GOOGLE_IOT/production/__pa_temp_8961/m2m_wifi.o
 .text.m2m_wifi_enable_dhcp
                0x00000000       0x18 dist/GOOGLE_IOT/production/__pa_temp_8961/m2m_wifi.o
 .text.m2m_wifi_set_lsn_int
                0x00000000        0xe dist/GOOGLE_IOT/production/__pa_temp_8961/m2m_wifi.o
 .text.m2m_wifi_set_cust_InfoElement
                0x00000000       0x22 dist/GOOGLE_IOT/production/__pa_temp_8961/m2m_wifi.o
 .text.m2m_wifi_set_scan_options
                0x00000000       0x34 dist/GOOGLE_IOT/production/__pa_temp_8961/m2m_wifi.o
 .text.m2m_wifi_set_scan_region
                0x00000000       0x28 dist/GOOGLE_IOT/production/__pa_temp_8961/m2m_wifi.o
 .text.m2m_wifi_request_scan
                0x00000000       0x4a dist/GOOGLE_IOT/production/__pa_temp_8961/m2m_wifi.o
 .text.m2m_wifi_request_scan_passive
                0x00000000       0x50 dist/GOOGLE_IOT/production/__pa_temp_8961/m2m_wifi.o
 .text.m2m_wifi_request_scan_ssid_list
                0x00000000       0x9e dist/GOOGLE_IOT/production/__pa_temp_8961/m2m_wifi.o
 .text.m2m_wifi_wps
                0x00000000       0x40 dist/GOOGLE_IOT/production/__pa_temp_8961/m2m_wifi.o
 .text.m2m_wifi_wps_disable
                0x00000000       0x10 dist/GOOGLE_IOT/production/__pa_temp_8961/m2m_wifi.o
 .text.m2m_wifi_req_client_ctrl
                0x00000000        0x4 dist/GOOGLE_IOT/production/__pa_temp_8961/m2m_wifi.o
 .text.m2m_wifi_req_server_init
                0x00000000        0x4 dist/GOOGLE_IOT/production/__pa_temp_8961/m2m_wifi.o
 .text.m2m_wifi_p2p
                0x00000000       0x34 dist/GOOGLE_IOT/production/__pa_temp_8961/m2m_wifi.o
 .text.m2m_wifi_p2p_disconnect
                0x00000000       0x10 dist/GOOGLE_IOT/production/__pa_temp_8961/m2m_wifi.o
 .text.m2m_wifi_enable_ap_ext
                0x00000000       0x42 dist/GOOGLE_IOT/production/__pa_temp_8961/m2m_wifi.o
 .text.m2m_wifi_enable_ap
                0x00000000       0x34 dist/GOOGLE_IOT/production/__pa_temp_8961/m2m_wifi.o
 .text.m2m_wifi_set_gains
                0x00000000       0x16 dist/GOOGLE_IOT/production/__pa_temp_8961/m2m_wifi.o
 .text.m2m_wifi_disable_ap
                0x00000000       0x10 dist/GOOGLE_IOT/production/__pa_temp_8961/m2m_wifi.o
 .text.m2m_wifi_req_curr_rssi
                0x00000000       0x10 dist/GOOGLE_IOT/production/__pa_temp_8961/m2m_wifi.o
 .text.m2m_wifi_send_ethernet_pkt
                0x00000000       0x60 dist/GOOGLE_IOT/production/__pa_temp_8961/m2m_wifi.o
 .text.m2m_wifi_get_otp_mac_address
                0x00000000       0x38 dist/GOOGLE_IOT/production/__pa_temp_8961/m2m_wifi.o
 .text.m2m_wifi_get_mac_address
                0x00000000       0x28 dist/GOOGLE_IOT/production/__pa_temp_8961/m2m_wifi.o
 .text.m2m_wifi_req_scan_result
                0x00000000       0x24 dist/GOOGLE_IOT/production/__pa_temp_8961/m2m_wifi.o
 .text.m2m_wifi_get_num_ap_found
                0x00000000        0x6 dist/GOOGLE_IOT/production/__pa_temp_8961/m2m_wifi.o
 .text.m2m_wifi_get_sleep_mode
                0x00000000        0x6 dist/GOOGLE_IOT/production/__pa_temp_8961/m2m_wifi.o
 .text.m2m_wifi_set_sleep_mode
                0x00000000       0x46 dist/GOOGLE_IOT/production/__pa_temp_8961/m2m_wifi.o
 .text.m2m_wifi_request_sleep
                0x00000000       0x3c dist/GOOGLE_IOT/production/__pa_temp_8961/m2m_wifi.o
 .text.m2m_wifi_set_device_name
                0x00000000       0x3e dist/GOOGLE_IOT/production/__pa_temp_8961/m2m_wifi.o
 .text.m2m_wifi_stop_provision_mode
                0x00000000       0x10 dist/GOOGLE_IOT/production/__pa_temp_8961/m2m_wifi.o
 .text.m2m_wifi_get_connection_info
                0x00000000       0x10 dist/GOOGLE_IOT/production/__pa_temp_8961/m2m_wifi.o
 .text.m2m_wifi_set_system_time
                0x00000000       0x28 dist/GOOGLE_IOT/production/__pa_temp_8961/m2m_wifi.o
 .text.m2m_wifi_enable_sntp
                0x00000000       0x18 dist/GOOGLE_IOT/production/__pa_temp_8961/m2m_wifi.o
 .text.m2m_wifi_set_power_profile
                0x00000000       0x24 dist/GOOGLE_IOT/production/__pa_temp_8961/m2m_wifi.o
 .text.m2m_wifi_set_tx_power
                0x00000000       0x24 dist/GOOGLE_IOT/production/__pa_temp_8961/m2m_wifi.o
 .text.m2m_wifi_set_gain_table_idx
                0x00000000       0x24 dist/GOOGLE_IOT/production/__pa_temp_8961/m2m_wifi.o
 .text.m2m_wifi_enable_firmware_logs
                0x00000000       0x24 dist/GOOGLE_IOT/production/__pa_temp_8961/m2m_wifi.o
 .text.m2m_wifi_set_battery_voltage
                0x00000000       0x2c dist/GOOGLE_IOT/production/__pa_temp_8961/m2m_wifi.o
 .text.m2m_wifi_prng_get_random_bytes
                0x00000000       0x48 dist/GOOGLE_IOT/production/__pa_temp_8961/m2m_wifi.o
 .text.m2m_wifi_conf_auto_rate
                0x00000000        0xe dist/GOOGLE_IOT/production/__pa_temp_8961/m2m_wifi.o
 .text.m2m_wifi_get_state
                0x00000000        0x6 dist/GOOGLE_IOT/production/__pa_temp_8961/m2m_wifi.o
 .text.m2m_wifi_enable_roaming
                0x00000000       0x32 dist/GOOGLE_IOT/production/__pa_temp_8961/m2m_wifi.o
 .text.m2m_wifi_disable_roaming
                0x00000000       0x26 dist/GOOGLE_IOT/production/__pa_temp_8961/m2m_wifi.o
 .bss.genuPsMode
                0x00000000        0x1 dist/GOOGLE_IOT/production/__pa_temp_8961/m2m_wifi.o
 .__pa__184     0x00000000        0xe dist/GOOGLE_IOT/production/__pa_temp_8961/m2m_wifi.o
 .text          0x00000000        0x0 build/GOOGLE_IOT/production/mcc_generated_files/winc/m2m/m2m_periph.o
 .data          0x00000000        0x0 build/GOOGLE_IOT/production/mcc_generated_files/winc/m2m/m2m_periph.o
 .bss           0x00000000        0x0 build/GOOGLE_IOT/production/mcc_generated_files/winc/m2m/m2m_periph.o
 .debug_info    0x00000000      0x258 build/GOOGLE_IOT/production/mcc_generated_files/winc/m2m/m2m_periph.o
 .debug_abbrev  0x00000000       0x1b build/GOOGLE_IOT/production/mcc_generated_files/winc/m2m/m2m_periph.o
 .debug_aranges
                0x00000000       0x18 build/GOOGLE_IOT/production/mcc_generated_files/winc/m2m/m2m_periph.o
 .debug_line    0x00000000       0x1a build/GOOGLE_IOT/production/mcc_generated_files/winc/m2m/m2m_periph.o
 .debug_str     0x00000000        0x0 build/GOOGLE_IOT/production/mcc_generated_files/winc/m2m/m2m_periph.o
 .comment       0x00000000       0x30 build/GOOGLE_IOT/production/mcc_generated_files/winc/m2m/m2m_periph.o
 .text          0x00000000        0x0 dist/GOOGLE_IOT/production/__pa_temp_8961/m2m_ota.o
 .data          0x00000000        0x0 dist/GOOGLE_IOT/production/__pa_temp_8961/m2m_ota.o
 .bss           0x00000000        0x0 dist/GOOGLE_IOT/production/__pa_temp_8961/m2m_ota.o
 .text.m2m_ota_cb
                0x00000000      0x172 dist/GOOGLE_IOT/production/__pa_temp_8961/m2m_ota.o
 .text.m2m_ota_init
                0x00000000       0x20 dist/GOOGLE_IOT/production/__pa_temp_8961/m2m_ota.o
 .text.m2m_ota_notif_set_url
                0x00000000       0x18 dist/GOOGLE_IOT/production/__pa_temp_8961/m2m_ota.o
 .text.m2m_ota_notif_check_for_update
                0x00000000       0x10 dist/GOOGLE_IOT/production/__pa_temp_8961/m2m_ota.o
 .text.m2m_ota_notif_sched
                0x00000000       0x10 dist/GOOGLE_IOT/production/__pa_temp_8961/m2m_ota.o
 .text.m2m_ota_start_update
                0x00000000       0x18 dist/GOOGLE_IOT/production/__pa_temp_8961/m2m_ota.o
 .text.m2m_ota_rollback
                0x00000000       0x10 dist/GOOGLE_IOT/production/__pa_temp_8961/m2m_ota.o
 .text.m2m_ota_abort
                0x00000000       0x10 dist/GOOGLE_IOT/production/__pa_temp_8961/m2m_ota.o
 .text.m2m_ota_switch_firmware
                0x00000000       0x10 dist/GOOGLE_IOT/production/__pa_temp_8961/m2m_ota.o
 .text.m2m_ota_get_firmware_version
                0x00000000       0x36 dist/GOOGLE_IOT/production/__pa_temp_8961/m2m_ota.o
 .text.m2m_ota_host_file_get
                0x00000000       0x5c dist/GOOGLE_IOT/production/__pa_temp_8961/m2m_ota.o
 .text.m2m_ota_host_file_read_hif
                0x00000000       0x64 dist/GOOGLE_IOT/production/__pa_temp_8961/m2m_ota.o
 .text.m2m_ota_host_file_read_spi
                0x00000000      0x12c dist/GOOGLE_IOT/production/__pa_temp_8961/m2m_ota.o
 .text.m2m_ota_host_file_erase
                0x00000000       0x36 dist/GOOGLE_IOT/production/__pa_temp_8961/m2m_ota.o
 .bss.u32FlashHFDSize.3510
                0x00000000        0x4 dist/GOOGLE_IOT/production/__pa_temp_8961/m2m_ota.o
 .bss.u32FlashHFDStart.3509
                0x00000000        0x4 dist/GOOGLE_IOT/production/__pa_temp_8961/m2m_ota.o
 .data.gu8CurrFileHandlerID
                0x00000000        0x1 dist/GOOGLE_IOT/production/__pa_temp_8961/m2m_ota.o
 .bss.FileBlock
                0x00000000        0x8 dist/GOOGLE_IOT/production/__pa_temp_8961/m2m_ota.o
 .bss.gpfHFDEraseCb
                0x00000000        0x2 dist/GOOGLE_IOT/production/__pa_temp_8961/m2m_ota.o
 .bss.gpfHFDReadCb
                0x00000000        0x2 dist/GOOGLE_IOT/production/__pa_temp_8961/m2m_ota.o
 .bss.gpfHFDGetCb
                0x00000000        0x2 dist/GOOGLE_IOT/production/__pa_temp_8961/m2m_ota.o
 .bss.gpfOtaNotifCb
                0x00000000        0x2 dist/GOOGLE_IOT/production/__pa_temp_8961/m2m_ota.o
 .bss.gpfOtaUpdateCb
                0x00000000        0x2 dist/GOOGLE_IOT/production/__pa_temp_8961/m2m_ota.o
 .__pa__111     0x00000000        0xc dist/GOOGLE_IOT/production/__pa_temp_8961/m2m_ota.o
 .text          0x00000000        0x0 dist/GOOGLE_IOT/production/__pa_temp_8961/m2m_fwinfo.o
 .data          0x00000000        0x0 dist/GOOGLE_IOT/production/__pa_temp_8961/m2m_fwinfo.o
 .bss           0x00000000        0x0 dist/GOOGLE_IOT/production/__pa_temp_8961/m2m_fwinfo.o
 .text          0x00000000        0x0 build/GOOGLE_IOT/production/mcc_generated_files/winc/m2m/m2m_crypto.o
 .data          0x00000000        0x0 build/GOOGLE_IOT/production/mcc_generated_files/winc/m2m/m2m_crypto.o
 .bss           0x00000000        0x0 build/GOOGLE_IOT/production/mcc_generated_files/winc/m2m/m2m_crypto.o
 .debug_info    0x00000000      0x258 build/GOOGLE_IOT/production/mcc_generated_files/winc/m2m/m2m_crypto.o
 .debug_abbrev  0x00000000       0x1b build/GOOGLE_IOT/production/mcc_generated_files/winc/m2m/m2m_crypto.o
 .debug_aranges
                0x00000000       0x18 build/GOOGLE_IOT/production/mcc_generated_files/winc/m2m/m2m_crypto.o
 .debug_line    0x00000000       0x1a build/GOOGLE_IOT/production/mcc_generated_files/winc/m2m/m2m_crypto.o
 .debug_str     0x00000000        0x0 build/GOOGLE_IOT/production/mcc_generated_files/winc/m2m/m2m_crypto.o
 .comment       0x00000000       0x30 build/GOOGLE_IOT/production/mcc_generated_files/winc/m2m/m2m_crypto.o
 .text          0x00000000        0x0 dist/GOOGLE_IOT/production/__pa_temp_8961/socket.o
 .data          0x00000000        0x0 dist/GOOGLE_IOT/production/__pa_temp_8961/socket.o
 .bss           0x00000000        0x0 dist/GOOGLE_IOT/production/__pa_temp_8961/socket.o
 .text.registerSocketEventCallback
                0x00000000        0xa dist/GOOGLE_IOT/production/__pa_temp_8961/socket.o
 .text.registerSocketResolveCallback
                0x00000000        0xa dist/GOOGLE_IOT/production/__pa_temp_8961/socket.o
 .text.bind     0x00000000       0x6c dist/GOOGLE_IOT/production/__pa_temp_8961/socket.o
 .text.listen   0x00000000       0x4c dist/GOOGLE_IOT/production/__pa_temp_8961/socket.o
 .text.accept   0x00000000       0x1a dist/GOOGLE_IOT/production/__pa_temp_8961/socket.o
 .text.sendto   0x00000000       0xbe dist/GOOGLE_IOT/production/__pa_temp_8961/socket.o
 .text.recvfrom
                0x00000000       0x9e dist/GOOGLE_IOT/production/__pa_temp_8961/socket.o
 .text.inet_addr
                0x00000000       0xb0 dist/GOOGLE_IOT/production/__pa_temp_8961/socket.o
 .text.inet_ntop
                0x00000000       0xb2 dist/GOOGLE_IOT/production/__pa_temp_8961/socket.o
 .text.setsockopt
                0x00000000      0x156 dist/GOOGLE_IOT/production/__pa_temp_8961/socket.o
 .text.getsockopt
                0x00000000        0x4 dist/GOOGLE_IOT/production/__pa_temp_8961/socket.o
 .text.m2m_ping_req
                0x00000000       0x8a dist/GOOGLE_IOT/production/__pa_temp_8961/socket.o
 .__pa__23      0x00000000        0xa dist/GOOGLE_IOT/production/__pa_temp_8961/socket.o
 .text          0x00000000        0x0 dist/GOOGLE_IOT/production/__pa_temp_8961/flexible_flash.o
 .data          0x00000000        0x0 dist/GOOGLE_IOT/production/__pa_temp_8961/flexible_flash.o
 .bss           0x00000000        0x0 dist/GOOGLE_IOT/production/__pa_temp_8961/flexible_flash.o
 .text.spi_flexible_flash_find_section
                0x00000000      0x11a dist/GOOGLE_IOT/production/__pa_temp_8961/flexible_flash.o
 .debug_info    0x00000000      0x440 dist/GOOGLE_IOT/production/__pa_temp_8961/flexible_flash.o
 .debug_abbrev  0x00000000       0xd1 dist/GOOGLE_IOT/production/__pa_temp_8961/flexible_flash.o
 .debug_loc     0x00000000      0x1da dist/GOOGLE_IOT/production/__pa_temp_8961/flexible_flash.o
 .debug_aranges
                0x00000000       0x20 dist/GOOGLE_IOT/production/__pa_temp_8961/flexible_flash.o
 .debug_ranges  0x00000000       0x28 dist/GOOGLE_IOT/production/__pa_temp_8961/flexible_flash.o
 .debug_line    0x00000000      0x11d dist/GOOGLE_IOT/production/__pa_temp_8961/flexible_flash.o
 .debug_str     0x00000000        0xf dist/GOOGLE_IOT/production/__pa_temp_8961/flexible_flash.o
 .comment       0x00000000       0x30 dist/GOOGLE_IOT/production/__pa_temp_8961/flexible_flash.o
 .debug_frame   0x00000000       0x80 dist/GOOGLE_IOT/production/__pa_temp_8961/flexible_flash.o
 .text          0x00000000        0x0 dist/GOOGLE_IOT/production/__pa_temp_8961/spi_flash.o
 .data          0x00000000        0x0 dist/GOOGLE_IOT/production/__pa_temp_8961/spi_flash.o
 .bss           0x00000000        0x0 dist/GOOGLE_IOT/production/__pa_temp_8961/spi_flash.o
 .text.spi_flash_write_enable
                0x00000000       0x5c dist/GOOGLE_IOT/production/__pa_temp_8961/spi_flash.o
 .text.spi_flash_read_status_reg
                0x00000000       0x84 dist/GOOGLE_IOT/production/__pa_temp_8961/spi_flash.o
 .text.spi_flash_pp
                0x00000000      0x160 dist/GOOGLE_IOT/production/__pa_temp_8961/spi_flash.o
 .text.spi_flash_read_internal
                0x00000000      0x104 dist/GOOGLE_IOT/production/__pa_temp_8961/spi_flash.o
 .text.spi_flash_enable
                0x00000000       0xd6 dist/GOOGLE_IOT/production/__pa_temp_8961/spi_flash.o
 .text.spi_flash_read
                0x00000000       0x86 dist/GOOGLE_IOT/production/__pa_temp_8961/spi_flash.o
 .text.spi_flash_write
                0x00000000       0xc2 dist/GOOGLE_IOT/production/__pa_temp_8961/spi_flash.o
 .text.spi_flash_erase
                0x00000000      0x124 dist/GOOGLE_IOT/production/__pa_temp_8961/spi_flash.o
 .text.spi_flash_get_size
                0x00000000       0xfa dist/GOOGLE_IOT/production/__pa_temp_8961/spi_flash.o
 .bss.gu32InternalFlashSize
                0x00000000        0x4 dist/GOOGLE_IOT/production/__pa_temp_8961/spi_flash.o
 .__pa__10      0x00000000       0x12 dist/GOOGLE_IOT/production/__pa_temp_8961/spi_flash.o
 .__pa__18      0x00000000       0x10 dist/GOOGLE_IOT/production/__pa_temp_8961/spi_flash.o
 .__pa__19      0x00000000       0x10 dist/GOOGLE_IOT/production/__pa_temp_8961/spi_flash.o
 .__pa__20      0x00000000       0x10 dist/GOOGLE_IOT/production/__pa_temp_8961/spi_flash.o
 .__pa__29      0x00000000        0xc dist/GOOGLE_IOT/production/__pa_temp_8961/spi_flash.o
 .__pa__112     0x00000000       0x10 dist/GOOGLE_IOT/production/__pa_temp_8961/spi_flash.o
 .__pa__177     0x00000000       0x10 dist/GOOGLE_IOT/production/__pa_temp_8961/spi_flash.o
 .__pa__178     0x00000000       0x10 dist/GOOGLE_IOT/production/__pa_temp_8961/spi_flash.o
 .__pa__201     0x00000000       0x12 dist/GOOGLE_IOT/production/__pa_temp_8961/spi_flash.o
 .__pa__211     0x00000000       0x12 dist/GOOGLE_IOT/production/__pa_temp_8961/spi_flash.o
 .__pa__215     0x00000000       0x18 dist/GOOGLE_IOT/production/__pa_temp_8961/spi_flash.o
 .__pa__223     0x00000000        0xc dist/GOOGLE_IOT/production/__pa_temp_8961/spi_flash.o
 .__pa__231     0x00000000       0x14 dist/GOOGLE_IOT/production/__pa_temp_8961/spi_flash.o
 .__pa__253     0x00000000        0xa dist/GOOGLE_IOT/production/__pa_temp_8961/spi_flash.o
 .__pa__254     0x00000000       0x12 dist/GOOGLE_IOT/production/__pa_temp_8961/spi_flash.o
 .text          0x00000000        0x0 build/GOOGLE_IOT/production/mcc_generated_files/mcc.o
 .data          0x00000000        0x0 build/GOOGLE_IOT/production/mcc_generated_files/mcc.o
 .bss           0x00000000        0x0 build/GOOGLE_IOT/production/mcc_generated_files/mcc.o
 .text          0x00000000        0x0 build/GOOGLE_IOT/production/mcc_generated_files/delay.o
 .data          0x00000000        0x0 build/GOOGLE_IOT/production/mcc_generated_files/delay.o
 .bss           0x00000000        0x0 build/GOOGLE_IOT/production/mcc_generated_files/delay.o
 .text.DELAY_microseconds
                0x00000000       0x2a build/GOOGLE_IOT/production/mcc_generated_files/delay.o
 .text          0x00000000        0x0 build/GOOGLE_IOT/production/mcc_generated_files/device_config.o
 .data          0x00000000        0x0 build/GOOGLE_IOT/production/mcc_generated_files/device_config.o
 .bss           0x00000000        0x0 build/GOOGLE_IOT/production/mcc_generated_files/device_config.o
 .text          0x00000000        0x0 dist/GOOGLE_IOT/production/__pa_temp_8961/application_manager.o
 .data          0x00000000        0x0 dist/GOOGLE_IOT/production/__pa_temp_8961/application_manager.o
 .bss           0x00000000        0x0 dist/GOOGLE_IOT/production/__pa_temp_8961/application_manager.o
 .text          0x00000000        0x0 dist/GOOGLE_IOT/production/__pa_temp_8961/debug_print.o
 .data          0x00000000        0x0 dist/GOOGLE_IOT/production/__pa_temp_8961/debug_print.o
 .bss           0x00000000        0x0 dist/GOOGLE_IOT/production/__pa_temp_8961/debug_print.o
 .text          0x00000000        0x0 build/GOOGLE_IOT/production/mcc_generated_files/led.o
 .data          0x00000000        0x0 build/GOOGLE_IOT/production/mcc_generated_files/led.o
 .bss           0x00000000        0x0 build/GOOGLE_IOT/production/mcc_generated_files/led.o
 .text          0x00000000        0x0 dist/GOOGLE_IOT/production/__pa_temp_8961/sensors_handling.o
 .data          0x00000000        0x0 dist/GOOGLE_IOT/production/__pa_temp_8961/sensors_handling.o
 .bss           0x00000000        0x0 dist/GOOGLE_IOT/production/__pa_temp_8961/sensors_handling.o
 .text          0x00000000        0x0 dist/GOOGLE_IOT/production/__pa_temp_8961/time_service.o
 .data          0x00000000        0x0 dist/GOOGLE_IOT/production/__pa_temp_8961/time_service.o
 .bss           0x00000000        0x0 dist/GOOGLE_IOT/production/__pa_temp_8961/time_service.o
 .text.timeTicker
                0x00000000       0x30 dist/GOOGLE_IOT/production/__pa_temp_8961/time_service.o
 .text.TIME_setCurrent
                0x00000000       0x12 dist/GOOGLE_IOT/production/__pa_temp_8961/time_service.o
 .text.TIME_startTask
                0x00000000       0x10 dist/GOOGLE_IOT/production/__pa_temp_8961/time_service.o
 .text.TIME_endTask
                0x00000000        0x8 dist/GOOGLE_IOT/production/__pa_temp_8961/time_service.o
 .text.TIME_GetcTime
                0x00000000       0x24 dist/GOOGLE_IOT/production/__pa_temp_8961/time_service.o
 .data.timeTask
                0x00000000        0xa dist/GOOGLE_IOT/production/__pa_temp_8961/time_service.o
 .__pa__69      0x00000000        0xa dist/GOOGLE_IOT/production/__pa_temp_8961/time_service.o
 .text          0x00000000        0x0 build/GOOGLE_IOT/production/mcc_generated_files/CryptoAuthenticationLibrary/CryptoAuth_init.o
 .data          0x00000000        0x0 build/GOOGLE_IOT/production/mcc_generated_files/CryptoAuthenticationLibrary/CryptoAuth_init.o
 .bss           0x00000000        0x0 build/GOOGLE_IOT/production/mcc_generated_files/CryptoAuthenticationLibrary/CryptoAuth_init.o
 .data._gMyDevice
                0x00000000        0x4 build/GOOGLE_IOT/production/mcc_generated_files/CryptoAuthenticationLibrary/CryptoAuth_init.o
 COMMON         0x00000000       0x17 build/GOOGLE_IOT/production/mcc_generated_files/CryptoAuthenticationLibrary/CryptoAuth_init.o
 .text          0x00000000        0x0 build/GOOGLE_IOT/production/main.o
 .data          0x00000000        0x0 build/GOOGLE_IOT/production/main.o
 .bss           0x00000000        0x0 build/GOOGLE_IOT/production/main.o
 .text          0x00000000        0x0 /opt/microchip/xc8/v2.10/avr/bin/../lib/gcc/avr/5.4.0/avrxmega3/libgcc.a(_udivmodqi4.o)
 .data          0x00000000        0x0 /opt/microchip/xc8/v2.10/avr/bin/../lib/gcc/avr/5.4.0/avrxmega3/libgcc.a(_udivmodqi4.o)
 .bss           0x00000000        0x0 /opt/microchip/xc8/v2.10/avr/bin/../lib/gcc/avr/5.4.0/avrxmega3/libgcc.a(_udivmodqi4.o)
 .text.libgcc.mul
                0x00000000        0x0 /opt/microchip/xc8/v2.10/avr/bin/../lib/gcc/avr/5.4.0/avrxmega3/libgcc.a(_udivmodqi4.o)
 .text.libgcc.div
                0x00000000       0x18 /opt/microchip/xc8/v2.10/avr/bin/../lib/gcc/avr/5.4.0/avrxmega3/libgcc.a(_udivmodqi4.o)
 .text.libgcc   0x00000000        0x0 /opt/microchip/xc8/v2.10/avr/bin/../lib/gcc/avr/5.4.0/avrxmega3/libgcc.a(_udivmodqi4.o)
 .text.libgcc.prologue
                0x00000000        0x0 /opt/microchip/xc8/v2.10/avr/bin/../lib/gcc/avr/5.4.0/avrxmega3/libgcc.a(_udivmodqi4.o)
 .text.libgcc.builtins
                0x00000000        0x0 /opt/microchip/xc8/v2.10/avr/bin/../lib/gcc/avr/5.4.0/avrxmega3/libgcc.a(_udivmodqi4.o)
 .text.libgcc.fmul
                0x00000000        0x0 /opt/microchip/xc8/v2.10/avr/bin/../lib/gcc/avr/5.4.0/avrxmega3/libgcc.a(_udivmodqi4.o)
 .text.libgcc.fixed
                0x00000000        0x0 /opt/microchip/xc8/v2.10/avr/bin/../lib/gcc/avr/5.4.0/avrxmega3/libgcc.a(_udivmodqi4.o)
 .text          0x00000000        0x0 /opt/microchip/xc8/v2.10/avr/bin/../lib/gcc/avr/5.4.0/avrxmega3/libgcc.a(_udivmodhi4.o)
 .data          0x00000000        0x0 /opt/microchip/xc8/v2.10/avr/bin/../lib/gcc/avr/5.4.0/avrxmega3/libgcc.a(_udivmodhi4.o)
 .bss           0x00000000        0x0 /opt/microchip/xc8/v2.10/avr/bin/../lib/gcc/avr/5.4.0/avrxmega3/libgcc.a(_udivmodhi4.o)
 .text.libgcc.mul
                0x00000000        0x0 /opt/microchip/xc8/v2.10/avr/bin/../lib/gcc/avr/5.4.0/avrxmega3/libgcc.a(_udivmodhi4.o)
 .text.libgcc   0x00000000        0x0 /opt/microchip/xc8/v2.10/avr/bin/../lib/gcc/avr/5.4.0/avrxmega3/libgcc.a(_udivmodhi4.o)
 .text.libgcc.prologue
                0x00000000        0x0 /opt/microchip/xc8/v2.10/avr/bin/../lib/gcc/avr/5.4.0/avrxmega3/libgcc.a(_udivmodhi4.o)
 .text.libgcc.builtins
                0x00000000        0x0 /opt/microchip/xc8/v2.10/avr/bin/../lib/gcc/avr/5.4.0/avrxmega3/libgcc.a(_udivmodhi4.o)
 .text.libgcc.fmul
                0x00000000        0x0 /opt/microchip/xc8/v2.10/avr/bin/../lib/gcc/avr/5.4.0/avrxmega3/libgcc.a(_udivmodhi4.o)
 .text.libgcc.fixed
                0x00000000        0x0 /opt/microchip/xc8/v2.10/avr/bin/../lib/gcc/avr/5.4.0/avrxmega3/libgcc.a(_udivmodhi4.o)
 .text          0x00000000        0x0 /opt/microchip/xc8/v2.10/avr/bin/../lib/gcc/avr/5.4.0/avrxmega3/libgcc.a(_divmodhi4.o)
 .data          0x00000000        0x0 /opt/microchip/xc8/v2.10/avr/bin/../lib/gcc/avr/5.4.0/avrxmega3/libgcc.a(_divmodhi4.o)
 .bss           0x00000000        0x0 /opt/microchip/xc8/v2.10/avr/bin/../lib/gcc/avr/5.4.0/avrxmega3/libgcc.a(_divmodhi4.o)
 .text.libgcc.mul
                0x00000000        0x0 /opt/microchip/xc8/v2.10/avr/bin/../lib/gcc/avr/5.4.0/avrxmega3/libgcc.a(_divmodhi4.o)
 .text.libgcc   0x00000000        0x0 /opt/microchip/xc8/v2.10/avr/bin/../lib/gcc/avr/5.4.0/avrxmega3/libgcc.a(_divmodhi4.o)
 .text.libgcc.prologue
                0x00000000        0x0 /opt/microchip/xc8/v2.10/avr/bin/../lib/gcc/avr/5.4.0/avrxmega3/libgcc.a(_divmodhi4.o)
 .text.libgcc.builtins
                0x00000000        0x0 /opt/microchip/xc8/v2.10/avr/bin/../lib/gcc/avr/5.4.0/avrxmega3/libgcc.a(_divmodhi4.o)
 .text.libgcc.fmul
                0x00000000        0x0 /opt/microchip/xc8/v2.10/avr/bin/../lib/gcc/avr/5.4.0/avrxmega3/libgcc.a(_divmodhi4.o)
 .text.libgcc.fixed
                0x00000000        0x0 /opt/microchip/xc8/v2.10/avr/bin/../lib/gcc/avr/5.4.0/avrxmega3/libgcc.a(_divmodhi4.o)
 .text          0x00000000        0x0 /opt/microchip/xc8/v2.10/avr/bin/../lib/gcc/avr/5.4.0/avrxmega3/libgcc.a(_udivmodsi4.o)
 .data          0x00000000        0x0 /opt/microchip/xc8/v2.10/avr/bin/../lib/gcc/avr/5.4.0/avrxmega3/libgcc.a(_udivmodsi4.o)
 .bss           0x00000000        0x0 /opt/microchip/xc8/v2.10/avr/bin/../lib/gcc/avr/5.4.0/avrxmega3/libgcc.a(_udivmodsi4.o)
 .text.libgcc.mul
                0x00000000        0x0 /opt/microchip/xc8/v2.10/avr/bin/../lib/gcc/avr/5.4.0/avrxmega3/libgcc.a(_udivmodsi4.o)
 .text.libgcc   0x00000000        0x0 /opt/microchip/xc8/v2.10/avr/bin/../lib/gcc/avr/5.4.0/avrxmega3/libgcc.a(_udivmodsi4.o)
 .text.libgcc.prologue
                0x00000000        0x0 /opt/microchip/xc8/v2.10/avr/bin/../lib/gcc/avr/5.4.0/avrxmega3/libgcc.a(_udivmodsi4.o)
 .text.libgcc.builtins
                0x00000000        0x0 /opt/microchip/xc8/v2.10/avr/bin/../lib/gcc/avr/5.4.0/avrxmega3/libgcc.a(_udivmodsi4.o)
 .text.libgcc.fmul
                0x00000000        0x0 /opt/microchip/xc8/v2.10/avr/bin/../lib/gcc/avr/5.4.0/avrxmega3/libgcc.a(_udivmodsi4.o)
 .text.libgcc.fixed
                0x00000000        0x0 /opt/microchip/xc8/v2.10/avr/bin/../lib/gcc/avr/5.4.0/avrxmega3/libgcc.a(_udivmodsi4.o)
 .text          0x00000000        0x0 /opt/microchip/xc8/v2.10/avr/bin/../lib/gcc/avr/5.4.0/avrxmega3/libgcc.a(_divmodsi4.o)
 .data          0x00000000        0x0 /opt/microchip/xc8/v2.10/avr/bin/../lib/gcc/avr/5.4.0/avrxmega3/libgcc.a(_divmodsi4.o)
 .bss           0x00000000        0x0 /opt/microchip/xc8/v2.10/avr/bin/../lib/gcc/avr/5.4.0/avrxmega3/libgcc.a(_divmodsi4.o)
 .text.libgcc.mul
                0x00000000        0x0 /opt/microchip/xc8/v2.10/avr/bin/../lib/gcc/avr/5.4.0/avrxmega3/libgcc.a(_divmodsi4.o)
 .text.libgcc   0x00000000        0x0 /opt/microchip/xc8/v2.10/avr/bin/../lib/gcc/avr/5.4.0/avrxmega3/libgcc.a(_divmodsi4.o)
 .text.libgcc.prologue
                0x00000000        0x0 /opt/microchip/xc8/v2.10/avr/bin/../lib/gcc/avr/5.4.0/avrxmega3/libgcc.a(_divmodsi4.o)
 .text.libgcc.builtins
                0x00000000        0x0 /opt/microchip/xc8/v2.10/avr/bin/../lib/gcc/avr/5.4.0/avrxmega3/libgcc.a(_divmodsi4.o)
 .text.libgcc.fmul
                0x00000000        0x0 /opt/microchip/xc8/v2.10/avr/bin/../lib/gcc/avr/5.4.0/avrxmega3/libgcc.a(_divmodsi4.o)
 .text.libgcc.fixed
                0x00000000        0x0 /opt/microchip/xc8/v2.10/avr/bin/../lib/gcc/avr/5.4.0/avrxmega3/libgcc.a(_divmodsi4.o)
 .text          0x00000000        0x0 /opt/microchip/xc8/v2.10/avr/bin/../lib/gcc/avr/5.4.0/avrxmega3/libgcc.a(_exit.o)
 .data          0x00000000        0x0 /opt/microchip/xc8/v2.10/avr/bin/../lib/gcc/avr/5.4.0/avrxmega3/libgcc.a(_exit.o)
 .bss           0x00000000        0x0 /opt/microchip/xc8/v2.10/avr/bin/../lib/gcc/avr/5.4.0/avrxmega3/libgcc.a(_exit.o)
 .text.libgcc.mul
                0x00000000        0x0 /opt/microchip/xc8/v2.10/avr/bin/../lib/gcc/avr/5.4.0/avrxmega3/libgcc.a(_exit.o)
 .text.libgcc.div
                0x00000000        0x0 /opt/microchip/xc8/v2.10/avr/bin/../lib/gcc/avr/5.4.0/avrxmega3/libgcc.a(_exit.o)
 .text.libgcc   0x00000000        0x0 /opt/microchip/xc8/v2.10/avr/bin/../lib/gcc/avr/5.4.0/avrxmega3/libgcc.a(_exit.o)
 .text.libgcc.prologue
                0x00000000        0x0 /opt/microchip/xc8/v2.10/avr/bin/../lib/gcc/avr/5.4.0/avrxmega3/libgcc.a(_exit.o)
 .text.libgcc.builtins
                0x00000000        0x0 /opt/microchip/xc8/v2.10/avr/bin/../lib/gcc/avr/5.4.0/avrxmega3/libgcc.a(_exit.o)
 .text.libgcc.fmul
                0x00000000        0x0 /opt/microchip/xc8/v2.10/avr/bin/../lib/gcc/avr/5.4.0/avrxmega3/libgcc.a(_exit.o)
 .text.libgcc.fixed
                0x00000000        0x0 /opt/microchip/xc8/v2.10/avr/bin/../lib/gcc/avr/5.4.0/avrxmega3/libgcc.a(_exit.o)
 .text          0x00000000        0x0 /opt/microchip/xc8/v2.10/avr/bin/../lib/gcc/avr/5.4.0/avrxmega3/libgcc.a(_tablejump2.o)
 .data          0x00000000        0x0 /opt/microchip/xc8/v2.10/avr/bin/../lib/gcc/avr/5.4.0/avrxmega3/libgcc.a(_tablejump2.o)
 .bss           0x00000000        0x0 /opt/microchip/xc8/v2.10/avr/bin/../lib/gcc/avr/5.4.0/avrxmega3/libgcc.a(_tablejump2.o)
 .text.libgcc.mul
                0x00000000        0x0 /opt/microchip/xc8/v2.10/avr/bin/../lib/gcc/avr/5.4.0/avrxmega3/libgcc.a(_tablejump2.o)
 .text.libgcc.div
                0x00000000        0x0 /opt/microchip/xc8/v2.10/avr/bin/../lib/gcc/avr/5.4.0/avrxmega3/libgcc.a(_tablejump2.o)
 .text.libgcc.prologue
                0x00000000        0x0 /opt/microchip/xc8/v2.10/avr/bin/../lib/gcc/avr/5.4.0/avrxmega3/libgcc.a(_tablejump2.o)
 .text.libgcc.builtins
                0x00000000        0x0 /opt/microchip/xc8/v2.10/avr/bin/../lib/gcc/avr/5.4.0/avrxmega3/libgcc.a(_tablejump2.o)
 .text.libgcc.fmul
                0x00000000        0x0 /opt/microchip/xc8/v2.10/avr/bin/../lib/gcc/avr/5.4.0/avrxmega3/libgcc.a(_tablejump2.o)
 .text.libgcc.fixed
                0x00000000        0x0 /opt/microchip/xc8/v2.10/avr/bin/../lib/gcc/avr/5.4.0/avrxmega3/libgcc.a(_tablejump2.o)
 .text          0x00000000        0x0 /opt/microchip/xc8/v2.10/avr/bin/../lib/gcc/avr/5.4.0/avrxmega3/libgcc.a(_copy_data.o)
 .data          0x00000000        0x0 /opt/microchip/xc8/v2.10/avr/bin/../lib/gcc/avr/5.4.0/avrxmega3/libgcc.a(_copy_data.o)
 .bss           0x00000000        0x0 /opt/microchip/xc8/v2.10/avr/bin/../lib/gcc/avr/5.4.0/avrxmega3/libgcc.a(_copy_data.o)
 .text.libgcc.mul
                0x00000000        0x0 /opt/microchip/xc8/v2.10/avr/bin/../lib/gcc/avr/5.4.0/avrxmega3/libgcc.a(_copy_data.o)
 .text.libgcc.div
                0x00000000        0x0 /opt/microchip/xc8/v2.10/avr/bin/../lib/gcc/avr/5.4.0/avrxmega3/libgcc.a(_copy_data.o)
 .text.libgcc   0x00000000        0x0 /opt/microchip/xc8/v2.10/avr/bin/../lib/gcc/avr/5.4.0/avrxmega3/libgcc.a(_copy_data.o)
 .text.libgcc.prologue
                0x00000000        0x0 /opt/microchip/xc8/v2.10/avr/bin/../lib/gcc/avr/5.4.0/avrxmega3/libgcc.a(_copy_data.o)
 .text.libgcc.builtins
                0x00000000        0x0 /opt/microchip/xc8/v2.10/avr/bin/../lib/gcc/avr/5.4.0/avrxmega3/libgcc.a(_copy_data.o)
 .text.libgcc.fmul
                0x00000000        0x0 /opt/microchip/xc8/v2.10/avr/bin/../lib/gcc/avr/5.4.0/avrxmega3/libgcc.a(_copy_data.o)
 .text.libgcc.fixed
                0x00000000        0x0 /opt/microchip/xc8/v2.10/avr/bin/../lib/gcc/avr/5.4.0/avrxmega3/libgcc.a(_copy_data.o)
 .text          0x00000000        0x0 /opt/microchip/xc8/v2.10/avr/bin/../lib/gcc/avr/5.4.0/avrxmega3/libgcc.a(_bswapsi2.o)
 .data          0x00000000        0x0 /opt/microchip/xc8/v2.10/avr/bin/../lib/gcc/avr/5.4.0/avrxmega3/libgcc.a(_bswapsi2.o)
 .bss           0x00000000        0x0 /opt/microchip/xc8/v2.10/avr/bin/../lib/gcc/avr/5.4.0/avrxmega3/libgcc.a(_bswapsi2.o)
 .text.libgcc.mul
                0x00000000        0x0 /opt/microchip/xc8/v2.10/avr/bin/../lib/gcc/avr/5.4.0/avrxmega3/libgcc.a(_bswapsi2.o)
 .text.libgcc.div
                0x00000000        0x0 /opt/microchip/xc8/v2.10/avr/bin/../lib/gcc/avr/5.4.0/avrxmega3/libgcc.a(_bswapsi2.o)
 .text.libgcc   0x00000000        0x0 /opt/microchip/xc8/v2.10/avr/bin/../lib/gcc/avr/5.4.0/avrxmega3/libgcc.a(_bswapsi2.o)
 .text.libgcc.prologue
                0x00000000        0x0 /opt/microchip/xc8/v2.10/avr/bin/../lib/gcc/avr/5.4.0/avrxmega3/libgcc.a(_bswapsi2.o)
 .text.libgcc.builtins
                0x00000000        0xe /opt/microchip/xc8/v2.10/avr/bin/../lib/gcc/avr/5.4.0/avrxmega3/libgcc.a(_bswapsi2.o)
 .text.libgcc.fmul
                0x00000000        0x0 /opt/microchip/xc8/v2.10/avr/bin/../lib/gcc/avr/5.4.0/avrxmega3/libgcc.a(_bswapsi2.o)
 .text.libgcc.fixed
                0x00000000        0x0 /opt/microchip/xc8/v2.10/avr/bin/../lib/gcc/avr/5.4.0/avrxmega3/libgcc.a(_bswapsi2.o)
 .text          0x00000000        0x0 /opt/microchip/xc8/v2.10/avr/bin/../lib/gcc/avr/5.4.0/avrxmega3/libgcc.a(_umulhisi3.o)
 .data          0x00000000        0x0 /opt/microchip/xc8/v2.10/avr/bin/../lib/gcc/avr/5.4.0/avrxmega3/libgcc.a(_umulhisi3.o)
 .bss           0x00000000        0x0 /opt/microchip/xc8/v2.10/avr/bin/../lib/gcc/avr/5.4.0/avrxmega3/libgcc.a(_umulhisi3.o)
 .text.libgcc.div
                0x00000000        0x0 /opt/microchip/xc8/v2.10/avr/bin/../lib/gcc/avr/5.4.0/avrxmega3/libgcc.a(_umulhisi3.o)
 .text.libgcc   0x00000000        0x0 /opt/microchip/xc8/v2.10/avr/bin/../lib/gcc/avr/5.4.0/avrxmega3/libgcc.a(_umulhisi3.o)
 .text.libgcc.prologue
                0x00000000        0x0 /opt/microchip/xc8/v2.10/avr/bin/../lib/gcc/avr/5.4.0/avrxmega3/libgcc.a(_umulhisi3.o)
 .text.libgcc.builtins
                0x00000000        0x0 /opt/microchip/xc8/v2.10/avr/bin/../lib/gcc/avr/5.4.0/avrxmega3/libgcc.a(_umulhisi3.o)
 .text.libgcc.fmul
                0x00000000        0x0 /opt/microchip/xc8/v2.10/avr/bin/../lib/gcc/avr/5.4.0/avrxmega3/libgcc.a(_umulhisi3.o)
 .text.libgcc.fixed
                0x00000000        0x0 /opt/microchip/xc8/v2.10/avr/bin/../lib/gcc/avr/5.4.0/avrxmega3/libgcc.a(_umulhisi3.o)
 .text          0x00000000        0x0 /opt/microchip/xc8/v2.10/avr/bin/../lib/gcc/avr/5.4.0/avrxmega3/libgcc.a(_usmulhisi3.o)
 .data          0x00000000        0x0 /opt/microchip/xc8/v2.10/avr/bin/../lib/gcc/avr/5.4.0/avrxmega3/libgcc.a(_usmulhisi3.o)
 .bss           0x00000000        0x0 /opt/microchip/xc8/v2.10/avr/bin/../lib/gcc/avr/5.4.0/avrxmega3/libgcc.a(_usmulhisi3.o)
 .text.libgcc.div
                0x00000000        0x0 /opt/microchip/xc8/v2.10/avr/bin/../lib/gcc/avr/5.4.0/avrxmega3/libgcc.a(_usmulhisi3.o)
 .text.libgcc   0x00000000        0x0 /opt/microchip/xc8/v2.10/avr/bin/../lib/gcc/avr/5.4.0/avrxmega3/libgcc.a(_usmulhisi3.o)
 .text.libgcc.prologue
                0x00000000        0x0 /opt/microchip/xc8/v2.10/avr/bin/../lib/gcc/avr/5.4.0/avrxmega3/libgcc.a(_usmulhisi3.o)
 .text.libgcc.builtins
                0x00000000        0x0 /opt/microchip/xc8/v2.10/avr/bin/../lib/gcc/avr/5.4.0/avrxmega3/libgcc.a(_usmulhisi3.o)
 .text.libgcc.fmul
                0x00000000        0x0 /opt/microchip/xc8/v2.10/avr/bin/../lib/gcc/avr/5.4.0/avrxmega3/libgcc.a(_usmulhisi3.o)
 .text.libgcc.fixed
                0x00000000        0x0 /opt/microchip/xc8/v2.10/avr/bin/../lib/gcc/avr/5.4.0/avrxmega3/libgcc.a(_usmulhisi3.o)
 .text          0x00000000        0x0 /opt/microchip/xc8/v2.10/avr/bin/../lib/gcc/avr/5.4.0/avrxmega3/libgcc.a(_muluhisi3.o)
 .data          0x00000000        0x0 /opt/microchip/xc8/v2.10/avr/bin/../lib/gcc/avr/5.4.0/avrxmega3/libgcc.a(_muluhisi3.o)
 .bss           0x00000000        0x0 /opt/microchip/xc8/v2.10/avr/bin/../lib/gcc/avr/5.4.0/avrxmega3/libgcc.a(_muluhisi3.o)
 .text.libgcc.div
                0x00000000        0x0 /opt/microchip/xc8/v2.10/avr/bin/../lib/gcc/avr/5.4.0/avrxmega3/libgcc.a(_muluhisi3.o)
 .text.libgcc   0x00000000        0x0 /opt/microchip/xc8/v2.10/avr/bin/../lib/gcc/avr/5.4.0/avrxmega3/libgcc.a(_muluhisi3.o)
 .text.libgcc.prologue
                0x00000000        0x0 /opt/microchip/xc8/v2.10/avr/bin/../lib/gcc/avr/5.4.0/avrxmega3/libgcc.a(_muluhisi3.o)
 .text.libgcc.builtins
                0x00000000        0x0 /opt/microchip/xc8/v2.10/avr/bin/../lib/gcc/avr/5.4.0/avrxmega3/libgcc.a(_muluhisi3.o)
 .text.libgcc.fmul
                0x00000000        0x0 /opt/microchip/xc8/v2.10/avr/bin/../lib/gcc/avr/5.4.0/avrxmega3/libgcc.a(_muluhisi3.o)
 .text.libgcc.fixed
                0x00000000        0x0 /opt/microchip/xc8/v2.10/avr/bin/../lib/gcc/avr/5.4.0/avrxmega3/libgcc.a(_muluhisi3.o)
 .text          0x00000000        0x0 /opt/microchip/xc8/v2.10/avr/bin/../lib/gcc/avr/5.4.0/avrxmega3/libgcc.a(_mulshisi3.o)
 .data          0x00000000        0x0 /opt/microchip/xc8/v2.10/avr/bin/../lib/gcc/avr/5.4.0/avrxmega3/libgcc.a(_mulshisi3.o)
 .bss           0x00000000        0x0 /opt/microchip/xc8/v2.10/avr/bin/../lib/gcc/avr/5.4.0/avrxmega3/libgcc.a(_mulshisi3.o)
 .text.libgcc.mul
                0x00000000       0x10 /opt/microchip/xc8/v2.10/avr/bin/../lib/gcc/avr/5.4.0/avrxmega3/libgcc.a(_mulshisi3.o)
 .text.libgcc.div
                0x00000000        0x0 /opt/microchip/xc8/v2.10/avr/bin/../lib/gcc/avr/5.4.0/avrxmega3/libgcc.a(_mulshisi3.o)
 .text.libgcc   0x00000000        0x0 /opt/microchip/xc8/v2.10/avr/bin/../lib/gcc/avr/5.4.0/avrxmega3/libgcc.a(_mulshisi3.o)
 .text.libgcc.prologue
                0x00000000        0x0 /opt/microchip/xc8/v2.10/avr/bin/../lib/gcc/avr/5.4.0/avrxmega3/libgcc.a(_mulshisi3.o)
 .text.libgcc.builtins
                0x00000000        0x0 /opt/microchip/xc8/v2.10/avr/bin/../lib/gcc/avr/5.4.0/avrxmega3/libgcc.a(_mulshisi3.o)
 .text.libgcc.fmul
                0x00000000        0x0 /opt/microchip/xc8/v2.10/avr/bin/../lib/gcc/avr/5.4.0/avrxmega3/libgcc.a(_mulshisi3.o)
 .text.libgcc.fixed
                0x00000000        0x0 /opt/microchip/xc8/v2.10/avr/bin/../lib/gcc/avr/5.4.0/avrxmega3/libgcc.a(_mulshisi3.o)
 .text          0x00000000        0x0 /opt/microchip/xc8/v2.10/avr/bin/../lib/gcc/avr/5.4.0/../../../../avr/lib/avrxmega3/libc.a(atoi_M.o)
 .data          0x00000000        0x0 /opt/microchip/xc8/v2.10/avr/bin/../lib/gcc/avr/5.4.0/../../../../avr/lib/avrxmega3/libc.a(atoi_M.o)
 .bss           0x00000000        0x0 /opt/microchip/xc8/v2.10/avr/bin/../lib/gcc/avr/5.4.0/../../../../avr/lib/avrxmega3/libc.a(atoi_M.o)
 .text          0x00000000        0x0 /opt/microchip/xc8/v2.10/avr/bin/../lib/gcc/avr/5.4.0/../../../../avr/lib/avrxmega3/libc.a(tolower.o)
 .data          0x00000000        0x0 /opt/microchip/xc8/v2.10/avr/bin/../lib/gcc/avr/5.4.0/../../../../avr/lib/avrxmega3/libc.a(tolower.o)
 .bss           0x00000000        0x0 /opt/microchip/xc8/v2.10/avr/bin/../lib/gcc/avr/5.4.0/../../../../avr/lib/avrxmega3/libc.a(tolower.o)
 .text.avrlibc  0x00000000       0x10 /opt/microchip/xc8/v2.10/avr/bin/../lib/gcc/avr/5.4.0/../../../../avr/lib/avrxmega3/libc.a(tolower.o)
 .text          0x00000000        0x0 /opt/microchip/xc8/v2.10/avr/bin/../lib/gcc/avr/5.4.0/../../../../avr/lib/avrxmega3/libc.a(toupper.o)
 .data          0x00000000        0x0 /opt/microchip/xc8/v2.10/avr/bin/../lib/gcc/avr/5.4.0/../../../../avr/lib/avrxmega3/libc.a(toupper.o)
 .bss           0x00000000        0x0 /opt/microchip/xc8/v2.10/avr/bin/../lib/gcc/avr/5.4.0/../../../../avr/lib/avrxmega3/libc.a(toupper.o)
 .text.avrlibc  0x00000000       0x10 /opt/microchip/xc8/v2.10/avr/bin/../lib/gcc/avr/5.4.0/../../../../avr/lib/avrxmega3/libc.a(toupper.o)
 .text          0x00000000        0x0 /opt/microchip/xc8/v2.10/avr/bin/../lib/gcc/avr/5.4.0/../../../../avr/lib/avrxmega3/libc.a(strtok.o)
 .data          0x00000000        0x0 /opt/microchip/xc8/v2.10/avr/bin/../lib/gcc/avr/5.4.0/../../../../avr/lib/avrxmega3/libc.a(strtok.o)
 .text          0x00000000        0x0 /opt/microchip/xc8/v2.10/avr/bin/../lib/gcc/avr/5.4.0/../../../../avr/lib/avrxmega3/libc.a(memcmp.o)
 .data          0x00000000        0x0 /opt/microchip/xc8/v2.10/avr/bin/../lib/gcc/avr/5.4.0/../../../../avr/lib/avrxmega3/libc.a(memcmp.o)
 .bss           0x00000000        0x0 /opt/microchip/xc8/v2.10/avr/bin/../lib/gcc/avr/5.4.0/../../../../avr/lib/avrxmega3/libc.a(memcmp.o)
 .text          0x00000000        0x0 /opt/microchip/xc8/v2.10/avr/bin/../lib/gcc/avr/5.4.0/../../../../avr/lib/avrxmega3/libc.a(memcpy.o)
 .data          0x00000000        0x0 /opt/microchip/xc8/v2.10/avr/bin/../lib/gcc/avr/5.4.0/../../../../avr/lib/avrxmega3/libc.a(memcpy.o)
 .bss           0x00000000        0x0 /opt/microchip/xc8/v2.10/avr/bin/../lib/gcc/avr/5.4.0/../../../../avr/lib/avrxmega3/libc.a(memcpy.o)
 .text          0x00000000        0x0 /opt/microchip/xc8/v2.10/avr/bin/../lib/gcc/avr/5.4.0/../../../../avr/lib/avrxmega3/libc.a(memmove.o)
 .data          0x00000000        0x0 /opt/microchip/xc8/v2.10/avr/bin/../lib/gcc/avr/5.4.0/../../../../avr/lib/avrxmega3/libc.a(memmove.o)
 .bss           0x00000000        0x0 /opt/microchip/xc8/v2.10/avr/bin/../lib/gcc/avr/5.4.0/../../../../avr/lib/avrxmega3/libc.a(memmove.o)
 .text          0x00000000        0x0 /opt/microchip/xc8/v2.10/avr/bin/../lib/gcc/avr/5.4.0/../../../../avr/lib/avrxmega3/libc.a(memset.o)
 .data          0x00000000        0x0 /opt/microchip/xc8/v2.10/avr/bin/../lib/gcc/avr/5.4.0/../../../../avr/lib/avrxmega3/libc.a(memset.o)
 .bss           0x00000000        0x0 /opt/microchip/xc8/v2.10/avr/bin/../lib/gcc/avr/5.4.0/../../../../avr/lib/avrxmega3/libc.a(memset.o)
 .text          0x00000000        0x0 /opt/microchip/xc8/v2.10/avr/bin/../lib/gcc/avr/5.4.0/../../../../avr/lib/avrxmega3/libc.a(strchr.o)
 .data          0x00000000        0x0 /opt/microchip/xc8/v2.10/avr/bin/../lib/gcc/avr/5.4.0/../../../../avr/lib/avrxmega3/libc.a(strchr.o)
 .bss           0x00000000        0x0 /opt/microchip/xc8/v2.10/avr/bin/../lib/gcc/avr/5.4.0/../../../../avr/lib/avrxmega3/libc.a(strchr.o)
 .text          0x00000000        0x0 /opt/microchip/xc8/v2.10/avr/bin/../lib/gcc/avr/5.4.0/../../../../avr/lib/avrxmega3/libc.a(strcmp.o)
 .data          0x00000000        0x0 /opt/microchip/xc8/v2.10/avr/bin/../lib/gcc/avr/5.4.0/../../../../avr/lib/avrxmega3/libc.a(strcmp.o)
 .bss           0x00000000        0x0 /opt/microchip/xc8/v2.10/avr/bin/../lib/gcc/avr/5.4.0/../../../../avr/lib/avrxmega3/libc.a(strcmp.o)
 .text          0x00000000        0x0 /opt/microchip/xc8/v2.10/avr/bin/../lib/gcc/avr/5.4.0/../../../../avr/lib/avrxmega3/libc.a(strcpy.o)
 .data          0x00000000        0x0 /opt/microchip/xc8/v2.10/avr/bin/../lib/gcc/avr/5.4.0/../../../../avr/lib/avrxmega3/libc.a(strcpy.o)
 .bss           0x00000000        0x0 /opt/microchip/xc8/v2.10/avr/bin/../lib/gcc/avr/5.4.0/../../../../avr/lib/avrxmega3/libc.a(strcpy.o)
 .text          0x00000000        0x0 /opt/microchip/xc8/v2.10/avr/bin/../lib/gcc/avr/5.4.0/../../../../avr/lib/avrxmega3/libc.a(strncmp.o)
 .data          0x00000000        0x0 /opt/microchip/xc8/v2.10/avr/bin/../lib/gcc/avr/5.4.0/../../../../avr/lib/avrxmega3/libc.a(strncmp.o)
 .bss           0x00000000        0x0 /opt/microchip/xc8/v2.10/avr/bin/../lib/gcc/avr/5.4.0/../../../../avr/lib/avrxmega3/libc.a(strncmp.o)
 .text          0x00000000        0x0 /opt/microchip/xc8/v2.10/avr/bin/../lib/gcc/avr/5.4.0/../../../../avr/lib/avrxmega3/libc.a(strncpy.o)
 .data          0x00000000        0x0 /opt/microchip/xc8/v2.10/avr/bin/../lib/gcc/avr/5.4.0/../../../../avr/lib/avrxmega3/libc.a(strncpy.o)
 .bss           0x00000000        0x0 /opt/microchip/xc8/v2.10/avr/bin/../lib/gcc/avr/5.4.0/../../../../avr/lib/avrxmega3/libc.a(strncpy.o)
 .text          0x00000000        0x0 /opt/microchip/xc8/v2.10/avr/bin/../lib/gcc/avr/5.4.0/../../../../avr/lib/avrxmega3/libc.a(strstr.o)
 .data          0x00000000        0x0 /opt/microchip/xc8/v2.10/avr/bin/../lib/gcc/avr/5.4.0/../../../../avr/lib/avrxmega3/libc.a(strstr.o)
 .bss           0x00000000        0x0 /opt/microchip/xc8/v2.10/avr/bin/../lib/gcc/avr/5.4.0/../../../../avr/lib/avrxmega3/libc.a(strstr.o)
 .text          0x00000000        0x0 /opt/microchip/xc8/v2.10/avr/bin/../lib/gcc/avr/5.4.0/../../../../avr/lib/avrxmega3/libc.a(strtok_r.o)
 .data          0x00000000        0x0 /opt/microchip/xc8/v2.10/avr/bin/../lib/gcc/avr/5.4.0/../../../../avr/lib/avrxmega3/libc.a(strtok_r.o)
 .bss           0x00000000        0x0 /opt/microchip/xc8/v2.10/avr/bin/../lib/gcc/avr/5.4.0/../../../../avr/lib/avrxmega3/libc.a(strtok_r.o)
 .text          0x00000000        0x0 /opt/microchip/xc8/v2.10/avr/bin/../lib/gcc/avr/5.4.0/../../../../avr/lib/avrxmega3/libc.a(mulsi10.o)
 .data          0x00000000        0x0 /opt/microchip/xc8/v2.10/avr/bin/../lib/gcc/avr/5.4.0/../../../../avr/lib/avrxmega3/libc.a(mulsi10.o)
 .bss           0x00000000        0x0 /opt/microchip/xc8/v2.10/avr/bin/../lib/gcc/avr/5.4.0/../../../../avr/lib/avrxmega3/libc.a(mulsi10.o)
 .text          0x00000000        0x0 /opt/microchip/xc8/v2.10/avr/bin/../lib/gcc/avr/5.4.0/../../../../avr/lib/avrxmega3/libc.a(iob.o)
 .data          0x00000000        0x0 /opt/microchip/xc8/v2.10/avr/bin/../lib/gcc/avr/5.4.0/../../../../avr/lib/avrxmega3/libc.a(iob.o)
 .bss           0x00000000        0x0 /opt/microchip/xc8/v2.10/avr/bin/../lib/gcc/avr/5.4.0/../../../../avr/lib/avrxmega3/libc.a(iob.o)
 .text          0x00000000        0x0 /opt/microchip/xc8/v2.10/avr/bin/../lib/gcc/avr/5.4.0/../../../../avr/lib/avrxmega3/libc.a(printf.o)
 .data          0x00000000        0x0 /opt/microchip/xc8/v2.10/avr/bin/../lib/gcc/avr/5.4.0/../../../../avr/lib/avrxmega3/libc.a(printf.o)
 .bss           0x00000000        0x0 /opt/microchip/xc8/v2.10/avr/bin/../lib/gcc/avr/5.4.0/../../../../avr/lib/avrxmega3/libc.a(printf.o)
 .text          0x00000000        0x0 /opt/microchip/xc8/v2.10/avr/bin/../lib/gcc/avr/5.4.0/../../../../avr/lib/avrxmega3/libc.a(snprintf.o)
 .data          0x00000000        0x0 /opt/microchip/xc8/v2.10/avr/bin/../lib/gcc/avr/5.4.0/../../../../avr/lib/avrxmega3/libc.a(snprintf.o)
 .bss           0x00000000        0x0 /opt/microchip/xc8/v2.10/avr/bin/../lib/gcc/avr/5.4.0/../../../../avr/lib/avrxmega3/libc.a(snprintf.o)
 .text          0x00000000        0x0 /opt/microchip/xc8/v2.10/avr/bin/../lib/gcc/avr/5.4.0/../../../../avr/lib/avrxmega3/libc.a(sprintf.o)
 .data          0x00000000        0x0 /opt/microchip/xc8/v2.10/avr/bin/../lib/gcc/avr/5.4.0/../../../../avr/lib/avrxmega3/libc.a(sprintf.o)
 .bss           0x00000000        0x0 /opt/microchip/xc8/v2.10/avr/bin/../lib/gcc/avr/5.4.0/../../../../avr/lib/avrxmega3/libc.a(sprintf.o)
 .text          0x00000000        0x0 /opt/microchip/xc8/v2.10/avr/bin/../lib/gcc/avr/5.4.0/../../../../avr/lib/avrxmega3/libc.a(vprintf.o)
 .data          0x00000000        0x0 /opt/microchip/xc8/v2.10/avr/bin/../lib/gcc/avr/5.4.0/../../../../avr/lib/avrxmega3/libc.a(vprintf.o)
 .bss           0x00000000        0x0 /opt/microchip/xc8/v2.10/avr/bin/../lib/gcc/avr/5.4.0/../../../../avr/lib/avrxmega3/libc.a(vprintf.o)
 .text          0x00000000       0x36 /opt/microchip/xc8/v2.10/avr/bin/../lib/gcc/avr/5.4.0/../../../../avr/lib/avrxmega3/libc.a(ctime.o)
 .data          0x00000000        0x0 /opt/microchip/xc8/v2.10/avr/bin/../lib/gcc/avr/5.4.0/../../../../avr/lib/avrxmega3/libc.a(ctime.o)
 .bss           0x00000000        0x0 /opt/microchip/xc8/v2.10/avr/bin/../lib/gcc/avr/5.4.0/../../../../avr/lib/avrxmega3/libc.a(ctime.o)
 .comment       0x00000000       0x2d /opt/microchip/xc8/v2.10/avr/bin/../lib/gcc/avr/5.4.0/../../../../avr/lib/avrxmega3/libc.a(ctime.o)
 .data          0x00000000        0x0 /opt/microchip/xc8/v2.10/avr/bin/../lib/gcc/avr/5.4.0/../../../../avr/lib/avrxmega3/libc.a(difftime.o)
 .bss           0x00000000        0x0 /opt/microchip/xc8/v2.10/avr/bin/../lib/gcc/avr/5.4.0/../../../../avr/lib/avrxmega3/libc.a(difftime.o)
 .data          0x00000000        0x0 /opt/microchip/xc8/v2.10/avr/bin/../lib/gcc/avr/5.4.0/../../../../avr/lib/avrxmega3/libc.a(localtime_r.o)
 .bss           0x00000000        0x0 /opt/microchip/xc8/v2.10/avr/bin/../lib/gcc/avr/5.4.0/../../../../avr/lib/avrxmega3/libc.a(localtime_r.o)
 .data          0x00000000        0x0 /opt/microchip/xc8/v2.10/avr/bin/../lib/gcc/avr/5.4.0/../../../../avr/lib/avrxmega3/libc.a(mktime.o)
 .bss           0x00000000        0x0 /opt/microchip/xc8/v2.10/avr/bin/../lib/gcc/avr/5.4.0/../../../../avr/lib/avrxmega3/libc.a(mktime.o)
 .data          0x00000000        0x0 /opt/microchip/xc8/v2.10/avr/bin/../lib/gcc/avr/5.4.0/../../../../avr/lib/avrxmega3/libc.a(set_system_time.o)
 .bss           0x00000000        0x0 /opt/microchip/xc8/v2.10/avr/bin/../lib/gcc/avr/5.4.0/../../../../avr/lib/avrxmega3/libc.a(set_system_time.o)
 .text          0x00000000        0x0 /opt/microchip/xc8/v2.10/avr/bin/../lib/gcc/avr/5.4.0/../../../../avr/lib/avrxmega3/libc.a(system_time.o)
 .data          0x00000000        0x0 /opt/microchip/xc8/v2.10/avr/bin/../lib/gcc/avr/5.4.0/../../../../avr/lib/avrxmega3/libc.a(system_time.o)
 .bss           0x00000000        0x0 /opt/microchip/xc8/v2.10/avr/bin/../lib/gcc/avr/5.4.0/../../../../avr/lib/avrxmega3/libc.a(system_time.o)
 .text          0x00000000        0x0 /opt/microchip/xc8/v2.10/avr/bin/../lib/gcc/avr/5.4.0/../../../../avr/lib/avrxmega3/libc.a(utc_offset.o)
 .data          0x00000000        0x0 /opt/microchip/xc8/v2.10/avr/bin/../lib/gcc/avr/5.4.0/../../../../avr/lib/avrxmega3/libc.a(utc_offset.o)
 .bss           0x00000000        0x0 /opt/microchip/xc8/v2.10/avr/bin/../lib/gcc/avr/5.4.0/../../../../avr/lib/avrxmega3/libc.a(utc_offset.o)
 .text          0x00000000        0x0 /opt/microchip/xc8/v2.10/avr/bin/../lib/gcc/avr/5.4.0/../../../../avr/lib/avrxmega3/libc.a(vfprintf_std.o)
 .data          0x00000000        0x0 /opt/microchip/xc8/v2.10/avr/bin/../lib/gcc/avr/5.4.0/../../../../avr/lib/avrxmega3/libc.a(vfprintf_std.o)
 .bss           0x00000000        0x0 /opt/microchip/xc8/v2.10/avr/bin/../lib/gcc/avr/5.4.0/../../../../avr/lib/avrxmega3/libc.a(vfprintf_std.o)
 .text          0x00000000        0x0 /opt/microchip/xc8/v2.10/avr/bin/../lib/gcc/avr/5.4.0/../../../../avr/lib/avrxmega3/libc.a(strnlen_P.o)
 .data          0x00000000        0x0 /opt/microchip/xc8/v2.10/avr/bin/../lib/gcc/avr/5.4.0/../../../../avr/lib/avrxmega3/libc.a(strnlen_P.o)
 .bss           0x00000000        0x0 /opt/microchip/xc8/v2.10/avr/bin/../lib/gcc/avr/5.4.0/../../../../avr/lib/avrxmega3/libc.a(strnlen_P.o)
 .text          0x00000000        0x0 /opt/microchip/xc8/v2.10/avr/bin/../lib/gcc/avr/5.4.0/../../../../avr/lib/avrxmega3/libc.a(strnlen.o)
 .data          0x00000000        0x0 /opt/microchip/xc8/v2.10/avr/bin/../lib/gcc/avr/5.4.0/../../../../avr/lib/avrxmega3/libc.a(strnlen.o)
 .bss           0x00000000        0x0 /opt/microchip/xc8/v2.10/avr/bin/../lib/gcc/avr/5.4.0/../../../../avr/lib/avrxmega3/libc.a(strnlen.o)
 .text          0x00000000        0x0 /opt/microchip/xc8/v2.10/avr/bin/../lib/gcc/avr/5.4.0/../../../../avr/lib/avrxmega3/libc.a(ultoa_invert.o)
 .data          0x00000000        0x0 /opt/microchip/xc8/v2.10/avr/bin/../lib/gcc/avr/5.4.0/../../../../avr/lib/avrxmega3/libc.a(ultoa_invert.o)
 .bss           0x00000000        0x0 /opt/microchip/xc8/v2.10/avr/bin/../lib/gcc/avr/5.4.0/../../../../avr/lib/avrxmega3/libc.a(ultoa_invert.o)
 .text          0x00000000        0x0 /opt/microchip/xc8/v2.10/avr/bin/../lib/gcc/avr/5.4.0/../../../../avr/lib/avrxmega3/libc.a(asc_store.o)
 .data          0x00000000        0x2 /opt/microchip/xc8/v2.10/avr/bin/../lib/gcc/avr/5.4.0/../../../../avr/lib/avrxmega3/libc.a(asc_store.o)
 .bss           0x00000000        0x0 /opt/microchip/xc8/v2.10/avr/bin/../lib/gcc/avr/5.4.0/../../../../avr/lib/avrxmega3/libc.a(asc_store.o)
 .comment       0x00000000       0x2d /opt/microchip/xc8/v2.10/avr/bin/../lib/gcc/avr/5.4.0/../../../../avr/lib/avrxmega3/libc.a(asc_store.o)
 COMMON         0x00000000       0x1a /opt/microchip/xc8/v2.10/avr/bin/../lib/gcc/avr/5.4.0/../../../../avr/lib/avrxmega3/libc.a(asc_store.o)
 .text          0x00000000       0xfc /opt/microchip/xc8/v2.10/avr/bin/../lib/gcc/avr/5.4.0/../../../../avr/lib/avrxmega3/libc.a(asctime_r.o)
 .data          0x00000000        0x0 /opt/microchip/xc8/v2.10/avr/bin/../lib/gcc/avr/5.4.0/../../../../avr/lib/avrxmega3/libc.a(asctime_r.o)
 .bss           0x00000000        0x0 /opt/microchip/xc8/v2.10/avr/bin/../lib/gcc/avr/5.4.0/../../../../avr/lib/avrxmega3/libc.a(asctime_r.o)
 .progmemx.data
                0x00000000       0x3b /opt/microchip/xc8/v2.10/avr/bin/../lib/gcc/avr/5.4.0/../../../../avr/lib/avrxmega3/libc.a(asctime_r.o)
 .comment       0x00000000       0x2d /opt/microchip/xc8/v2.10/avr/bin/../lib/gcc/avr/5.4.0/../../../../avr/lib/avrxmega3/libc.a(asctime_r.o)
 .text          0x00000000        0x0 /opt/microchip/xc8/v2.10/avr/bin/../lib/gcc/avr/5.4.0/../../../../avr/lib/avrxmega3/libc.a(dst_pointer.o)
 .data          0x00000000        0x0 /opt/microchip/xc8/v2.10/avr/bin/../lib/gcc/avr/5.4.0/../../../../avr/lib/avrxmega3/libc.a(dst_pointer.o)
 .bss           0x00000000        0x0 /opt/microchip/xc8/v2.10/avr/bin/../lib/gcc/avr/5.4.0/../../../../avr/lib/avrxmega3/libc.a(dst_pointer.o)
 .data          0x00000000        0x0 /opt/microchip/xc8/v2.10/avr/bin/../lib/gcc/avr/5.4.0/../../../../avr/lib/avrxmega3/libc.a(gmtime_r.o)
 .bss           0x00000000        0x0 /opt/microchip/xc8/v2.10/avr/bin/../lib/gcc/avr/5.4.0/../../../../avr/lib/avrxmega3/libc.a(gmtime_r.o)
 .data          0x00000000        0x0 /opt/microchip/xc8/v2.10/avr/bin/../lib/gcc/avr/5.4.0/../../../../avr/lib/avrxmega3/libc.a(mk_gmtime.o)
 .bss           0x00000000        0x0 /opt/microchip/xc8/v2.10/avr/bin/../lib/gcc/avr/5.4.0/../../../../avr/lib/avrxmega3/libc.a(mk_gmtime.o)
 .text          0x00000000       0x24 /opt/microchip/xc8/v2.10/avr/bin/../lib/gcc/avr/5.4.0/../../../../avr/lib/avrxmega3/libc.a(print_lz.o)
 .data          0x00000000        0x0 /opt/microchip/xc8/v2.10/avr/bin/../lib/gcc/avr/5.4.0/../../../../avr/lib/avrxmega3/libc.a(print_lz.o)
 .bss           0x00000000        0x0 /opt/microchip/xc8/v2.10/avr/bin/../lib/gcc/avr/5.4.0/../../../../avr/lib/avrxmega3/libc.a(print_lz.o)
 .comment       0x00000000       0x2d /opt/microchip/xc8/v2.10/avr/bin/../lib/gcc/avr/5.4.0/../../../../avr/lib/avrxmega3/libc.a(print_lz.o)
 .data          0x00000000        0x0 /opt/microchip/xc8/v2.10/avr/bin/../lib/gcc/avr/5.4.0/../../../../avr/lib/avrxmega3/libc.a(isLeap.o)
 .bss           0x00000000        0x0 /opt/microchip/xc8/v2.10/avr/bin/../lib/gcc/avr/5.4.0/../../../../avr/lib/avrxmega3/libc.a(isLeap.o)
 .text          0x00000000        0x0 /opt/microchip/xc8/v2.10/avr/bin/../lib/gcc/avr/5.4.0/avrxmega3/libgcc.a(_mulsi3.o)
 .data          0x00000000        0x0 /opt/microchip/xc8/v2.10/avr/bin/../lib/gcc/avr/5.4.0/avrxmega3/libgcc.a(_mulsi3.o)
 .bss           0x00000000        0x0 /opt/microchip/xc8/v2.10/avr/bin/../lib/gcc/avr/5.4.0/avrxmega3/libgcc.a(_mulsi3.o)
 .text.libgcc.div
                0x00000000        0x0 /opt/microchip/xc8/v2.10/avr/bin/../lib/gcc/avr/5.4.0/avrxmega3/libgcc.a(_mulsi3.o)
 .text.libgcc   0x00000000        0x0 /opt/microchip/xc8/v2.10/avr/bin/../lib/gcc/avr/5.4.0/avrxmega3/libgcc.a(_mulsi3.o)
 .text.libgcc.prologue
                0x00000000        0x0 /opt/microchip/xc8/v2.10/avr/bin/../lib/gcc/avr/5.4.0/avrxmega3/libgcc.a(_mulsi3.o)
 .text.libgcc.builtins
                0x00000000        0x0 /opt/microchip/xc8/v2.10/avr/bin/../lib/gcc/avr/5.4.0/avrxmega3/libgcc.a(_mulsi3.o)
 .text.libgcc.fmul
                0x00000000        0x0 /opt/microchip/xc8/v2.10/avr/bin/../lib/gcc/avr/5.4.0/avrxmega3/libgcc.a(_mulsi3.o)
 .text.libgcc.fixed
                0x00000000        0x0 /opt/microchip/xc8/v2.10/avr/bin/../lib/gcc/avr/5.4.0/avrxmega3/libgcc.a(_mulsi3.o)
 .text          0x00000000        0x0 /opt/microchip/xc8/v2.10/avr/bin/../lib/gcc/avr/5.4.0/avrxmega3/libgcc.a(_prologue.o)
 .data          0x00000000        0x0 /opt/microchip/xc8/v2.10/avr/bin/../lib/gcc/avr/5.4.0/avrxmega3/libgcc.a(_prologue.o)
 .bss           0x00000000        0x0 /opt/microchip/xc8/v2.10/avr/bin/../lib/gcc/avr/5.4.0/avrxmega3/libgcc.a(_prologue.o)
 .text.libgcc.mul
                0x00000000        0x0 /opt/microchip/xc8/v2.10/avr/bin/../lib/gcc/avr/5.4.0/avrxmega3/libgcc.a(_prologue.o)
 .text.libgcc.div
                0x00000000        0x0 /opt/microchip/xc8/v2.10/avr/bin/../lib/gcc/avr/5.4.0/avrxmega3/libgcc.a(_prologue.o)
 .text.libgcc   0x00000000        0x0 /opt/microchip/xc8/v2.10/avr/bin/../lib/gcc/avr/5.4.0/avrxmega3/libgcc.a(_prologue.o)
 .text.libgcc.builtins
                0x00000000        0x0 /opt/microchip/xc8/v2.10/avr/bin/../lib/gcc/avr/5.4.0/avrxmega3/libgcc.a(_prologue.o)
 .text.libgcc.fmul
                0x00000000        0x0 /opt/microchip/xc8/v2.10/avr/bin/../lib/gcc/avr/5.4.0/avrxmega3/libgcc.a(_prologue.o)
 .text.libgcc.fixed
                0x00000000        0x0 /opt/microchip/xc8/v2.10/avr/bin/../lib/gcc/avr/5.4.0/avrxmega3/libgcc.a(_prologue.o)
 .text          0x00000000        0x0 /opt/microchip/xc8/v2.10/avr/bin/../lib/gcc/avr/5.4.0/avrxmega3/libgcc.a(_epilogue.o)
 .data          0x00000000        0x0 /opt/microchip/xc8/v2.10/avr/bin/../lib/gcc/avr/5.4.0/avrxmega3/libgcc.a(_epilogue.o)
 .bss           0x00000000        0x0 /opt/microchip/xc8/v2.10/avr/bin/../lib/gcc/avr/5.4.0/avrxmega3/libgcc.a(_epilogue.o)
 .text.libgcc.mul
                0x00000000        0x0 /opt/microchip/xc8/v2.10/avr/bin/../lib/gcc/avr/5.4.0/avrxmega3/libgcc.a(_epilogue.o)
 .text.libgcc.div
                0x00000000        0x0 /opt/microchip/xc8/v2.10/avr/bin/../lib/gcc/avr/5.4.0/avrxmega3/libgcc.a(_epilogue.o)
 .text.libgcc   0x00000000        0x0 /opt/microchip/xc8/v2.10/avr/bin/../lib/gcc/avr/5.4.0/avrxmega3/libgcc.a(_epilogue.o)
 .text.libgcc.builtins
                0x00000000        0x0 /opt/microchip/xc8/v2.10/avr/bin/../lib/gcc/avr/5.4.0/avrxmega3/libgcc.a(_epilogue.o)
 .text.libgcc.fmul
                0x00000000        0x0 /opt/microchip/xc8/v2.10/avr/bin/../lib/gcc/avr/5.4.0/avrxmega3/libgcc.a(_epilogue.o)
 .text.libgcc.fixed
                0x00000000        0x0 /opt/microchip/xc8/v2.10/avr/bin/../lib/gcc/avr/5.4.0/avrxmega3/libgcc.a(_epilogue.o)

Memory Configuration

Name             Origin             Length             Attributes
text             0x00000000         0x0000c000         xr
data             0x00802800         0x00001800         rw !x
eeprom           0x00810000         0x00000100         rw !x
fuse             0x00820000         0x00000009         rw !x
lock             0x00830000         0x00000400         rw !x
signature        0x00840000         0x00000400         rw !x
user_signatures  0x00850000         0x00000400         rw !x
*default*        0x00000000         0xffffffff

Linker script and memory map

LOAD dist/GOOGLE_IOT/production/__pa_temp_8961/libgcc_a__negsi2.o
LOAD dist/GOOGLE_IOT/production/__pa_temp_8961/libc_a_puts.o
LOAD dist/GOOGLE_IOT/production/__pa_temp_8961/libc_a_fputc.o
LOAD dist/GOOGLE_IOT/production/__pa_temp_8961/libc_a_atol.o
Address of section .data set to 0x802800
                0x00004000                __RODATA_PM_OFFSET__ = 0x4000
LOAD /opt/microchip/mplabx/v5.30/packs/Microchip/ATmega_DFP/2.0.12/gcc/dev/atmega4808/avrxmega3/crtatmega4808.o
                0x00000001                __MPLAB_BUILD = 0x1
LOAD dist/GOOGLE_IOT/production/__pa_temp_8961/cli.o
LOAD dist/GOOGLE_IOT/production/__pa_temp_8961/crypto_client.o
LOAD dist/GOOGLE_IOT/production/__pa_temp_8961/cloud_service.o
LOAD dist/GOOGLE_IOT/production/__pa_temp_8961/wifi_service.o
LOAD dist/GOOGLE_IOT/production/__pa_temp_8961/mqtt_service.o
LOAD dist/GOOGLE_IOT/production/__pa_temp_8961/google_cloud_service.o
LOAD build/GOOGLE_IOT/production/mcc_generated_files/credentials_storage/credentials_storage.o
LOAD dist/GOOGLE_IOT/production/__pa_temp_8961/atcacert_client.o
LOAD dist/GOOGLE_IOT/production/__pa_temp_8961/atcacert_date.o
LOAD dist/GOOGLE_IOT/production/__pa_temp_8961/atcacert_def.o
LOAD dist/GOOGLE_IOT/production/__pa_temp_8961/atcacert_der.o
LOAD dist/GOOGLE_IOT/production/__pa_temp_8961/atcacert_host_hw.o
LOAD dist/GOOGLE_IOT/production/__pa_temp_8961/atcacert_host_sw.o
LOAD dist/GOOGLE_IOT/production/__pa_temp_8961/atcacert_pem.o
LOAD dist/GOOGLE_IOT/production/__pa_temp_8961/atca_basic.o
LOAD dist/GOOGLE_IOT/production/__pa_temp_8961/atca_basic_checkmac.o
LOAD dist/GOOGLE_IOT/production/__pa_temp_8961/atca_basic_counter.o
LOAD dist/GOOGLE_IOT/production/__pa_temp_8961/atca_basic_derivekey.o
LOAD dist/GOOGLE_IOT/production/__pa_temp_8961/atca_basic_ecdh.o
LOAD dist/GOOGLE_IOT/production/__pa_temp_8961/atca_basic_gendig.o
LOAD dist/GOOGLE_IOT/production/__pa_temp_8961/atca_basic_genkey.o
LOAD dist/GOOGLE_IOT/production/__pa_temp_8961/atca_basic_hmac.o
LOAD dist/GOOGLE_IOT/production/__pa_temp_8961/atca_basic_info.o
LOAD dist/GOOGLE_IOT/production/__pa_temp_8961/atca_basic_kdf.o
LOAD dist/GOOGLE_IOT/production/__pa_temp_8961/atca_basic_lock.o
LOAD dist/GOOGLE_IOT/production/__pa_temp_8961/atca_basic_mac.o
LOAD dist/GOOGLE_IOT/production/__pa_temp_8961/atca_basic_nonce.o
LOAD dist/GOOGLE_IOT/production/__pa_temp_8961/atca_basic_privwrite.o
LOAD dist/GOOGLE_IOT/production/__pa_temp_8961/atca_basic_random.o
LOAD dist/GOOGLE_IOT/production/__pa_temp_8961/atca_basic_read.o
LOAD dist/GOOGLE_IOT/production/__pa_temp_8961/atca_basic_secureboot.o
LOAD dist/GOOGLE_IOT/production/__pa_temp_8961/atca_basic_selftest.o
LOAD dist/GOOGLE_IOT/production/__pa_temp_8961/atca_basic_sha.o
LOAD dist/GOOGLE_IOT/production/__pa_temp_8961/atca_basic_sign.o
LOAD dist/GOOGLE_IOT/production/__pa_temp_8961/atca_basic_updateextra.o
LOAD dist/GOOGLE_IOT/production/__pa_temp_8961/atca_basic_verify.o
LOAD dist/GOOGLE_IOT/production/__pa_temp_8961/atca_basic_write.o
LOAD dist/GOOGLE_IOT/production/__pa_temp_8961/atca_helpers.o
LOAD dist/GOOGLE_IOT/production/__pa_temp_8961/sha1_routines.o
LOAD dist/GOOGLE_IOT/production/__pa_temp_8961/sha2_routines.o
LOAD build/GOOGLE_IOT/production/mcc_generated_files/CryptoAuthenticationLibrary/crypto/atca_crypto_sw_ecdsa.o
LOAD build/GOOGLE_IOT/production/mcc_generated_files/CryptoAuthenticationLibrary/crypto/atca_crypto_sw_rand.o
LOAD dist/GOOGLE_IOT/production/__pa_temp_8961/atca_crypto_sw_sha1.o
LOAD dist/GOOGLE_IOT/production/__pa_temp_8961/atca_crypto_sw_sha2.o
LOAD dist/GOOGLE_IOT/production/__pa_temp_8961/atca_hal.o
LOAD dist/GOOGLE_IOT/production/__pa_temp_8961/atca_i2c_hal.o
LOAD dist/GOOGLE_IOT/production/__pa_temp_8961/hal_i2c_timer.o
LOAD dist/GOOGLE_IOT/production/__pa_temp_8961/atca_host.o
LOAD dist/GOOGLE_IOT/production/__pa_temp_8961/atca_jwt.o
LOAD build/GOOGLE_IOT/production/mcc_generated_files/CryptoAuthenticationLibrary/atca_cfgs.o
LOAD dist/GOOGLE_IOT/production/__pa_temp_8961/atca_command.o
LOAD build/GOOGLE_IOT/production/mcc_generated_files/CryptoAuthenticationLibrary/atca_device.o
LOAD dist/GOOGLE_IOT/production/__pa_temp_8961/atca_execution.o
LOAD dist/GOOGLE_IOT/production/__pa_temp_8961/atca_iface.o
LOAD build/GOOGLE_IOT/production/mcc_generated_files/drivers/spi_master.o
LOAD dist/GOOGLE_IOT/production/__pa_temp_8961/timeout.o
LOAD dist/GOOGLE_IOT/production/__pa_temp_8961/i2c_simple_master.o
LOAD dist/GOOGLE_IOT/production/__pa_temp_8961/mqtt_comm_layer.o
LOAD dist/GOOGLE_IOT/production/__pa_temp_8961/mqtt_core.o
LOAD dist/GOOGLE_IOT/production/__pa_temp_8961/mqtt_exchange_buffer.o
LOAD build/GOOGLE_IOT/production/mcc_generated_files/mqtt/mqtt_packetTransfer_interface.o
LOAD dist/GOOGLE_IOT/production/__pa_temp_8961/mqtt_winc_adapter.o
LOAD dist/GOOGLE_IOT/production/__pa_temp_8961/pin_manager.o
LOAD build/GOOGLE_IOT/production/mcc_generated_files/src/cpuint.o
LOAD build/GOOGLE_IOT/production/mcc_generated_files/src/spi0.o
LOAD build/GOOGLE_IOT/production/mcc_generated_files/src/protected_io.o
LOAD build/GOOGLE_IOT/production/mcc_generated_files/src/rtc.o
LOAD dist/GOOGLE_IOT/production/__pa_temp_8961/twi0_master.o
LOAD build/GOOGLE_IOT/production/mcc_generated_files/src/adc0.o
LOAD build/GOOGLE_IOT/production/mcc_generated_files/src/usart2.o
LOAD dist/GOOGLE_IOT/production/__pa_temp_8961/winc_spi.o
LOAD dist/GOOGLE_IOT/production/__pa_temp_8961/winc_adapter.o
LOAD dist/GOOGLE_IOT/production/__pa_temp_8961/winc_hif.o
LOAD dist/GOOGLE_IOT/production/__pa_temp_8961/winc_asic.o
LOAD dist/GOOGLE_IOT/production/__pa_temp_8961/winc_drv.o
LOAD dist/GOOGLE_IOT/production/__pa_temp_8961/m2m_ssl.o
LOAD dist/GOOGLE_IOT/production/__pa_temp_8961/m2m_wifi.o
LOAD build/GOOGLE_IOT/production/mcc_generated_files/winc/m2m/m2m_periph.o
LOAD dist/GOOGLE_IOT/production/__pa_temp_8961/m2m_ota.o
LOAD dist/GOOGLE_IOT/production/__pa_temp_8961/m2m_fwinfo.o
LOAD build/GOOGLE_IOT/production/mcc_generated_files/winc/m2m/m2m_crypto.o
LOAD dist/GOOGLE_IOT/production/__pa_temp_8961/socket.o
LOAD dist/GOOGLE_IOT/production/__pa_temp_8961/flexible_flash.o
LOAD dist/GOOGLE_IOT/production/__pa_temp_8961/spi_flash.o
LOAD build/GOOGLE_IOT/production/mcc_generated_files/mcc.o
LOAD build/GOOGLE_IOT/production/mcc_generated_files/delay.o
LOAD build/GOOGLE_IOT/production/mcc_generated_files/device_config.o
LOAD dist/GOOGLE_IOT/production/__pa_temp_8961/application_manager.o
LOAD dist/GOOGLE_IOT/production/__pa_temp_8961/debug_print.o
LOAD build/GOOGLE_IOT/production/mcc_generated_files/led.o
LOAD dist/GOOGLE_IOT/production/__pa_temp_8961/sensors_handling.o
LOAD dist/GOOGLE_IOT/production/__pa_temp_8961/time_service.o
LOAD build/GOOGLE_IOT/production/mcc_generated_files/CryptoAuthenticationLibrary/CryptoAuth_init.o
LOAD build/GOOGLE_IOT/production/main.o
START GROUP
LOAD /opt/microchip/xc8/v2.10/avr/bin/../lib/gcc/avr/5.4.0/../../../../avr/lib/avrxmega3/libm.a
END GROUP
START GROUP
LOAD /opt/microchip/xc8/v2.10/avr/bin/../lib/gcc/avr/5.4.0/avrxmega3/libgcc.a
LOAD /opt/microchip/xc8/v2.10/avr/bin/../lib/gcc/avr/5.4.0/../../../../avr/lib/avrxmega3/libm.a
LOAD /opt/microchip/xc8/v2.10/avr/bin/../lib/gcc/avr/5.4.0/../../../../avr/lib/avrxmega3/libc.a
LOAD /opt/microchip/mplabx/v5.30/packs/Microchip/ATmega_DFP/2.0.12/gcc/dev/atmega4808/avrxmega3/libatmega4808.a
END GROUP
                [0x00000000]                __TEXT_REGION_ORIGIN__ = DEFINED (__TEXT_REGION_ORIGIN__)?__TEXT_REGION_ORIGIN__:0x0
                [0x00802800]                __DATA_REGION_ORIGIN__ = DEFINED (__DATA_REGION_ORIGIN__)?__DATA_REGION_ORIGIN__:0x802000
                [0x0000c000]                __TEXT_REGION_LENGTH__ = DEFINED (__TEXT_REGION_LENGTH__)?__TEXT_REGION_LENGTH__:0x100000
                [0x00001800]                __DATA_REGION_LENGTH__ = DEFINED (__DATA_REGION_LENGTH__)?__DATA_REGION_LENGTH__:0xffa0
                [0x00000100]                __EEPROM_REGION_LENGTH__ = DEFINED (__EEPROM_REGION_LENGTH__)?__EEPROM_REGION_LENGTH__:0x10000
                [0x00000009]                __FUSE_REGION_LENGTH__ = DEFINED (__FUSE_REGION_LENGTH__)?__FUSE_REGION_LENGTH__:0x400
                0x00000400                __LOCK_REGION_LENGTH__ = DEFINED (__LOCK_REGION_LENGTH__)?__LOCK_REGION_LENGTH__:0x400
                0x00000400                __SIGNATURE_REGION_LENGTH__ = DEFINED (__SIGNATURE_REGION_LENGTH__)?__SIGNATURE_REGION_LENGTH__:0x400
                0x00000400                __USER_SIGNATURE_REGION_LENGTH__ = DEFINED (__USER_SIGNATURE_REGION_LENGTH__)?__USER_SIGNATURE_REGION_LENGTH__:0x400
                0x00008000                __RODATA_PM_OFFSET__ = DEFINED (__RODATA_PM_OFFSET__)?__RODATA_PM_OFFSET__:0x8000

.hash
 *(.hash)

.dynsym
 *(.dynsym)

.dynstr
 *(.dynstr)

.gnu.version
 *(.gnu.version)

.gnu.version_d
 *(.gnu.version_d)

.gnu.version_r
 *(.gnu.version_r)

.rel.init
 *(.rel.init)

.rela.init
 *(.rela.init)

.rel.text
 *(.rel.text)
 *(.rel.text.*)
 *(.rel.gnu.linkonce.t*)

.rela.text
 *(.rela.text)
 *(.rela.text.*)
 *(.rela.gnu.linkonce.t*)

.rel.fini
 *(.rel.fini)

.rela.fini
 *(.rela.fini)

.rel.rodata
 *(.rel.rodata)
 *(.rel.rodata.*)
 *(.rel.gnu.linkonce.r*)

.rela.rodata
 *(.rela.rodata)
 *(.rela.rodata.*)
 *(.rela.gnu.linkonce.r*)

.rel.data
 *(.rel.data)
 *(.rel.data.*)
 *(.rel.gnu.linkonce.d*)

.rela.data
 *(.rela.data)
 *(.rela.data.*)
 *(.rela.gnu.linkonce.d*)

.rel.ctors
 *(.rel.ctors)

.rela.ctors
 *(.rela.ctors)

.rel.dtors
 *(.rel.dtors)

.rela.dtors
 *(.rela.dtors)

.rel.got
 *(.rel.got)

.rela.got
 *(.rela.got)

.rel.bss
 *(.rel.bss)

.rela.bss
 *(.rela.bss)

.rel.plt
 *(.rel.plt)

.rela.plt
 *(.rela.plt)

.text           0x00000000      0x436
 *(.vectors)
 .vectors       0x00000000       0x90 /opt/microchip/mplabx/v5.30/packs/Microchip/ATmega_DFP/2.0.12/gcc/dev/atmega4808/avrxmega3/crtatmega4808.o
                0x00000000                __vectors
                0x00000000                __vector_default
 *(.vectors)
 *(.progmem.gcc*)
 .progmem.gcc_sw_table.LED_service
                0x00000090       0x40 build/GOOGLE_IOT/production/mcc_generated_files/led.o
 *(.dinit)
 .dinit         0x000000d0      0x312 data_init
                0x000003e2                . = ALIGN (0x2)
                0x000003e2                __trampolines_start = .
 *(.trampolines)
 .trampolines   0x000003e2        0x0 linker stubs
 *(.trampolines*)
                0x000003e2                __trampolines_end = .
 *libprintf_flt.a:*(.progmem.data)
 *libc.a:*(.progmem.data)
                0x000003e2                . = ALIGN (0x2)
 *(.jumptables)
 *(.jumptables*)
 *(.lowtext)
 *(.lowtext*)
                0x000003e2                __ctors_start = .
 *(.ctors)
                0x000003e2                __ctors_end = .
                0x000003e2                __dtors_start = .
 *(.dtors)
                0x000003e2                __dtors_end = .
 SORT(*)(.ctors)
 SORT(*)(.dtors)
 *(.init0)
 .init0         0x000003e2        0x0 /opt/microchip/mplabx/v5.30/packs/Microchip/ATmega_DFP/2.0.12/gcc/dev/atmega4808/avrxmega3/crtatmega4808.o
                0x000003e2                __init
 *(.init0)
 *(.init1)
 *(.init1)
 *(.init2)
 .init2         0x000003e2        0xc /opt/microchip/mplabx/v5.30/packs/Microchip/ATmega_DFP/2.0.12/gcc/dev/atmega4808/avrxmega3/crtatmega4808.o
 *(.init2)
 *(.init3)
 *(.init3)
 *(.init4)
 .init4         0x000003ee       0x3c /opt/microchip/xc8/v2.10/avr/bin/../lib/gcc/avr/5.4.0/avrxmega3/libgcc.a(_copy_data.o)
                0x000003ee                __do_copy_data
                0x0000041c                __do_clear_bss
 *(.init4)
 *(.init5)
 *(.init5)
 *(.init6)
 *(.init6)
 *(.init7)
 *(.init7)
 *(.init8)
 *(.init8)
 *(.init9)
 .init9         0x0000042a        0x8 /opt/microchip/mplabx/v5.30/packs/Microchip/ATmega_DFP/2.0.12/gcc/dev/atmega4808/avrxmega3/crtatmega4808.o
 *(.init9)
                0x00000432                . = ALIGN (0x2)
 *(.fini9)
 .fini9         0x00000432        0x0 /opt/microchip/xc8/v2.10/avr/bin/../lib/gcc/avr/5.4.0/avrxmega3/libgcc.a(_exit.o)
                0x00000432                exit
                0x00000432                _exit
 *(.fini9)
 *(.fini8)
 *(.fini8)
 *(.fini7)
 *(.fini7)
 *(.fini6)
 *(.fini6)
 *(.fini5)
 *(.fini5)
 *(.fini4)
 *(.fini4)
 *(.fini3)
 *(.fini3)
 *(.fini2)
 *(.fini2)
 *(.fini1)
 *(.fini1)
 *(.fini0)
 .fini0         0x00000432        0x4 /opt/microchip/xc8/v2.10/avr/bin/../lib/gcc/avr/5.4.0/avrxmega3/libgcc.a(_exit.o)
 *(.fini0)
                0x00000436                _etext = .

.rodata         0x00804436      0x8d5 load address 0x00000436
 *(.rodata)
 .rodata        0x00804436      0x1fe dist/GOOGLE_IOT/production/__pa_temp_8961/cli.o
 .rodata        0x00804634       0x4d dist/GOOGLE_IOT/production/__pa_temp_8961/crypto_client.o
 .rodata        0x00804681       0x62 dist/GOOGLE_IOT/production/__pa_temp_8961/wifi_service.o
 .rodata        0x008046e3       0x36 dist/GOOGLE_IOT/production/__pa_temp_8961/google_cloud_service.o
 .rodata        0x00804719      0x16b dist/GOOGLE_IOT/production/__pa_temp_8961/atca_helpers.o
 .rodata        0x00804884        0x8 dist/GOOGLE_IOT/production/__pa_temp_8961/atca_hal.o
 .rodata        0x0080488c       0x13 dist/GOOGLE_IOT/production/__pa_temp_8961/atca_jwt.o
 .rodata        0x0080489f       0x7a dist/GOOGLE_IOT/production/__pa_temp_8961/application_manager.o
 .rodata        0x00804919       0xbd dist/GOOGLE_IOT/production/__pa_temp_8961/debug_print.o
 *(.rodata*)
 .rodata.commands
                0x008049d6       0x20 dist/GOOGLE_IOT/production/__pa_temp_8961/cli.o
                0x008049d6                commands
 .rodata.public_key_x509_header
                0x008049f6       0x1b dist/GOOGLE_IOT/production/__pa_temp_8961/crypto_client.o
                0x008049f6                public_key_x509_header
 .rodata.registryId
                0x00804a11        0x8 dist/GOOGLE_IOT/production/__pa_temp_8961/google_cloud_service.o
                0x00804a11                registryId
 .rodata.projectRegion
                0x00804a19        0xc dist/GOOGLE_IOT/production/__pa_temp_8961/google_cloud_service.o
                0x00804a19                projectRegion
 .rodata.projectId
                0x00804a25        0x8 dist/GOOGLE_IOT/production/__pa_temp_8961/google_cloud_service.o
                0x00804a25                projectId
 .rodata.k.1757
                0x00804a2d      0x100 dist/GOOGLE_IOT/production/__pa_temp_8961/sha2_routines.o
 .rodata.hash_init.1789
                0x00804b2d       0x20 dist/GOOGLE_IOT/production/__pa_temp_8961/sha2_routines.o
 .rodata.g_jwt_header
                0x00804b4d       0x1c dist/GOOGLE_IOT/production/__pa_temp_8961/atca_jwt.o
 .rodata.device_execution_time_608_m2
                0x00804b69       0x42 dist/GOOGLE_IOT/production/__pa_temp_8961/atca_execution.o
 .rodata.device_execution_time_608_m1
                0x00804bab       0x42 dist/GOOGLE_IOT/production/__pa_temp_8961/atca_execution.o
 .rodata.device_execution_time_608_m0
                0x00804bed       0x42 dist/GOOGLE_IOT/production/__pa_temp_8961/atca_execution.o
 .rodata.device_execution_time_508
                0x00804c2f       0x3c dist/GOOGLE_IOT/production/__pa_temp_8961/atca_execution.o
 .rodata.device_execution_time_108
                0x00804c6b       0x39 dist/GOOGLE_IOT/production/__pa_temp_8961/atca_execution.o
 .rodata.device_execution_time_204
                0x00804ca4       0x2a dist/GOOGLE_IOT/production/__pa_temp_8961/atca_execution.o
 .rodata.spiMaster
                0x00804cce       0x14 build/GOOGLE_IOT/production/mcc_generated_files/drivers/spi_master.o
                0x00804cce                spiMaster
 .rodata.u8CmdBuf.3402
                0x00804ce2        0x9 dist/GOOGLE_IOT/production/__pa_temp_8961/winc_spi.o
 .rodata.gHifCallbacks
                0x00804ceb        0xe dist/GOOGLE_IOT/production/__pa_temp_8961/winc_hif.o
 .rodata.level_strings
                0x00804cf9        0x8 dist/GOOGLE_IOT/production/__pa_temp_8961/debug_print.o
 .rodata.severity_strings
                0x00804d01        0xa dist/GOOGLE_IOT/production/__pa_temp_8961/debug_print.o
 *(.gnu.linkonce.r*)

.data           0x00802800        0x0 load address 0x00000d0b
                [!provide]                PROVIDE (__data_start, .)
 *(.gnu.linkonce.d*)
                0x00802800                . = ALIGN (0x2)
                0x00802800                _edata = .
                [!provide]                PROVIDE (__data_end, .)

.bss            0x00802800      0x363
                [!provide]                PROVIDE (__bss_start, .)
 *(COMMON)
 COMMON         0x00802800        0x9 dist/GOOGLE_IOT/production/__pa_temp_8961/crypto_client.o
                0x00802800                g_serial_number
 COMMON         0x00802809       0x10 dist/GOOGLE_IOT/production/__pa_temp_8961/cloud_service.o
                0x00802809                cloudStatus
                0x0080280a                mqttBrokerIP
                0x0080280e                shared_networking_params
                0x0080280f                cloud_packetReceiveCallBackTable
 COMMON         0x00802819       0x16 dist/GOOGLE_IOT/production/__pa_temp_8961/wifi_service.o
                0x00802819                prevNTPServerName
                0x0080282d                callback_funcPtr
 COMMON         0x0080282f       0x64 dist/GOOGLE_IOT/production/__pa_temp_8961/mqtt_service.o
                0x0080282f                cid
 COMMON         0x00802893      0x1ea dist/GOOGLE_IOT/production/__pa_temp_8961/google_cloud_service.o
                0x00802893                mqttPassword
                0x00802a5b                imqtt_publishReceiveCallBackTable
                0x00802a5f                deviceId
 COMMON         0x00802a7d       0x54 build/GOOGLE_IOT/production/mcc_generated_files/credentials_storage/credentials_storage.o
                0x00802a7d                ssid
                0x00802a9c                pass
                0x00802abb                ntpServerName
                0x00802acf                authType
 COMMON         0x00802ad1       0x1b dist/GOOGLE_IOT/production/__pa_temp_8961/atca_basic.o
                0x00802ad1                g_atcab_device
                0x00802ad5                g_atcab_iface
                0x00802ae8                g_atcab_command
 COMMON         0x00802aec        0x2 build/GOOGLE_IOT/production/mcc_generated_files/mqtt/mqtt_packetTransfer_interface.o
                0x00802aec                publishRecvCallback
 COMMON         0x00802aee       0x65 dist/GOOGLE_IOT/production/__pa_temp_8961/application_manager.o
                0x00802aee                mqttSubscribeTopic
                0x00802b52                retValCryptoClientSerialNumber
 COMMON         0x00802b53        0x6 /opt/microchip/xc8/v2.10/avr/bin/../lib/gcc/avr/5.4.0/../../../../avr/lib/avrxmega3/libc.a(iob.o)
                0x00802b53                __iob
 COMMON         0x00802b59        0x4 /opt/microchip/xc8/v2.10/avr/bin/../lib/gcc/avr/5.4.0/../../../../avr/lib/avrxmega3/libc.a(system_time.o)
                0x00802b59                __system_time
 COMMON         0x00802b5d        0x4 /opt/microchip/xc8/v2.10/avr/bin/../lib/gcc/avr/5.4.0/../../../../avr/lib/avrxmega3/libc.a(utc_offset.o)
                0x00802b5d                __utc_offset
 COMMON         0x00802b61        0x2 /opt/microchip/xc8/v2.10/avr/bin/../lib/gcc/avr/5.4.0/../../../../avr/lib/avrxmega3/libc.a(dst_pointer.o)
                0x00802b61                __dst_ptr
                [!provide]                PROVIDE (__bss_end, .)
                0x00000d0b                __data_load_start = LOADADDR (.data)
                0x00000d0b                __data_load_end = (__data_load_start + SIZEOF (.data))

.noinit         0x00802b63        0x0
                [!provide]                PROVIDE (__noinit_start, .)
 *(.noinit*)
                [!provide]                PROVIDE (__noinit_end, .)
                0x00802b63                _end = .

.eeprom         0x00810000        0x0
 *(.eeprom*)
                0x00810000                __eeprom_end = .

.fuse           0x00820000        0x9
 *(.fuse)
 .fuse          0x00820000        0x9 build/GOOGLE_IOT/production/mcc_generated_files/device_config.o
                0x00820000                __fuse
 *(.lfuse)
 *(.hfuse)
 *(.efuse)

.lock
 *(.lock*)

.signature
 *(.signature*)

.user_signatures
 *(.user_signatures*)

.stab
 *(.stab)

.stabstr
 *(.stabstr)

.stab.excl
 *(.stab.excl)

.stab.exclstr
 *(.stab.exclstr)

.stab.index
 *(.stab.index)

.stab.indexstr
 *(.stab.indexstr)

.comment        0x00000000       0x5b
 *(.comment)
 .comment       0x00000000       0x2c dist/GOOGLE_IOT/production/__pa_temp_8961/libc_a_puts.o
                                 0x2d (size before relaxing)
 .comment       0x0000002c       0x2d dist/GOOGLE_IOT/production/__pa_temp_8961/libc_a_fputc.o
 .comment       0x0000002c       0x2f dist/GOOGLE_IOT/production/__pa_temp_8961/cli.o
                                 0x30 (size before relaxing)
 .comment       0x0000005b       0x30 dist/GOOGLE_IOT/production/__pa_temp_8961/crypto_client.o
 .comment       0x0000005b       0x30 dist/GOOGLE_IOT/production/__pa_temp_8961/cloud_service.o
 .comment       0x0000005b       0x30 dist/GOOGLE_IOT/production/__pa_temp_8961/wifi_service.o
 .comment       0x0000005b       0x30 dist/GOOGLE_IOT/production/__pa_temp_8961/mqtt_service.o
 .comment       0x0000005b       0x30 dist/GOOGLE_IOT/production/__pa_temp_8961/google_cloud_service.o
 .comment       0x0000005b       0x30 build/GOOGLE_IOT/production/mcc_generated_files/credentials_storage/credentials_storage.o
 .comment       0x0000005b       0x30 dist/GOOGLE_IOT/production/__pa_temp_8961/atcacert_client.o
 .comment       0x0000005b       0x30 dist/GOOGLE_IOT/production/__pa_temp_8961/atcacert_date.o
 .comment       0x0000005b       0x30 dist/GOOGLE_IOT/production/__pa_temp_8961/atcacert_def.o
 .comment       0x0000005b       0x30 dist/GOOGLE_IOT/production/__pa_temp_8961/atca_basic.o
 .comment       0x0000005b       0x30 dist/GOOGLE_IOT/production/__pa_temp_8961/atca_basic_genkey.o
 .comment       0x0000005b       0x30 dist/GOOGLE_IOT/production/__pa_temp_8961/atca_basic_lock.o
 .comment       0x0000005b       0x30 dist/GOOGLE_IOT/production/__pa_temp_8961/atca_basic_nonce.o
 .comment       0x0000005b       0x30 dist/GOOGLE_IOT/production/__pa_temp_8961/atca_basic_random.o
 .comment       0x0000005b       0x30 dist/GOOGLE_IOT/production/__pa_temp_8961/atca_basic_read.o
 .comment       0x0000005b       0x30 dist/GOOGLE_IOT/production/__pa_temp_8961/atca_basic_secureboot.o
 .comment       0x0000005b       0x30 dist/GOOGLE_IOT/production/__pa_temp_8961/atca_basic_sha.o
 .comment       0x0000005b       0x30 dist/GOOGLE_IOT/production/__pa_temp_8961/atca_basic_sign.o
 .comment       0x0000005b       0x30 dist/GOOGLE_IOT/production/__pa_temp_8961/atca_basic_updateextra.o
 .comment       0x0000005b       0x30 dist/GOOGLE_IOT/production/__pa_temp_8961/atca_basic_write.o
 .comment       0x0000005b       0x30 dist/GOOGLE_IOT/production/__pa_temp_8961/atca_helpers.o
 .comment       0x0000005b       0x30 dist/GOOGLE_IOT/production/__pa_temp_8961/sha1_routines.o
 .comment       0x0000005b       0x30 dist/GOOGLE_IOT/production/__pa_temp_8961/sha2_routines.o
 .comment       0x0000005b       0x30 dist/GOOGLE_IOT/production/__pa_temp_8961/atca_crypto_sw_sha2.o
 .comment       0x0000005b       0x30 dist/GOOGLE_IOT/production/__pa_temp_8961/atca_hal.o
 .comment       0x0000005b       0x30 dist/GOOGLE_IOT/production/__pa_temp_8961/atca_i2c_hal.o
 .comment       0x0000005b       0x30 dist/GOOGLE_IOT/production/__pa_temp_8961/hal_i2c_timer.o
 .comment       0x0000005b       0x30 dist/GOOGLE_IOT/production/__pa_temp_8961/atca_jwt.o
 .comment       0x0000005b       0x30 dist/GOOGLE_IOT/production/__pa_temp_8961/atca_command.o
 .comment       0x0000005b       0x30 build/GOOGLE_IOT/production/mcc_generated_files/CryptoAuthenticationLibrary/atca_device.o
 .comment       0x0000005b       0x30 dist/GOOGLE_IOT/production/__pa_temp_8961/atca_execution.o
 .comment       0x0000005b       0x30 dist/GOOGLE_IOT/production/__pa_temp_8961/atca_iface.o
 .comment       0x0000005b       0x30 build/GOOGLE_IOT/production/mcc_generated_files/drivers/spi_master.o
 .comment       0x0000005b       0x30 dist/GOOGLE_IOT/production/__pa_temp_8961/timeout.o
 .comment       0x0000005b       0x30 dist/GOOGLE_IOT/production/__pa_temp_8961/i2c_simple_master.o
 .comment       0x0000005b       0x30 dist/GOOGLE_IOT/production/__pa_temp_8961/mqtt_comm_layer.o
 .comment       0x0000005b       0x30 dist/GOOGLE_IOT/production/__pa_temp_8961/mqtt_core.o
 .comment       0x0000005b       0x30 dist/GOOGLE_IOT/production/__pa_temp_8961/mqtt_exchange_buffer.o
 .comment       0x0000005b       0x30 build/GOOGLE_IOT/production/mcc_generated_files/mqtt/mqtt_packetTransfer_interface.o
 .comment       0x0000005b       0x30 dist/GOOGLE_IOT/production/__pa_temp_8961/mqtt_winc_adapter.o
 .comment       0x0000005b       0x30 dist/GOOGLE_IOT/production/__pa_temp_8961/pin_manager.o
 .comment       0x0000005b       0x30 build/GOOGLE_IOT/production/mcc_generated_files/src/cpuint.o
 .comment       0x0000005b       0x30 build/GOOGLE_IOT/production/mcc_generated_files/src/spi0.o
 .comment       0x0000005b       0x30 build/GOOGLE_IOT/production/mcc_generated_files/src/rtc.o
 .comment       0x0000005b       0x30 dist/GOOGLE_IOT/production/__pa_temp_8961/twi0_master.o
 .comment       0x0000005b       0x30 build/GOOGLE_IOT/production/mcc_generated_files/src/adc0.o
 .comment       0x0000005b       0x30 build/GOOGLE_IOT/production/mcc_generated_files/src/usart2.o
 .comment       0x0000005b       0x30 dist/GOOGLE_IOT/production/__pa_temp_8961/winc_spi.o
 .comment       0x0000005b       0x30 dist/GOOGLE_IOT/production/__pa_temp_8961/winc_adapter.o
 .comment       0x0000005b       0x30 dist/GOOGLE_IOT/production/__pa_temp_8961/winc_hif.o
 .comment       0x0000005b       0x30 dist/GOOGLE_IOT/production/__pa_temp_8961/winc_asic.o
 .comment       0x0000005b       0x30 dist/GOOGLE_IOT/production/__pa_temp_8961/winc_drv.o
 .comment       0x0000005b       0x30 dist/GOOGLE_IOT/production/__pa_temp_8961/m2m_ssl.o
 .comment       0x0000005b       0x30 dist/GOOGLE_IOT/production/__pa_temp_8961/m2m_wifi.o
 .comment       0x0000005b       0x30 dist/GOOGLE_IOT/production/__pa_temp_8961/m2m_ota.o
 .comment       0x0000005b       0x30 dist/GOOGLE_IOT/production/__pa_temp_8961/m2m_fwinfo.o
 .comment       0x0000005b       0x30 dist/GOOGLE_IOT/production/__pa_temp_8961/socket.o
 .comment       0x0000005b       0x30 dist/GOOGLE_IOT/production/__pa_temp_8961/spi_flash.o
 .comment       0x0000005b       0x30 build/GOOGLE_IOT/production/mcc_generated_files/mcc.o
 .comment       0x0000005b       0x30 build/GOOGLE_IOT/production/mcc_generated_files/delay.o
 .comment       0x0000005b       0x30 build/GOOGLE_IOT/production/mcc_generated_files/device_config.o
 .comment       0x0000005b       0x30 dist/GOOGLE_IOT/production/__pa_temp_8961/application_manager.o
 .comment       0x0000005b       0x30 dist/GOOGLE_IOT/production/__pa_temp_8961/debug_print.o
 .comment       0x0000005b       0x30 build/GOOGLE_IOT/production/mcc_generated_files/led.o
 .comment       0x0000005b       0x30 dist/GOOGLE_IOT/production/__pa_temp_8961/sensors_handling.o
 .comment       0x0000005b       0x30 dist/GOOGLE_IOT/production/__pa_temp_8961/time_service.o
 .comment       0x0000005b       0x30 build/GOOGLE_IOT/production/mcc_generated_files/CryptoAuthenticationLibrary/CryptoAuth_init.o
 .comment       0x0000005b       0x30 build/GOOGLE_IOT/production/main.o
 .comment       0x0000005b       0x2d /opt/microchip/xc8/v2.10/avr/bin/../lib/gcc/avr/5.4.0/../../../../avr/lib/avrxmega3/libc.a(atoi_M.o)
 .comment       0x0000005b       0x2d /opt/microchip/xc8/v2.10/avr/bin/../lib/gcc/avr/5.4.0/../../../../avr/lib/avrxmega3/libc.a(strtok.o)
 .comment       0x0000005b       0x2d /opt/microchip/xc8/v2.10/avr/bin/../lib/gcc/avr/5.4.0/../../../../avr/lib/avrxmega3/libc.a(iob.o)
 .comment       0x0000005b       0x2d /opt/microchip/xc8/v2.10/avr/bin/../lib/gcc/avr/5.4.0/../../../../avr/lib/avrxmega3/libc.a(printf.o)
 .comment       0x0000005b       0x2d /opt/microchip/xc8/v2.10/avr/bin/../lib/gcc/avr/5.4.0/../../../../avr/lib/avrxmega3/libc.a(snprintf.o)
 .comment       0x0000005b       0x2d /opt/microchip/xc8/v2.10/avr/bin/../lib/gcc/avr/5.4.0/../../../../avr/lib/avrxmega3/libc.a(sprintf.o)
 .comment       0x0000005b       0x2d /opt/microchip/xc8/v2.10/avr/bin/../lib/gcc/avr/5.4.0/../../../../avr/lib/avrxmega3/libc.a(vprintf.o)
 .comment       0x0000005b       0x2d /opt/microchip/xc8/v2.10/avr/bin/../lib/gcc/avr/5.4.0/../../../../avr/lib/avrxmega3/libc.a(difftime.o)
 .comment       0x0000005b       0x2d /opt/microchip/xc8/v2.10/avr/bin/../lib/gcc/avr/5.4.0/../../../../avr/lib/avrxmega3/libc.a(localtime_r.o)
 .comment       0x0000005b       0x2d /opt/microchip/xc8/v2.10/avr/bin/../lib/gcc/avr/5.4.0/../../../../avr/lib/avrxmega3/libc.a(mktime.o)
 .comment       0x0000005b       0x2d /opt/microchip/xc8/v2.10/avr/bin/../lib/gcc/avr/5.4.0/../../../../avr/lib/avrxmega3/libc.a(set_system_time.o)
 .comment       0x0000005b       0x2d /opt/microchip/xc8/v2.10/avr/bin/../lib/gcc/avr/5.4.0/../../../../avr/lib/avrxmega3/libc.a(system_time.o)
 .comment       0x0000005b       0x2d /opt/microchip/xc8/v2.10/avr/bin/../lib/gcc/avr/5.4.0/../../../../avr/lib/avrxmega3/libc.a(utc_offset.o)
 .comment       0x0000005b       0x2d /opt/microchip/xc8/v2.10/avr/bin/../lib/gcc/avr/5.4.0/../../../../avr/lib/avrxmega3/libc.a(vfprintf_std.o)
 .comment       0x0000005b       0x2d /opt/microchip/xc8/v2.10/avr/bin/../lib/gcc/avr/5.4.0/../../../../avr/lib/avrxmega3/libc.a(dst_pointer.o)
 .comment       0x0000005b       0x2d /opt/microchip/xc8/v2.10/avr/bin/../lib/gcc/avr/5.4.0/../../../../avr/lib/avrxmega3/libc.a(gmtime_r.o)
 .comment       0x0000005b       0x2d /opt/microchip/xc8/v2.10/avr/bin/../lib/gcc/avr/5.4.0/../../../../avr/lib/avrxmega3/libc.a(mk_gmtime.o)
 .comment       0x0000005b       0x2d /opt/microchip/xc8/v2.10/avr/bin/../lib/gcc/avr/5.4.0/../../../../avr/lib/avrxmega3/libc.a(isLeap.o)

.note.gnu.build-id
 *(.note.gnu.build-id)

.debug
 *(.debug)

.line
 *(.line)

.debug_srcinfo
 *(.debug_srcinfo)

.debug_sfnames
 *(.debug_sfnames)

.debug_aranges  0x00000000     0x1dd0
 *(.debug_aranges)
 .debug_aranges
                0x00000000       0x70 dist/GOOGLE_IOT/production/__pa_temp_8961/cli.o
 .debug_aranges
                0x00000070       0x30 dist/GOOGLE_IOT/production/__pa_temp_8961/crypto_client.o
 .debug_aranges
                0x000000a0       0x70 dist/GOOGLE_IOT/production/__pa_temp_8961/cloud_service.o
 .debug_aranges
                0x00000110       0x68 dist/GOOGLE_IOT/production/__pa_temp_8961/wifi_service.o
 .debug_aranges
                0x00000178       0x50 dist/GOOGLE_IOT/production/__pa_temp_8961/mqtt_service.o
 .debug_aranges
                0x000001c8       0x58 dist/GOOGLE_IOT/production/__pa_temp_8961/google_cloud_service.o
 .debug_aranges
                0x00000220       0x20 build/GOOGLE_IOT/production/mcc_generated_files/credentials_storage/credentials_storage.o
 .debug_aranges
                0x00000240       0x48 dist/GOOGLE_IOT/production/__pa_temp_8961/atcacert_client.o
 .debug_aranges
                0x00000288       0xb0 dist/GOOGLE_IOT/production/__pa_temp_8961/atcacert_date.o
 .debug_aranges
                0x00000338      0x158 dist/GOOGLE_IOT/production/__pa_temp_8961/atcacert_def.o
 .debug_aranges
                0x00000490       0x80 dist/GOOGLE_IOT/production/__pa_temp_8961/atca_basic.o
 .debug_aranges
                0x00000510       0x30 dist/GOOGLE_IOT/production/__pa_temp_8961/atca_basic_genkey.o
 .debug_aranges
                0x00000540       0x48 dist/GOOGLE_IOT/production/__pa_temp_8961/atca_basic_lock.o
 .debug_aranges
                0x00000588       0x38 dist/GOOGLE_IOT/production/__pa_temp_8961/atca_basic_nonce.o
 .debug_aranges
                0x000005c0       0x20 dist/GOOGLE_IOT/production/__pa_temp_8961/atca_basic_random.o
 .debug_aranges
                0x000005e0       0x68 dist/GOOGLE_IOT/production/__pa_temp_8961/atca_basic_read.o
 .debug_aranges
                0x00000648       0x28 dist/GOOGLE_IOT/production/__pa_temp_8961/atca_basic_secureboot.o
 .debug_aranges
                0x00000670       0x90 dist/GOOGLE_IOT/production/__pa_temp_8961/atca_basic_sha.o
 .debug_aranges
                0x00000700       0x30 dist/GOOGLE_IOT/production/__pa_temp_8961/atca_basic_sign.o
 .debug_aranges
                0x00000730       0x20 dist/GOOGLE_IOT/production/__pa_temp_8961/atca_basic_updateextra.o
 .debug_aranges
                0x00000750       0x50 dist/GOOGLE_IOT/production/__pa_temp_8961/atca_basic_write.o
 .debug_aranges
                0x000007a0       0xe0 dist/GOOGLE_IOT/production/__pa_temp_8961/atca_helpers.o
 .debug_aranges
                0x00000880       0x40 dist/GOOGLE_IOT/production/__pa_temp_8961/sha1_routines.o
 .debug_aranges
                0x000008c0       0x40 dist/GOOGLE_IOT/production/__pa_temp_8961/sha2_routines.o
 .debug_aranges
                0x00000900       0x38 dist/GOOGLE_IOT/production/__pa_temp_8961/atca_crypto_sw_sha2.o
 .debug_aranges
                0x00000938       0x30 dist/GOOGLE_IOT/production/__pa_temp_8961/atca_hal.o
 .debug_aranges
                0x00000968       0x60 dist/GOOGLE_IOT/production/__pa_temp_8961/atca_i2c_hal.o
 .debug_aranges
                0x000009c8       0x28 dist/GOOGLE_IOT/production/__pa_temp_8961/hal_i2c_timer.o
 .debug_aranges
                0x000009f0       0x48 dist/GOOGLE_IOT/production/__pa_temp_8961/atca_jwt.o
 .debug_aranges
                0x00000a38      0x110 dist/GOOGLE_IOT/production/__pa_temp_8961/atca_command.o
 .debug_aranges
                0x00000b48       0x38 build/GOOGLE_IOT/production/mcc_generated_files/CryptoAuthenticationLibrary/atca_device.o
 .debug_aranges
                0x00000b80       0x28 dist/GOOGLE_IOT/production/__pa_temp_8961/atca_execution.o
 .debug_aranges
                0x00000ba8       0x70 dist/GOOGLE_IOT/production/__pa_temp_8961/atca_iface.o
 .debug_aranges
                0x00000c18       0x28 build/GOOGLE_IOT/production/mcc_generated_files/drivers/spi_master.o
 .debug_aranges
                0x00000c40       0xc0 dist/GOOGLE_IOT/production/__pa_temp_8961/timeout.o
 .debug_aranges
                0x00000d00       0x78 dist/GOOGLE_IOT/production/__pa_temp_8961/i2c_simple_master.o
 .debug_aranges
                0x00000d78       0x48 dist/GOOGLE_IOT/production/__pa_temp_8961/mqtt_comm_layer.o
 .debug_aranges
                0x00000dc0       0xb0 dist/GOOGLE_IOT/production/__pa_temp_8961/mqtt_core.o
 .debug_aranges
                0x00000e70       0x38 dist/GOOGLE_IOT/production/__pa_temp_8961/mqtt_exchange_buffer.o
 .debug_aranges
                0x00000ea8       0x28 build/GOOGLE_IOT/production/mcc_generated_files/mqtt/mqtt_packetTransfer_interface.o
 .debug_aranges
                0x00000ed0       0xc8 dist/GOOGLE_IOT/production/__pa_temp_8961/mqtt_winc_adapter.o
 .debug_aranges
                0x00000f98       0xd0 dist/GOOGLE_IOT/production/__pa_temp_8961/pin_manager.o
 .debug_aranges
                0x00001068       0x20 build/GOOGLE_IOT/production/mcc_generated_files/src/cpuint.o
 .debug_aranges
                0x00001088       0x90 build/GOOGLE_IOT/production/mcc_generated_files/src/spi0.o
 .debug_aranges
                0x00001118       0x20 build/GOOGLE_IOT/production/mcc_generated_files/src/protected_io.o
 .debug_aranges
                0x00001138       0x90 build/GOOGLE_IOT/production/mcc_generated_files/src/rtc.o
 .debug_aranges
                0x000011c8      0x1e0 dist/GOOGLE_IOT/production/__pa_temp_8961/twi0_master.o
 .debug_aranges
                0x000013a8       0xa8 build/GOOGLE_IOT/production/mcc_generated_files/src/adc0.o
 .debug_aranges
                0x00001450       0xc0 build/GOOGLE_IOT/production/mcc_generated_files/src/usart2.o
 .debug_aranges
                0x00001510       0x98 dist/GOOGLE_IOT/production/__pa_temp_8961/winc_spi.o
 .debug_aranges
                0x000015a8       0x78 dist/GOOGLE_IOT/production/__pa_temp_8961/winc_adapter.o
 .debug_aranges
                0x00001620       0x68 dist/GOOGLE_IOT/production/__pa_temp_8961/winc_hif.o
 .debug_aranges
                0x00001688       0x68 dist/GOOGLE_IOT/production/__pa_temp_8961/winc_asic.o
 .debug_aranges
                0x000016f0       0x30 dist/GOOGLE_IOT/production/__pa_temp_8961/winc_drv.o
 .debug_aranges
                0x00001720       0x60 dist/GOOGLE_IOT/production/__pa_temp_8961/m2m_ssl.o
 .debug_aranges
                0x00001780      0x240 dist/GOOGLE_IOT/production/__pa_temp_8961/m2m_wifi.o
 .debug_aranges
                0x000019c0       0x88 dist/GOOGLE_IOT/production/__pa_temp_8961/m2m_ota.o
 .debug_aranges
                0x00001a48       0x28 dist/GOOGLE_IOT/production/__pa_temp_8961/m2m_fwinfo.o
 .debug_aranges
                0x00001a70       0xc8 dist/GOOGLE_IOT/production/__pa_temp_8961/socket.o
 .debug_aranges
                0x00001b38       0x60 dist/GOOGLE_IOT/production/__pa_temp_8961/spi_flash.o
 .debug_aranges
                0x00001b98       0x50 build/GOOGLE_IOT/production/mcc_generated_files/mcc.o
 .debug_aranges
                0x00001be8       0x28 build/GOOGLE_IOT/production/mcc_generated_files/delay.o
 .debug_aranges
                0x00001c10       0x18 build/GOOGLE_IOT/production/mcc_generated_files/device_config.o
 .debug_aranges
                0x00001c28       0x48 dist/GOOGLE_IOT/production/__pa_temp_8961/application_manager.o
 .debug_aranges
                0x00001c70       0x38 dist/GOOGLE_IOT/production/__pa_temp_8961/debug_print.o
 .debug_aranges
                0x00001ca8       0x50 build/GOOGLE_IOT/production/mcc_generated_files/led.o
 .debug_aranges
                0x00001cf8       0x28 dist/GOOGLE_IOT/production/__pa_temp_8961/sensors_handling.o
 .debug_aranges
                0x00001d20       0x70 dist/GOOGLE_IOT/production/__pa_temp_8961/time_service.o
 .debug_aranges
                0x00001d90       0x20 build/GOOGLE_IOT/production/mcc_generated_files/CryptoAuthenticationLibrary/CryptoAuth_init.o
 .debug_aranges
                0x00001db0       0x20 build/GOOGLE_IOT/production/main.o

.debug_pubnames
 *(.debug_pubnames)

.debug_info     0x00000000    0x4a411
 *(.debug_info .gnu.linkonce.wi.*)
 .debug_info    0x00000000     0x229c /opt/microchip/mplabx/v5.30/packs/Microchip/ATmega_DFP/2.0.12/gcc/dev/atmega4808/avrxmega3/crtatmega4808.o
 .debug_info    0x0000229c     0x1238 dist/GOOGLE_IOT/production/__pa_temp_8961/cli.o
 .debug_info    0x000034d4      0xe7a dist/GOOGLE_IOT/production/__pa_temp_8961/crypto_client.o
 .debug_info    0x0000434e     0x1897 dist/GOOGLE_IOT/production/__pa_temp_8961/cloud_service.o
 .debug_info    0x00005be5     0x1d7b dist/GOOGLE_IOT/production/__pa_temp_8961/wifi_service.o
 .debug_info    0x00007960      0xd0e dist/GOOGLE_IOT/production/__pa_temp_8961/mqtt_service.o
 .debug_info    0x0000866e     0x1122 dist/GOOGLE_IOT/production/__pa_temp_8961/google_cloud_service.o
 .debug_info    0x00009790      0x331 build/GOOGLE_IOT/production/mcc_generated_files/credentials_storage/credentials_storage.o
 .debug_info    0x00009ac1     0x18d2 dist/GOOGLE_IOT/production/__pa_temp_8961/atcacert_client.o
 .debug_info    0x0000b393     0x1a5d dist/GOOGLE_IOT/production/__pa_temp_8961/atcacert_date.o
 .debug_info    0x0000cdf0     0x4703 dist/GOOGLE_IOT/production/__pa_temp_8961/atcacert_def.o
 .debug_info    0x000114f3     0x1218 dist/GOOGLE_IOT/production/__pa_temp_8961/atca_basic.o
 .debug_info    0x0001270b      0xe82 dist/GOOGLE_IOT/production/__pa_temp_8961/atca_basic_genkey.o
 .debug_info    0x0001358d      0xeca dist/GOOGLE_IOT/production/__pa_temp_8961/atca_basic_lock.o
 .debug_info    0x00014457      0xefc dist/GOOGLE_IOT/production/__pa_temp_8961/atca_basic_nonce.o
 .debug_info    0x00015353      0xd1c dist/GOOGLE_IOT/production/__pa_temp_8961/atca_basic_random.o
 .debug_info    0x0001606f     0x1b3d dist/GOOGLE_IOT/production/__pa_temp_8961/atca_basic_read.o
 .debug_info    0x00017bac     0x1317 dist/GOOGLE_IOT/production/__pa_temp_8961/atca_basic_secureboot.o
 .debug_info    0x00018ec3     0x19df dist/GOOGLE_IOT/production/__pa_temp_8961/atca_basic_sha.o
 .debug_info    0x0001a8a2      0xf41 dist/GOOGLE_IOT/production/__pa_temp_8961/atca_basic_sign.o
 .debug_info    0x0001b7e3      0xd35 dist/GOOGLE_IOT/production/__pa_temp_8961/atca_basic_updateextra.o
 .debug_info    0x0001c518     0x19c5 dist/GOOGLE_IOT/production/__pa_temp_8961/atca_basic_write.o
 .debug_info    0x0001dedd     0x1998 dist/GOOGLE_IOT/production/__pa_temp_8961/atca_helpers.o
 .debug_info    0x0001f875      0x6b3 dist/GOOGLE_IOT/production/__pa_temp_8961/sha1_routines.o
 .debug_info    0x0001ff28      0x82c dist/GOOGLE_IOT/production/__pa_temp_8961/sha2_routines.o
 .debug_info    0x00020754      0x947 dist/GOOGLE_IOT/production/__pa_temp_8961/atca_crypto_sw_sha2.o
 .debug_info    0x0002109b      0xd6a dist/GOOGLE_IOT/production/__pa_temp_8961/atca_hal.o
 .debug_info    0x00021e05      0xfcd dist/GOOGLE_IOT/production/__pa_temp_8961/atca_i2c_hal.o
 .debug_info    0x00022dd2      0x3c1 dist/GOOGLE_IOT/production/__pa_temp_8961/hal_i2c_timer.o
 .debug_info    0x00023193      0xc0b dist/GOOGLE_IOT/production/__pa_temp_8961/atca_jwt.o
 .debug_info    0x00023d9e     0x1284 dist/GOOGLE_IOT/production/__pa_temp_8961/atca_command.o
 .debug_info    0x00025022      0xcf8 build/GOOGLE_IOT/production/mcc_generated_files/CryptoAuthenticationLibrary/atca_device.o
 .debug_info    0x00025d1a     0x1006 dist/GOOGLE_IOT/production/__pa_temp_8961/atca_execution.o
 .debug_info    0x00026d20      0xfec dist/GOOGLE_IOT/production/__pa_temp_8961/atca_iface.o
 .debug_info    0x00027d0c      0x4df build/GOOGLE_IOT/production/mcc_generated_files/drivers/spi_master.o
 .debug_info    0x000281eb      0xd72 dist/GOOGLE_IOT/production/__pa_temp_8961/timeout.o
 .debug_info    0x00028f5d      0xc32 dist/GOOGLE_IOT/production/__pa_temp_8961/i2c_simple_master.o
 .debug_info    0x00029b8f      0x63a dist/GOOGLE_IOT/production/__pa_temp_8961/mqtt_comm_layer.o
 .debug_info    0x0002a1c9     0x30e1 dist/GOOGLE_IOT/production/__pa_temp_8961/mqtt_core.o
 .debug_info    0x0002d2aa      0x4c9 dist/GOOGLE_IOT/production/__pa_temp_8961/mqtt_exchange_buffer.o
 .debug_info    0x0002d773      0x34f build/GOOGLE_IOT/production/mcc_generated_files/mqtt/mqtt_packetTransfer_interface.o
 .debug_info    0x0002dac2     0x2464 dist/GOOGLE_IOT/production/__pa_temp_8961/mqtt_winc_adapter.o
 .debug_info    0x0002ff26     0x11c6 dist/GOOGLE_IOT/production/__pa_temp_8961/pin_manager.o
 .debug_info    0x000310ec      0x3c8 build/GOOGLE_IOT/production/mcc_generated_files/src/cpuint.o
 .debug_info    0x000314b4      0x78b build/GOOGLE_IOT/production/mcc_generated_files/src/spi0.o
 .debug_info    0x00031c3f       0x95 build/GOOGLE_IOT/production/mcc_generated_files/src/protected_io.o
 .debug_info    0x00031cd4      0x89e build/GOOGLE_IOT/production/mcc_generated_files/src/rtc.o
 .debug_info    0x00032572     0x1978 dist/GOOGLE_IOT/production/__pa_temp_8961/twi0_master.o
 .debug_info    0x00033eea      0xb12 build/GOOGLE_IOT/production/mcc_generated_files/src/adc0.o
 .debug_info    0x000349fc      0xb0c build/GOOGLE_IOT/production/mcc_generated_files/src/usart2.o
 .debug_info    0x00035508      0xe36 dist/GOOGLE_IOT/production/__pa_temp_8961/winc_spi.o
 .debug_info    0x0003633e      0xb2b dist/GOOGLE_IOT/production/__pa_temp_8961/winc_adapter.o
 .debug_info    0x00036e69      0xb49 dist/GOOGLE_IOT/production/__pa_temp_8961/winc_hif.o
 .debug_info    0x000379b2      0xddc dist/GOOGLE_IOT/production/__pa_temp_8961/winc_asic.o
 .debug_info    0x0003878e      0x552 dist/GOOGLE_IOT/production/__pa_temp_8961/winc_drv.o
 .debug_info    0x00038ce0      0xfe3 dist/GOOGLE_IOT/production/__pa_temp_8961/m2m_ssl.o
 .debug_info    0x00039cc3     0x5ab4 dist/GOOGLE_IOT/production/__pa_temp_8961/m2m_wifi.o
 .debug_info    0x0003f777     0x18ea dist/GOOGLE_IOT/production/__pa_temp_8961/m2m_ota.o
 .debug_info    0x00041061      0x65b dist/GOOGLE_IOT/production/__pa_temp_8961/m2m_fwinfo.o
 .debug_info    0x000416bc     0x248d dist/GOOGLE_IOT/production/__pa_temp_8961/socket.o
 .debug_info    0x00043b49     0x14ea dist/GOOGLE_IOT/production/__pa_temp_8961/spi_flash.o
 .debug_info    0x00045033      0xa55 build/GOOGLE_IOT/production/mcc_generated_files/mcc.o
 .debug_info    0x00045a88      0x3fa build/GOOGLE_IOT/production/mcc_generated_files/delay.o
 .debug_info    0x00045e82      0x7dc build/GOOGLE_IOT/production/mcc_generated_files/device_config.o
 .debug_info    0x0004665e     0x12fe dist/GOOGLE_IOT/production/__pa_temp_8961/application_manager.o
 .debug_info    0x0004795c      0x65b dist/GOOGLE_IOT/production/__pa_temp_8961/debug_print.o
 .debug_info    0x00047fb7      0xa30 build/GOOGLE_IOT/production/mcc_generated_files/led.o
 .debug_info    0x000489e7      0x338 dist/GOOGLE_IOT/production/__pa_temp_8961/sensors_handling.o
 .debug_info    0x00048d1f      0x871 dist/GOOGLE_IOT/production/__pa_temp_8961/time_service.o
 .debug_info    0x00049590      0xc9d build/GOOGLE_IOT/production/mcc_generated_files/CryptoAuthenticationLibrary/CryptoAuth_init.o
 .debug_info    0x0004a22d      0x1e4 build/GOOGLE_IOT/production/main.o

.debug_abbrev   0x00000000     0xaba7
 *(.debug_abbrev)
 .debug_abbrev  0x00000000     0x20c2 /opt/microchip/mplabx/v5.30/packs/Microchip/ATmega_DFP/2.0.12/gcc/dev/atmega4808/avrxmega3/crtatmega4808.o
 .debug_abbrev  0x000020c2      0x41f dist/GOOGLE_IOT/production/__pa_temp_8961/cli.o
 .debug_abbrev  0x000024e1      0x17c dist/GOOGLE_IOT/production/__pa_temp_8961/crypto_client.o
 .debug_abbrev  0x0000265d      0x408 dist/GOOGLE_IOT/production/__pa_temp_8961/cloud_service.o
 .debug_abbrev  0x00002a65      0x2fa dist/GOOGLE_IOT/production/__pa_temp_8961/wifi_service.o
 .debug_abbrev  0x00002d5f      0x2a3 dist/GOOGLE_IOT/production/__pa_temp_8961/mqtt_service.o
 .debug_abbrev  0x00003002      0x2a0 dist/GOOGLE_IOT/production/__pa_temp_8961/google_cloud_service.o
 .debug_abbrev  0x000032a2       0x5c build/GOOGLE_IOT/production/mcc_generated_files/credentials_storage/credentials_storage.o
 .debug_abbrev  0x000032fe      0x285 dist/GOOGLE_IOT/production/__pa_temp_8961/atcacert_client.o
 .debug_abbrev  0x00003583      0x324 dist/GOOGLE_IOT/production/__pa_temp_8961/atcacert_date.o
 .debug_abbrev  0x000038a7      0x3a9 dist/GOOGLE_IOT/production/__pa_temp_8961/atcacert_def.o
 .debug_abbrev  0x00003c50      0x23b dist/GOOGLE_IOT/production/__pa_temp_8961/atca_basic.o
 .debug_abbrev  0x00003e8b      0x18a dist/GOOGLE_IOT/production/__pa_temp_8961/atca_basic_genkey.o
 .debug_abbrev  0x00004015      0x187 dist/GOOGLE_IOT/production/__pa_temp_8961/atca_basic_lock.o
 .debug_abbrev  0x0000419c      0x18e dist/GOOGLE_IOT/production/__pa_temp_8961/atca_basic_nonce.o
 .debug_abbrev  0x0000432a      0x158 dist/GOOGLE_IOT/production/__pa_temp_8961/atca_basic_random.o
 .debug_abbrev  0x00004482      0x35d dist/GOOGLE_IOT/production/__pa_temp_8961/atca_basic_read.o
 .debug_abbrev  0x000047df      0x1d2 dist/GOOGLE_IOT/production/__pa_temp_8961/atca_basic_secureboot.o
 .debug_abbrev  0x000049b1      0x2cb dist/GOOGLE_IOT/production/__pa_temp_8961/atca_basic_sha.o
 .debug_abbrev  0x00004c7c      0x1c7 dist/GOOGLE_IOT/production/__pa_temp_8961/atca_basic_sign.o
 .debug_abbrev  0x00004e43      0x158 dist/GOOGLE_IOT/production/__pa_temp_8961/atca_basic_updateextra.o
 .debug_abbrev  0x00004f9b      0x336 dist/GOOGLE_IOT/production/__pa_temp_8961/atca_basic_write.o
 .debug_abbrev  0x000052d1      0x309 dist/GOOGLE_IOT/production/__pa_temp_8961/atca_helpers.o
 .debug_abbrev  0x000055da       0xf4 dist/GOOGLE_IOT/production/__pa_temp_8961/sha1_routines.o
 .debug_abbrev  0x000056ce      0x159 dist/GOOGLE_IOT/production/__pa_temp_8961/sha2_routines.o
 .debug_abbrev  0x00005827      0x174 dist/GOOGLE_IOT/production/__pa_temp_8961/atca_crypto_sw_sha2.o
 .debug_abbrev  0x0000599b      0x1aa dist/GOOGLE_IOT/production/__pa_temp_8961/atca_hal.o
 .debug_abbrev  0x00005b45      0x1cd dist/GOOGLE_IOT/production/__pa_temp_8961/atca_i2c_hal.o
 .debug_abbrev  0x00005d12      0x10d dist/GOOGLE_IOT/production/__pa_temp_8961/hal_i2c_timer.o
 .debug_abbrev  0x00005e1f      0x221 dist/GOOGLE_IOT/production/__pa_temp_8961/atca_jwt.o
 .debug_abbrev  0x00006040      0x1ab dist/GOOGLE_IOT/production/__pa_temp_8961/atca_command.o
 .debug_abbrev  0x000061eb      0x147 build/GOOGLE_IOT/production/mcc_generated_files/CryptoAuthenticationLibrary/atca_device.o
 .debug_abbrev  0x00006332      0x1b5 dist/GOOGLE_IOT/production/__pa_temp_8961/atca_execution.o
 .debug_abbrev  0x000064e7      0x204 dist/GOOGLE_IOT/production/__pa_temp_8961/atca_iface.o
 .debug_abbrev  0x000066eb      0x12c build/GOOGLE_IOT/production/mcc_generated_files/drivers/spi_master.o
 .debug_abbrev  0x00006817      0x2f5 dist/GOOGLE_IOT/production/__pa_temp_8961/timeout.o
 .debug_abbrev  0x00006b0c      0x14e dist/GOOGLE_IOT/production/__pa_temp_8961/i2c_simple_master.o
 .debug_abbrev  0x00006c5a      0x16a dist/GOOGLE_IOT/production/__pa_temp_8961/mqtt_comm_layer.o
 .debug_abbrev  0x00006dc4      0x36a dist/GOOGLE_IOT/production/__pa_temp_8961/mqtt_core.o
 .debug_abbrev  0x0000712e       0xee dist/GOOGLE_IOT/production/__pa_temp_8961/mqtt_exchange_buffer.o
 .debug_abbrev  0x0000721c       0x9b build/GOOGLE_IOT/production/mcc_generated_files/mqtt/mqtt_packetTransfer_interface.o
 .debug_abbrev  0x000072b7      0x3ba dist/GOOGLE_IOT/production/__pa_temp_8961/mqtt_winc_adapter.o
 .debug_abbrev  0x00007671      0x1a7 dist/GOOGLE_IOT/production/__pa_temp_8961/pin_manager.o
 .debug_abbrev  0x00007818       0xfa build/GOOGLE_IOT/production/mcc_generated_files/src/cpuint.o
 .debug_abbrev  0x00007912      0x1f3 build/GOOGLE_IOT/production/mcc_generated_files/src/spi0.o
 .debug_abbrev  0x00007b05       0x14 build/GOOGLE_IOT/production/mcc_generated_files/src/protected_io.o
 .debug_abbrev  0x00007b19      0x152 build/GOOGLE_IOT/production/mcc_generated_files/src/rtc.o
 .debug_abbrev  0x00007c6b      0x3d8 dist/GOOGLE_IOT/production/__pa_temp_8961/twi0_master.o
 .debug_abbrev  0x00008043      0x23a build/GOOGLE_IOT/production/mcc_generated_files/src/adc0.o
 .debug_abbrev  0x0000827d      0x305 build/GOOGLE_IOT/production/mcc_generated_files/src/usart2.o
 .debug_abbrev  0x00008582      0x297 dist/GOOGLE_IOT/production/__pa_temp_8961/winc_spi.o
 .debug_abbrev  0x00008819      0x20e dist/GOOGLE_IOT/production/__pa_temp_8961/winc_adapter.o
 .debug_abbrev  0x00008a27      0x20d dist/GOOGLE_IOT/production/__pa_temp_8961/winc_hif.o
 .debug_abbrev  0x00008c34      0x1de dist/GOOGLE_IOT/production/__pa_temp_8961/winc_asic.o
 .debug_abbrev  0x00008e12       0xac dist/GOOGLE_IOT/production/__pa_temp_8961/winc_drv.o
 .debug_abbrev  0x00008ebe      0x244 dist/GOOGLE_IOT/production/__pa_temp_8961/m2m_ssl.o
 .debug_abbrev  0x00009102      0x3c8 dist/GOOGLE_IOT/production/__pa_temp_8961/m2m_wifi.o
 .debug_abbrev  0x000094ca      0x26c dist/GOOGLE_IOT/production/__pa_temp_8961/m2m_ota.o
 .debug_abbrev  0x00009736      0x141 dist/GOOGLE_IOT/production/__pa_temp_8961/m2m_fwinfo.o
 .debug_abbrev  0x00009877      0x358 dist/GOOGLE_IOT/production/__pa_temp_8961/socket.o
 .debug_abbrev  0x00009bcf      0x1d1 dist/GOOGLE_IOT/production/__pa_temp_8961/spi_flash.o
 .debug_abbrev  0x00009da0      0x172 build/GOOGLE_IOT/production/mcc_generated_files/mcc.o
 .debug_abbrev  0x00009f12      0x11e build/GOOGLE_IOT/production/mcc_generated_files/delay.o
 .debug_abbrev  0x0000a030       0x85 build/GOOGLE_IOT/production/mcc_generated_files/device_config.o
 .debug_abbrev  0x0000a0b5      0x31a dist/GOOGLE_IOT/production/__pa_temp_8961/application_manager.o
 .debug_abbrev  0x0000a3cf      0x18e dist/GOOGLE_IOT/production/__pa_temp_8961/debug_print.o
 .debug_abbrev  0x0000a55d      0x21e build/GOOGLE_IOT/production/mcc_generated_files/led.o
 .debug_abbrev  0x0000a77b       0x90 dist/GOOGLE_IOT/production/__pa_temp_8961/sensors_handling.o
 .debug_abbrev  0x0000a80b      0x205 dist/GOOGLE_IOT/production/__pa_temp_8961/time_service.o
 .debug_abbrev  0x0000aa10      0x13a build/GOOGLE_IOT/production/mcc_generated_files/CryptoAuthenticationLibrary/CryptoAuth_init.o
 .debug_abbrev  0x0000ab4a       0x5d build/GOOGLE_IOT/production/main.o

.debug_line     0x00000000    0x1291c
 *(.debug_line .debug_line.* .debug_line_end)
 .debug_line    0x00000000      0x16f /opt/microchip/mplabx/v5.30/packs/Microchip/ATmega_DFP/2.0.12/gcc/dev/atmega4808/avrxmega3/crtatmega4808.o
 .debug_line    0x0000016f      0x63a dist/GOOGLE_IOT/production/__pa_temp_8961/cli.o
 .debug_line    0x000007a9      0x34e dist/GOOGLE_IOT/production/__pa_temp_8961/crypto_client.o
 .debug_line    0x00000af7      0x615 dist/GOOGLE_IOT/production/__pa_temp_8961/cloud_service.o
 .debug_line    0x0000110c      0x56a dist/GOOGLE_IOT/production/__pa_temp_8961/wifi_service.o
 .debug_line    0x00001676      0x2e1 dist/GOOGLE_IOT/production/__pa_temp_8961/mqtt_service.o
 .debug_line    0x00001957      0x47b dist/GOOGLE_IOT/production/__pa_temp_8961/google_cloud_service.o
 .debug_line    0x00001dd2       0x7d build/GOOGLE_IOT/production/mcc_generated_files/credentials_storage/credentials_storage.o
 .debug_line    0x00001e4f      0x53f dist/GOOGLE_IOT/production/__pa_temp_8961/atcacert_client.o
 .debug_line    0x0000238e      0xb7d dist/GOOGLE_IOT/production/__pa_temp_8961/atcacert_date.o
 .debug_line    0x00002f0b     0x14cb dist/GOOGLE_IOT/production/__pa_temp_8961/atcacert_def.o
 .debug_line    0x000043d6      0x492 dist/GOOGLE_IOT/production/__pa_temp_8961/atca_basic.o
 .debug_line    0x00004868      0x1cd dist/GOOGLE_IOT/production/__pa_temp_8961/atca_basic_genkey.o
 .debug_line    0x00004a35      0x1f2 dist/GOOGLE_IOT/production/__pa_temp_8961/atca_basic_lock.o
 .debug_line    0x00004c27      0x231 dist/GOOGLE_IOT/production/__pa_temp_8961/atca_basic_nonce.o
 .debug_line    0x00004e58      0x193 dist/GOOGLE_IOT/production/__pa_temp_8961/atca_basic_random.o
 .debug_line    0x00004feb      0x626 dist/GOOGLE_IOT/production/__pa_temp_8961/atca_basic_read.o
 .debug_line    0x00005611      0x310 dist/GOOGLE_IOT/production/__pa_temp_8961/atca_basic_secureboot.o
 .debug_line    0x00005921      0x574 dist/GOOGLE_IOT/production/__pa_temp_8961/atca_basic_sha.o
 .debug_line    0x00005e95      0x20d dist/GOOGLE_IOT/production/__pa_temp_8961/atca_basic_sign.o
 .debug_line    0x000060a2      0x186 dist/GOOGLE_IOT/production/__pa_temp_8961/atca_basic_updateextra.o
 .debug_line    0x00006228      0x64a dist/GOOGLE_IOT/production/__pa_temp_8961/atca_basic_write.o
 .debug_line    0x00006872      0xa1d dist/GOOGLE_IOT/production/__pa_temp_8961/atca_helpers.o
 .debug_line    0x0000728f      0x332 dist/GOOGLE_IOT/production/__pa_temp_8961/sha1_routines.o
 .debug_line    0x000075c1      0x2dd dist/GOOGLE_IOT/production/__pa_temp_8961/sha2_routines.o
 .debug_line    0x0000789e      0x20b dist/GOOGLE_IOT/production/__pa_temp_8961/atca_crypto_sw_sha2.o
 .debug_line    0x00007aa9      0x1de dist/GOOGLE_IOT/production/__pa_temp_8961/atca_hal.o
 .debug_line    0x00007c87      0x328 dist/GOOGLE_IOT/production/__pa_temp_8961/atca_i2c_hal.o
 .debug_line    0x00007faf      0x12b dist/GOOGLE_IOT/production/__pa_temp_8961/hal_i2c_timer.o
 .debug_line    0x000080da      0x528 dist/GOOGLE_IOT/production/__pa_temp_8961/atca_jwt.o
 .debug_line    0x00008602      0x779 dist/GOOGLE_IOT/production/__pa_temp_8961/atca_command.o
 .debug_line    0x00008d7b      0x199 build/GOOGLE_IOT/production/mcc_generated_files/CryptoAuthenticationLibrary/atca_device.o
 .debug_line    0x00008f14      0x28d dist/GOOGLE_IOT/production/__pa_temp_8961/atca_execution.o
 .debug_line    0x000091a1      0x2c1 dist/GOOGLE_IOT/production/__pa_temp_8961/atca_iface.o
 .debug_line    0x00009462      0x137 build/GOOGLE_IOT/production/mcc_generated_files/drivers/spi_master.o
 .debug_line    0x00009599      0x59b dist/GOOGLE_IOT/production/__pa_temp_8961/timeout.o
 .debug_line    0x00009b34      0x393 dist/GOOGLE_IOT/production/__pa_temp_8961/i2c_simple_master.o
 .debug_line    0x00009ec7      0x276 dist/GOOGLE_IOT/production/__pa_temp_8961/mqtt_comm_layer.o
 .debug_line    0x0000a13d      0xb31 dist/GOOGLE_IOT/production/__pa_temp_8961/mqtt_core.o
 .debug_line    0x0000ac6e      0x1e6 dist/GOOGLE_IOT/production/__pa_temp_8961/mqtt_exchange_buffer.o
 .debug_line    0x0000ae54       0xda build/GOOGLE_IOT/production/mcc_generated_files/mqtt/mqtt_packetTransfer_interface.o
 .debug_line    0x0000af2e      0x769 dist/GOOGLE_IOT/production/__pa_temp_8961/mqtt_winc_adapter.o
 .debug_line    0x0000b697      0x528 dist/GOOGLE_IOT/production/__pa_temp_8961/pin_manager.o
 .debug_line    0x0000bbbf      0x168 build/GOOGLE_IOT/production/mcc_generated_files/src/cpuint.o
 .debug_line    0x0000bd27      0x350 build/GOOGLE_IOT/production/mcc_generated_files/src/spi0.o
 .debug_line    0x0000c077       0x66 build/GOOGLE_IOT/production/mcc_generated_files/src/protected_io.o
 .debug_line    0x0000c0dd      0x2f3 build/GOOGLE_IOT/production/mcc_generated_files/src/rtc.o
 .debug_line    0x0000c3d0      0x9f2 dist/GOOGLE_IOT/production/__pa_temp_8961/twi0_master.o
 .debug_line    0x0000cdc2      0x33e build/GOOGLE_IOT/production/mcc_generated_files/src/adc0.o
 .debug_line    0x0000d100      0x42b build/GOOGLE_IOT/production/mcc_generated_files/src/usart2.o
 .debug_line    0x0000d52b      0x556 dist/GOOGLE_IOT/production/__pa_temp_8961/winc_spi.o
 .debug_line    0x0000da81      0x3be dist/GOOGLE_IOT/production/__pa_temp_8961/winc_adapter.o
 .debug_line    0x0000de3f      0x36d dist/GOOGLE_IOT/production/__pa_temp_8961/winc_hif.o
 .debug_line    0x0000e1ac      0x369 dist/GOOGLE_IOT/production/__pa_temp_8961/winc_asic.o
 .debug_line    0x0000e515      0x1b6 dist/GOOGLE_IOT/production/__pa_temp_8961/winc_drv.o
 .debug_line    0x0000e6cb      0x3f5 dist/GOOGLE_IOT/production/__pa_temp_8961/m2m_ssl.o
 .debug_line    0x0000eac0     0x111e dist/GOOGLE_IOT/production/__pa_temp_8961/m2m_wifi.o
 .debug_line    0x0000fbde      0x517 dist/GOOGLE_IOT/production/__pa_temp_8961/m2m_ota.o
 .debug_line    0x000100f5      0x1d3 dist/GOOGLE_IOT/production/__pa_temp_8961/m2m_fwinfo.o
 .debug_line    0x000102c8      0xd3f dist/GOOGLE_IOT/production/__pa_temp_8961/socket.o
 .debug_line    0x00011007      0x4b7 dist/GOOGLE_IOT/production/__pa_temp_8961/spi_flash.o
 .debug_line    0x000114be      0x346 build/GOOGLE_IOT/production/mcc_generated_files/mcc.o
 .debug_line    0x00011804      0x10f build/GOOGLE_IOT/production/mcc_generated_files/delay.o
 .debug_line    0x00011913       0xcd build/GOOGLE_IOT/production/mcc_generated_files/device_config.o
 .debug_line    0x000119e0      0x548 dist/GOOGLE_IOT/production/__pa_temp_8961/application_manager.o
 .debug_line    0x00011f28      0x15e dist/GOOGLE_IOT/production/__pa_temp_8961/debug_print.o
 .debug_line    0x00012086      0x382 build/GOOGLE_IOT/production/mcc_generated_files/led.o
 .debug_line    0x00012408      0x11c dist/GOOGLE_IOT/production/__pa_temp_8961/sensors_handling.o
 .debug_line    0x00012524      0x222 dist/GOOGLE_IOT/production/__pa_temp_8961/time_service.o
 .debug_line    0x00012746      0x165 build/GOOGLE_IOT/production/mcc_generated_files/CryptoAuthenticationLibrary/CryptoAuth_init.o
 .debug_line    0x000128ab       0x71 build/GOOGLE_IOT/production/main.o

.debug_frame    0x00000000     0x67fc
 *(.debug_frame)
 .debug_frame   0x00000000      0x17c dist/GOOGLE_IOT/production/__pa_temp_8961/cli.o
 .debug_frame   0x0000017c       0xf0 dist/GOOGLE_IOT/production/__pa_temp_8961/crypto_client.o
 .debug_frame   0x0000026c       0xf8 dist/GOOGLE_IOT/production/__pa_temp_8961/cloud_service.o
 .debug_frame   0x00000364      0x118 dist/GOOGLE_IOT/production/__pa_temp_8961/wifi_service.o
 .debug_frame   0x0000047c       0xe8 dist/GOOGLE_IOT/production/__pa_temp_8961/mqtt_service.o
 .debug_frame   0x00000564      0x100 dist/GOOGLE_IOT/production/__pa_temp_8961/google_cloud_service.o
 .debug_frame   0x00000664       0x24 build/GOOGLE_IOT/production/mcc_generated_files/credentials_storage/credentials_storage.o
 .debug_frame   0x00000688      0x1ec dist/GOOGLE_IOT/production/__pa_temp_8961/atcacert_client.o
 .debug_frame   0x00000874      0x364 dist/GOOGLE_IOT/production/__pa_temp_8961/atcacert_date.o
 .debug_frame   0x00000bd8      0xa04 dist/GOOGLE_IOT/production/__pa_temp_8961/atcacert_def.o
 .debug_frame   0x000015dc      0x158 dist/GOOGLE_IOT/production/__pa_temp_8961/atca_basic.o
 .debug_frame   0x00001734       0x64 dist/GOOGLE_IOT/production/__pa_temp_8961/atca_basic_genkey.o
 .debug_frame   0x00001798       0x90 dist/GOOGLE_IOT/production/__pa_temp_8961/atca_basic_lock.o
 .debug_frame   0x00001828       0x90 dist/GOOGLE_IOT/production/__pa_temp_8961/atca_basic_nonce.o
 .debug_frame   0x000018b8       0x40 dist/GOOGLE_IOT/production/__pa_temp_8961/atca_basic_random.o
 .debug_frame   0x000018f8      0x2d4 dist/GOOGLE_IOT/production/__pa_temp_8961/atca_basic_read.o
 .debug_frame   0x00001bcc       0xb8 dist/GOOGLE_IOT/production/__pa_temp_8961/atca_basic_secureboot.o
 .debug_frame   0x00001c84      0x338 dist/GOOGLE_IOT/production/__pa_temp_8961/atca_basic_sha.o
 .debug_frame   0x00001fbc       0x84 dist/GOOGLE_IOT/production/__pa_temp_8961/atca_basic_sign.o
 .debug_frame   0x00002040       0x40 dist/GOOGLE_IOT/production/__pa_temp_8961/atca_basic_updateextra.o
 .debug_frame   0x00002080      0x220 dist/GOOGLE_IOT/production/__pa_temp_8961/atca_basic_write.o
 .debug_frame   0x000022a0      0x434 dist/GOOGLE_IOT/production/__pa_temp_8961/atca_helpers.o
 .debug_frame   0x000026d4      0x178 dist/GOOGLE_IOT/production/__pa_temp_8961/sha1_routines.o
 .debug_frame   0x0000284c      0x190 dist/GOOGLE_IOT/production/__pa_temp_8961/sha2_routines.o
 .debug_frame   0x000029dc       0x84 dist/GOOGLE_IOT/production/__pa_temp_8961/atca_crypto_sw_sha2.o
 .debug_frame   0x00002a60       0x60 dist/GOOGLE_IOT/production/__pa_temp_8961/atca_hal.o
 .debug_frame   0x00002ac0      0x110 dist/GOOGLE_IOT/production/__pa_temp_8961/atca_i2c_hal.o
 .debug_frame   0x00002bd0       0x34 dist/GOOGLE_IOT/production/__pa_temp_8961/hal_i2c_timer.o
 .debug_frame   0x00002c04      0x1c8 dist/GOOGLE_IOT/production/__pa_temp_8961/atca_jwt.o
 .debug_frame   0x00002dcc      0x238 dist/GOOGLE_IOT/production/__pa_temp_8961/atca_command.o
 .debug_frame   0x00003004       0x68 build/GOOGLE_IOT/production/mcc_generated_files/CryptoAuthenticationLibrary/atca_device.o
 .debug_frame   0x0000306c       0x74 dist/GOOGLE_IOT/production/__pa_temp_8961/atca_execution.o
 .debug_frame   0x000030e0      0x110 dist/GOOGLE_IOT/production/__pa_temp_8961/atca_iface.o
 .debug_frame   0x000031f0       0x34 build/GOOGLE_IOT/production/mcc_generated_files/drivers/spi_master.o
 .debug_frame   0x00003224      0x29c dist/GOOGLE_IOT/production/__pa_temp_8961/timeout.o
 .debug_frame   0x000034c0      0x18c dist/GOOGLE_IOT/production/__pa_temp_8961/i2c_simple_master.o
 .debug_frame   0x0000364c       0x90 dist/GOOGLE_IOT/production/__pa_temp_8961/mqtt_comm_layer.o
 .debug_frame   0x000036dc      0x248 dist/GOOGLE_IOT/production/__pa_temp_8961/mqtt_core.o
 .debug_frame   0x00003924       0x94 dist/GOOGLE_IOT/production/__pa_temp_8961/mqtt_exchange_buffer.o
 .debug_frame   0x000039b8       0x34 build/GOOGLE_IOT/production/mcc_generated_files/mqtt/mqtt_packetTransfer_interface.o
 .debug_frame   0x000039ec      0x31c dist/GOOGLE_IOT/production/__pa_temp_8961/mqtt_winc_adapter.o
 .debug_frame   0x00003d08      0x300 dist/GOOGLE_IOT/production/__pa_temp_8961/pin_manager.o
 .debug_frame   0x00004008       0x24 build/GOOGLE_IOT/production/mcc_generated_files/src/cpuint.o
 .debug_frame   0x0000402c      0x114 build/GOOGLE_IOT/production/mcc_generated_files/src/spi0.o
 .debug_frame   0x00004140      0x1b4 build/GOOGLE_IOT/production/mcc_generated_files/src/rtc.o
 .debug_frame   0x000042f4      0x3dc dist/GOOGLE_IOT/production/__pa_temp_8961/twi0_master.o
 .debug_frame   0x000046d0      0x18c build/GOOGLE_IOT/production/mcc_generated_files/src/adc0.o
 .debug_frame   0x0000485c      0x210 build/GOOGLE_IOT/production/mcc_generated_files/src/usart2.o
 .debug_frame   0x00004a6c      0x2ac dist/GOOGLE_IOT/production/__pa_temp_8961/winc_spi.o
 .debug_frame   0x00004d18      0x170 dist/GOOGLE_IOT/production/__pa_temp_8961/winc_adapter.o
 .debug_frame   0x00004e88      0x16c dist/GOOGLE_IOT/production/__pa_temp_8961/winc_hif.o
 .debug_frame   0x00004ff4      0x194 dist/GOOGLE_IOT/production/__pa_temp_8961/winc_asic.o
 .debug_frame   0x00005188       0x58 dist/GOOGLE_IOT/production/__pa_temp_8961/winc_drv.o
 .debug_frame   0x000051e0      0x190 dist/GOOGLE_IOT/production/__pa_temp_8961/m2m_ssl.o
 .debug_frame   0x00005370      0x8a8 dist/GOOGLE_IOT/production/__pa_temp_8961/m2m_wifi.o
 .debug_frame   0x00005c18      0x184 dist/GOOGLE_IOT/production/__pa_temp_8961/m2m_ota.o
 .debug_frame   0x00005d9c       0x54 dist/GOOGLE_IOT/production/__pa_temp_8961/m2m_fwinfo.o
 .debug_frame   0x00005df0      0x350 dist/GOOGLE_IOT/production/__pa_temp_8961/socket.o
 .debug_frame   0x00006140      0x26c dist/GOOGLE_IOT/production/__pa_temp_8961/spi_flash.o
 .debug_frame   0x000063ac       0x94 build/GOOGLE_IOT/production/mcc_generated_files/mcc.o
 .debug_frame   0x00006440       0x34 build/GOOGLE_IOT/production/mcc_generated_files/delay.o
 .debug_frame   0x00006474      0x140 dist/GOOGLE_IOT/production/__pa_temp_8961/application_manager.o
 .debug_frame   0x000065b4       0x64 dist/GOOGLE_IOT/production/__pa_temp_8961/debug_print.o
 .debug_frame   0x00006618       0x84 build/GOOGLE_IOT/production/mcc_generated_files/led.o
 .debug_frame   0x0000669c       0x34 dist/GOOGLE_IOT/production/__pa_temp_8961/sensors_handling.o
 .debug_frame   0x000066d0       0xe4 dist/GOOGLE_IOT/production/__pa_temp_8961/time_service.o
 .debug_frame   0x000067b4       0x24 build/GOOGLE_IOT/production/mcc_generated_files/CryptoAuthenticationLibrary/CryptoAuth_init.o
 .debug_frame   0x000067d8       0x24 build/GOOGLE_IOT/production/main.o

.debug_str      0x00000000     0x3642
 *(.debug_str)
 .debug_str     0x00000000      0xecd /opt/microchip/mplabx/v5.30/packs/Microchip/ATmega_DFP/2.0.12/gcc/dev/atmega4808/avrxmega3/crtatmega4808.o
 .debug_str     0x00000ecd      0x104 dist/GOOGLE_IOT/production/__pa_temp_8961/cli.o
 .debug_str     0x00000fd1       0xb3 dist/GOOGLE_IOT/production/__pa_temp_8961/crypto_client.o
 .debug_str     0x00001084      0x1d3 dist/GOOGLE_IOT/production/__pa_temp_8961/cloud_service.o
 .debug_str     0x00001257      0x1e1 dist/GOOGLE_IOT/production/__pa_temp_8961/wifi_service.o
 .debug_str     0x00001438       0xd9 dist/GOOGLE_IOT/production/__pa_temp_8961/mqtt_service.o
 .debug_str     0x00001511      0x161 dist/GOOGLE_IOT/production/__pa_temp_8961/google_cloud_service.o
 .debug_str     0x00001672        0x0 build/GOOGLE_IOT/production/mcc_generated_files/credentials_storage/credentials_storage.o
 .debug_str     0x00001672      0x19f dist/GOOGLE_IOT/production/__pa_temp_8961/atcacert_client.o
 .debug_str     0x00001811       0x83 dist/GOOGLE_IOT/production/__pa_temp_8961/atcacert_date.o
 .debug_str     0x00001894      0x2d6 dist/GOOGLE_IOT/production/__pa_temp_8961/atcacert_def.o
 .debug_str     0x00001b6a       0x9d dist/GOOGLE_IOT/production/__pa_temp_8961/atca_basic.o
 .debug_str     0x00001c07       0x30 dist/GOOGLE_IOT/production/__pa_temp_8961/atca_basic_genkey.o
 .debug_str     0x00001c37       0x21 dist/GOOGLE_IOT/production/__pa_temp_8961/atca_basic_lock.o
 .debug_str     0x00001c58       0x25 dist/GOOGLE_IOT/production/__pa_temp_8961/atca_basic_nonce.o
 .debug_str     0x00001c7d       0x1e dist/GOOGLE_IOT/production/__pa_temp_8961/atca_basic_random.o
 .debug_str     0x00001c9b       0xc6 dist/GOOGLE_IOT/production/__pa_temp_8961/atca_basic_read.o
 .debug_str     0x00001d61       0xbf dist/GOOGLE_IOT/production/__pa_temp_8961/atca_basic_secureboot.o
 .debug_str     0x00001e20       0x7d dist/GOOGLE_IOT/production/__pa_temp_8961/atca_basic_sha.o
 .debug_str     0x00001e9d       0x4b dist/GOOGLE_IOT/production/__pa_temp_8961/atca_basic_sign.o
 .debug_str     0x00001ee8       0x23 dist/GOOGLE_IOT/production/__pa_temp_8961/atca_basic_updateextra.o
 .debug_str     0x00001f0b       0xd7 dist/GOOGLE_IOT/production/__pa_temp_8961/atca_basic_write.o
 .debug_str     0x00001fe2       0x85 dist/GOOGLE_IOT/production/__pa_temp_8961/atca_helpers.o
 .debug_str     0x00002067        0x0 dist/GOOGLE_IOT/production/__pa_temp_8961/sha1_routines.o
 .debug_str     0x00002067        0xc dist/GOOGLE_IOT/production/__pa_temp_8961/sha2_routines.o
 .debug_str     0x00002073       0x3a dist/GOOGLE_IOT/production/__pa_temp_8961/atca_crypto_sw_sha2.o
 .debug_str     0x000020ad       0x4f dist/GOOGLE_IOT/production/__pa_temp_8961/atca_hal.o
 .debug_str     0x000020fc       0x63 dist/GOOGLE_IOT/production/__pa_temp_8961/atca_i2c_hal.o
 .debug_str     0x0000215f       0x26 dist/GOOGLE_IOT/production/__pa_temp_8961/hal_i2c_timer.o
 .debug_str     0x00002185       0x6a dist/GOOGLE_IOT/production/__pa_temp_8961/atca_jwt.o
 .debug_str     0x000021ef       0x1a dist/GOOGLE_IOT/production/__pa_temp_8961/atca_command.o
 .debug_str     0x00002209       0x2f build/GOOGLE_IOT/production/mcc_generated_files/CryptoAuthenticationLibrary/atca_device.o
 .debug_str     0x00002238       0x5f dist/GOOGLE_IOT/production/__pa_temp_8961/atca_execution.o
 .debug_str     0x00002297       0x7d dist/GOOGLE_IOT/production/__pa_temp_8961/atca_iface.o
 .debug_str     0x00002314       0x17 build/GOOGLE_IOT/production/mcc_generated_files/drivers/spi_master.o
 .debug_str     0x0000232b       0xaa dist/GOOGLE_IOT/production/__pa_temp_8961/timeout.o
 .debug_str     0x000023d5       0x8b dist/GOOGLE_IOT/production/__pa_temp_8961/i2c_simple_master.o
 .debug_str     0x00002460       0x67 dist/GOOGLE_IOT/production/__pa_temp_8961/mqtt_comm_layer.o
 .debug_str     0x000024c7      0x14a dist/GOOGLE_IOT/production/__pa_temp_8961/mqtt_core.o
 .debug_str     0x00002611        0xe dist/GOOGLE_IOT/production/__pa_temp_8961/mqtt_exchange_buffer.o
 .debug_str     0x0000261f        0x0 build/GOOGLE_IOT/production/mcc_generated_files/mqtt/mqtt_packetTransfer_interface.o
 .debug_str     0x0000261f       0x58 dist/GOOGLE_IOT/production/__pa_temp_8961/mqtt_winc_adapter.o
 .debug_str     0x00002677       0x60 dist/GOOGLE_IOT/production/__pa_temp_8961/pin_manager.o
 .debug_str     0x000026d7       0x13 build/GOOGLE_IOT/production/mcc_generated_files/src/cpuint.o
 .debug_str     0x000026ea       0x17 build/GOOGLE_IOT/production/mcc_generated_files/src/spi0.o
 .debug_str     0x00002701        0x9 build/GOOGLE_IOT/production/mcc_generated_files/src/rtc.o
 .debug_str     0x0000270a        0xf dist/GOOGLE_IOT/production/__pa_temp_8961/twi0_master.o
 .debug_str     0x00002719        0x8 build/GOOGLE_IOT/production/mcc_generated_files/src/adc0.o
 .debug_str     0x00002721        0x0 build/GOOGLE_IOT/production/mcc_generated_files/src/usart2.o
 .debug_str     0x00002721       0x72 dist/GOOGLE_IOT/production/__pa_temp_8961/winc_spi.o
 .debug_str     0x00002793       0x3a dist/GOOGLE_IOT/production/__pa_temp_8961/winc_adapter.o
 .debug_str     0x000027cd      0x123 dist/GOOGLE_IOT/production/__pa_temp_8961/winc_hif.o
 .debug_str     0x000028f0       0xdf dist/GOOGLE_IOT/production/__pa_temp_8961/winc_asic.o
 .debug_str     0x000029cf      0x129 dist/GOOGLE_IOT/production/__pa_temp_8961/winc_drv.o
 .debug_str     0x00002af8       0x49 dist/GOOGLE_IOT/production/__pa_temp_8961/m2m_ssl.o
 .debug_str     0x00002b41      0x428 dist/GOOGLE_IOT/production/__pa_temp_8961/m2m_wifi.o
 .debug_str     0x00002f69      0x11b dist/GOOGLE_IOT/production/__pa_temp_8961/m2m_ota.o
 .debug_str     0x00003084       0x2f dist/GOOGLE_IOT/production/__pa_temp_8961/m2m_fwinfo.o
 .debug_str     0x000030b3      0x163 dist/GOOGLE_IOT/production/__pa_temp_8961/socket.o
 .debug_str     0x00003216       0xbd dist/GOOGLE_IOT/production/__pa_temp_8961/spi_flash.o
 .debug_str     0x000032d3      0x126 build/GOOGLE_IOT/production/mcc_generated_files/mcc.o
 .debug_str     0x000033f9       0x26 build/GOOGLE_IOT/production/mcc_generated_files/delay.o
 .debug_str     0x0000341f        0x0 build/GOOGLE_IOT/production/mcc_generated_files/device_config.o
 .debug_str     0x0000341f      0x159 dist/GOOGLE_IOT/production/__pa_temp_8961/application_manager.o
 .debug_str     0x00003578        0x0 dist/GOOGLE_IOT/production/__pa_temp_8961/debug_print.o
 .debug_str     0x00003578       0x2c build/GOOGLE_IOT/production/mcc_generated_files/led.o
 .debug_str     0x000035a4       0x29 dist/GOOGLE_IOT/production/__pa_temp_8961/sensors_handling.o
 .debug_str     0x000035cd       0x37 dist/GOOGLE_IOT/production/__pa_temp_8961/time_service.o
 .debug_str     0x00003604       0x20 build/GOOGLE_IOT/production/mcc_generated_files/CryptoAuthenticationLibrary/CryptoAuth_init.o
 .debug_str     0x00003624       0x1e build/GOOGLE_IOT/production/main.o

.debug_loc      0x00000000    0x1be79
 *(.debug_loc)
 .debug_loc     0x00000000      0x324 dist/GOOGLE_IOT/production/__pa_temp_8961/cli.o
 .debug_loc     0x00000324      0x1f2 dist/GOOGLE_IOT/production/__pa_temp_8961/crypto_client.o
 .debug_loc     0x00000516      0x3ce dist/GOOGLE_IOT/production/__pa_temp_8961/cloud_service.o
 .debug_loc     0x000008e4      0x358 dist/GOOGLE_IOT/production/__pa_temp_8961/wifi_service.o
 .debug_loc     0x00000c3c      0x1a9 dist/GOOGLE_IOT/production/__pa_temp_8961/mqtt_service.o
 .debug_loc     0x00000de5      0x1f9 dist/GOOGLE_IOT/production/__pa_temp_8961/google_cloud_service.o
 .debug_loc     0x00000fde      0x9a5 dist/GOOGLE_IOT/production/__pa_temp_8961/atcacert_client.o
 .debug_loc     0x00001983     0x2745 dist/GOOGLE_IOT/production/__pa_temp_8961/atcacert_date.o
 .debug_loc     0x000040c8     0x4f8c dist/GOOGLE_IOT/production/__pa_temp_8961/atcacert_def.o
 .debug_loc     0x00009054      0x3c0 dist/GOOGLE_IOT/production/__pa_temp_8961/atca_basic.o
 .debug_loc     0x00009414      0x1d8 dist/GOOGLE_IOT/production/__pa_temp_8961/atca_basic_genkey.o
 .debug_loc     0x000095ec      0x136 dist/GOOGLE_IOT/production/__pa_temp_8961/atca_basic_lock.o
 .debug_loc     0x00009722      0x3df dist/GOOGLE_IOT/production/__pa_temp_8961/atca_basic_nonce.o
 .debug_loc     0x00009b01       0x79 dist/GOOGLE_IOT/production/__pa_temp_8961/atca_basic_random.o
 .debug_loc     0x00009b7a      0xd24 dist/GOOGLE_IOT/production/__pa_temp_8961/atca_basic_read.o
 .debug_loc     0x0000a89e      0x33f dist/GOOGLE_IOT/production/__pa_temp_8961/atca_basic_secureboot.o
 .debug_loc     0x0000abdd      0xc4f dist/GOOGLE_IOT/production/__pa_temp_8961/atca_basic_sha.o
 .debug_loc     0x0000b82c      0x37e dist/GOOGLE_IOT/production/__pa_temp_8961/atca_basic_sign.o
 .debug_loc     0x0000bbaa       0xa4 dist/GOOGLE_IOT/production/__pa_temp_8961/atca_basic_updateextra.o
 .debug_loc     0x0000bc4e      0xb9f dist/GOOGLE_IOT/production/__pa_temp_8961/atca_basic_write.o
 .debug_loc     0x0000c7ed     0x1eaf dist/GOOGLE_IOT/production/__pa_temp_8961/atca_helpers.o
 .debug_loc     0x0000e69c      0x854 dist/GOOGLE_IOT/production/__pa_temp_8961/sha1_routines.o
 .debug_loc     0x0000eef0      0xd8b dist/GOOGLE_IOT/production/__pa_temp_8961/sha2_routines.o
 .debug_loc     0x0000fc7b      0x1f4 dist/GOOGLE_IOT/production/__pa_temp_8961/atca_crypto_sw_sha2.o
 .debug_loc     0x0000fe6f      0x12d dist/GOOGLE_IOT/production/__pa_temp_8961/atca_hal.o
 .debug_loc     0x0000ff9c      0x301 dist/GOOGLE_IOT/production/__pa_temp_8961/atca_i2c_hal.o
 .debug_loc     0x0001029d       0xf2 dist/GOOGLE_IOT/production/__pa_temp_8961/hal_i2c_timer.o
 .debug_loc     0x0001038f      0x4e2 dist/GOOGLE_IOT/production/__pa_temp_8961/atca_jwt.o
 .debug_loc     0x00010871      0xad4 dist/GOOGLE_IOT/production/__pa_temp_8961/atca_command.o
 .debug_loc     0x00011345      0x17f build/GOOGLE_IOT/production/mcc_generated_files/CryptoAuthenticationLibrary/atca_device.o
 .debug_loc     0x000114c4      0x1a1 dist/GOOGLE_IOT/production/__pa_temp_8961/atca_execution.o
 .debug_loc     0x00011665      0x3fd dist/GOOGLE_IOT/production/__pa_temp_8961/atca_iface.o
 .debug_loc     0x00011a62       0x3a build/GOOGLE_IOT/production/mcc_generated_files/drivers/spi_master.o
 .debug_loc     0x00011a9c      0x6e6 dist/GOOGLE_IOT/production/__pa_temp_8961/timeout.o
 .debug_loc     0x00012182      0x512 dist/GOOGLE_IOT/production/__pa_temp_8961/i2c_simple_master.o
 .debug_loc     0x00012694      0x123 dist/GOOGLE_IOT/production/__pa_temp_8961/mqtt_comm_layer.o
 .debug_loc     0x000127b7      0x83b dist/GOOGLE_IOT/production/__pa_temp_8961/mqtt_core.o
 .debug_loc     0x00012ff2      0x1f1 dist/GOOGLE_IOT/production/__pa_temp_8961/mqtt_exchange_buffer.o
 .debug_loc     0x000131e3     0x180c dist/GOOGLE_IOT/production/__pa_temp_8961/mqtt_winc_adapter.o
 .debug_loc     0x000149ef       0x78 dist/GOOGLE_IOT/production/__pa_temp_8961/pin_manager.o
 .debug_loc     0x00014a67       0x2a build/GOOGLE_IOT/production/mcc_generated_files/src/cpuint.o
 .debug_loc     0x00014a91      0x215 build/GOOGLE_IOT/production/mcc_generated_files/src/spi0.o
 .debug_loc     0x00014ca6      0x4fc dist/GOOGLE_IOT/production/__pa_temp_8961/twi0_master.o
 .debug_loc     0x000151a2       0xa4 build/GOOGLE_IOT/production/mcc_generated_files/src/adc0.o
 .debug_loc     0x00015246      0x142 build/GOOGLE_IOT/production/mcc_generated_files/src/usart2.o
 .debug_loc     0x00015388      0x93b dist/GOOGLE_IOT/production/__pa_temp_8961/winc_spi.o
 .debug_loc     0x00015cc3      0x18f dist/GOOGLE_IOT/production/__pa_temp_8961/winc_adapter.o
 .debug_loc     0x00015e52      0x3b1 dist/GOOGLE_IOT/production/__pa_temp_8961/winc_hif.o
 .debug_loc     0x00016203      0x1c9 dist/GOOGLE_IOT/production/__pa_temp_8961/winc_asic.o
 .debug_loc     0x000163cc       0x9a dist/GOOGLE_IOT/production/__pa_temp_8961/winc_drv.o
 .debug_loc     0x00016466      0x770 dist/GOOGLE_IOT/production/__pa_temp_8961/m2m_ssl.o
 .debug_loc     0x00016bd6     0x205a dist/GOOGLE_IOT/production/__pa_temp_8961/m2m_wifi.o
 .debug_loc     0x00018c30      0x8c9 dist/GOOGLE_IOT/production/__pa_temp_8961/m2m_ota.o
 .debug_loc     0x000194f9      0x171 dist/GOOGLE_IOT/production/__pa_temp_8961/m2m_fwinfo.o
 .debug_loc     0x0001966a     0x1942 dist/GOOGLE_IOT/production/__pa_temp_8961/socket.o
 .debug_loc     0x0001afac      0x6a9 dist/GOOGLE_IOT/production/__pa_temp_8961/spi_flash.o
 .debug_loc     0x0001b655       0x52 build/GOOGLE_IOT/production/mcc_generated_files/mcc.o
 .debug_loc     0x0001b6a7      0x14a build/GOOGLE_IOT/production/mcc_generated_files/delay.o
 .debug_loc     0x0001b7f1      0x1ec dist/GOOGLE_IOT/production/__pa_temp_8961/application_manager.o
 .debug_loc     0x0001b9dd       0xb8 dist/GOOGLE_IOT/production/__pa_temp_8961/debug_print.o
 .debug_loc     0x0001ba95      0x22e build/GOOGLE_IOT/production/mcc_generated_files/led.o
 .debug_loc     0x0001bcc3       0x59 dist/GOOGLE_IOT/production/__pa_temp_8961/sensors_handling.o
 .debug_loc     0x0001bd1c      0x13f dist/GOOGLE_IOT/production/__pa_temp_8961/time_service.o
 .debug_loc     0x0001be5b       0x1e build/GOOGLE_IOT/production/mcc_generated_files/CryptoAuthenticationLibrary/CryptoAuth_init.o

.debug_macinfo
 *(.debug_macinfo)

.debug_weaknames
 *(.debug_weaknames)

.debug_funcnames
 *(.debug_funcnames)

.debug_typenames
 *(.debug_typenames)

.debug_varnames
 *(.debug_varnames)

.debug_pubtypes
 *(.debug_pubtypes)

.debug_ranges   0x00000000     0x1db8
 *(.debug_ranges)
 .debug_ranges  0x00000000       0x78 dist/GOOGLE_IOT/production/__pa_temp_8961/cli.o
 .debug_ranges  0x00000078       0x20 dist/GOOGLE_IOT/production/__pa_temp_8961/crypto_client.o
 .debug_ranges  0x00000098       0x60 dist/GOOGLE_IOT/production/__pa_temp_8961/cloud_service.o
 .debug_ranges  0x000000f8       0xa0 dist/GOOGLE_IOT/production/__pa_temp_8961/wifi_service.o
 .debug_ranges  0x00000198       0x40 dist/GOOGLE_IOT/production/__pa_temp_8961/mqtt_service.o
 .debug_ranges  0x000001d8       0x48 dist/GOOGLE_IOT/production/__pa_temp_8961/google_cloud_service.o
 .debug_ranges  0x00000220       0x10 build/GOOGLE_IOT/production/mcc_generated_files/credentials_storage/credentials_storage.o
 .debug_ranges  0x00000230       0x88 dist/GOOGLE_IOT/production/__pa_temp_8961/atcacert_client.o
 .debug_ranges  0x000002b8      0x1d8 dist/GOOGLE_IOT/production/__pa_temp_8961/atcacert_date.o
 .debug_ranges  0x00000490      0x208 dist/GOOGLE_IOT/production/__pa_temp_8961/atcacert_def.o
 .debug_ranges  0x00000698       0x70 dist/GOOGLE_IOT/production/__pa_temp_8961/atca_basic.o
 .debug_ranges  0x00000708       0x20 dist/GOOGLE_IOT/production/__pa_temp_8961/atca_basic_genkey.o
 .debug_ranges  0x00000728       0x38 dist/GOOGLE_IOT/production/__pa_temp_8961/atca_basic_lock.o
 .debug_ranges  0x00000760       0x28 dist/GOOGLE_IOT/production/__pa_temp_8961/atca_basic_nonce.o
 .debug_ranges  0x00000788       0x10 dist/GOOGLE_IOT/production/__pa_temp_8961/atca_basic_random.o
 .debug_ranges  0x00000798       0x58 dist/GOOGLE_IOT/production/__pa_temp_8961/atca_basic_read.o
 .debug_ranges  0x000007f0       0x18 dist/GOOGLE_IOT/production/__pa_temp_8961/atca_basic_secureboot.o
 .debug_ranges  0x00000808       0x98 dist/GOOGLE_IOT/production/__pa_temp_8961/atca_basic_sha.o
 .debug_ranges  0x000008a0       0x20 dist/GOOGLE_IOT/production/__pa_temp_8961/atca_basic_sign.o
 .debug_ranges  0x000008c0       0x10 dist/GOOGLE_IOT/production/__pa_temp_8961/atca_basic_updateextra.o
 .debug_ranges  0x000008d0       0x40 dist/GOOGLE_IOT/production/__pa_temp_8961/atca_basic_write.o
 .debug_ranges  0x00000910      0x130 dist/GOOGLE_IOT/production/__pa_temp_8961/atca_helpers.o
 .debug_ranges  0x00000a40       0x30 dist/GOOGLE_IOT/production/__pa_temp_8961/sha1_routines.o
 .debug_ranges  0x00000a70       0x30 dist/GOOGLE_IOT/production/__pa_temp_8961/sha2_routines.o
 .debug_ranges  0x00000aa0       0x28 dist/GOOGLE_IOT/production/__pa_temp_8961/atca_crypto_sw_sha2.o
 .debug_ranges  0x00000ac8       0x20 dist/GOOGLE_IOT/production/__pa_temp_8961/atca_hal.o
 .debug_ranges  0x00000ae8       0x50 dist/GOOGLE_IOT/production/__pa_temp_8961/atca_i2c_hal.o
 .debug_ranges  0x00000b38       0x18 dist/GOOGLE_IOT/production/__pa_temp_8961/hal_i2c_timer.o
 .debug_ranges  0x00000b50       0x38 dist/GOOGLE_IOT/production/__pa_temp_8961/atca_jwt.o
 .debug_ranges  0x00000b88      0x100 dist/GOOGLE_IOT/production/__pa_temp_8961/atca_command.o
 .debug_ranges  0x00000c88       0x28 build/GOOGLE_IOT/production/mcc_generated_files/CryptoAuthenticationLibrary/atca_device.o
 .debug_ranges  0x00000cb0       0x18 dist/GOOGLE_IOT/production/__pa_temp_8961/atca_execution.o
 .debug_ranges  0x00000cc8       0x60 dist/GOOGLE_IOT/production/__pa_temp_8961/atca_iface.o
 .debug_ranges  0x00000d28       0x18 build/GOOGLE_IOT/production/mcc_generated_files/drivers/spi_master.o
 .debug_ranges  0x00000d40       0xe0 dist/GOOGLE_IOT/production/__pa_temp_8961/timeout.o
 .debug_ranges  0x00000e20       0x68 dist/GOOGLE_IOT/production/__pa_temp_8961/i2c_simple_master.o
 .debug_ranges  0x00000e88       0x38 dist/GOOGLE_IOT/production/__pa_temp_8961/mqtt_comm_layer.o
 .debug_ranges  0x00000ec0       0xb8 dist/GOOGLE_IOT/production/__pa_temp_8961/mqtt_core.o
 .debug_ranges  0x00000f78       0x28 dist/GOOGLE_IOT/production/__pa_temp_8961/mqtt_exchange_buffer.o
 .debug_ranges  0x00000fa0       0x18 build/GOOGLE_IOT/production/mcc_generated_files/mqtt/mqtt_packetTransfer_interface.o
 .debug_ranges  0x00000fb8      0x108 dist/GOOGLE_IOT/production/__pa_temp_8961/mqtt_winc_adapter.o
 .debug_ranges  0x000010c0       0xc0 dist/GOOGLE_IOT/production/__pa_temp_8961/pin_manager.o
 .debug_ranges  0x00001180       0x10 build/GOOGLE_IOT/production/mcc_generated_files/src/cpuint.o
 .debug_ranges  0x00001190       0x80 build/GOOGLE_IOT/production/mcc_generated_files/src/spi0.o
 .debug_ranges  0x00001210       0x80 build/GOOGLE_IOT/production/mcc_generated_files/src/rtc.o
 .debug_ranges  0x00001290      0x1d0 dist/GOOGLE_IOT/production/__pa_temp_8961/twi0_master.o
 .debug_ranges  0x00001460       0x98 build/GOOGLE_IOT/production/mcc_generated_files/src/adc0.o
 .debug_ranges  0x000014f8       0xb0 build/GOOGLE_IOT/production/mcc_generated_files/src/usart2.o
 .debug_ranges  0x000015a8       0x88 dist/GOOGLE_IOT/production/__pa_temp_8961/winc_spi.o
 .debug_ranges  0x00001630       0x68 dist/GOOGLE_IOT/production/__pa_temp_8961/winc_adapter.o
 .debug_ranges  0x00001698       0x58 dist/GOOGLE_IOT/production/__pa_temp_8961/winc_hif.o
 .debug_ranges  0x000016f0       0x58 dist/GOOGLE_IOT/production/__pa_temp_8961/winc_asic.o
 .debug_ranges  0x00001748       0x20 dist/GOOGLE_IOT/production/__pa_temp_8961/winc_drv.o
 .debug_ranges  0x00001768       0x50 dist/GOOGLE_IOT/production/__pa_temp_8961/m2m_ssl.o
 .debug_ranges  0x000017b8      0x2a8 dist/GOOGLE_IOT/production/__pa_temp_8961/m2m_wifi.o
 .debug_ranges  0x00001a60       0x78 dist/GOOGLE_IOT/production/__pa_temp_8961/m2m_ota.o
 .debug_ranges  0x00001ad8       0x18 dist/GOOGLE_IOT/production/__pa_temp_8961/m2m_fwinfo.o
 .debug_ranges  0x00001af0       0xd0 dist/GOOGLE_IOT/production/__pa_temp_8961/socket.o
 .debug_ranges  0x00001bc0       0x50 dist/GOOGLE_IOT/production/__pa_temp_8961/spi_flash.o
 .debug_ranges  0x00001c10       0x40 build/GOOGLE_IOT/production/mcc_generated_files/mcc.o
 .debug_ranges  0x00001c50       0x18 build/GOOGLE_IOT/production/mcc_generated_files/delay.o
 .debug_ranges  0x00001c68       0x50 dist/GOOGLE_IOT/production/__pa_temp_8961/application_manager.o
 .debug_ranges  0x00001cb8       0x28 dist/GOOGLE_IOT/production/__pa_temp_8961/debug_print.o
 .debug_ranges  0x00001ce0       0x40 build/GOOGLE_IOT/production/mcc_generated_files/led.o
 .debug_ranges  0x00001d20       0x18 dist/GOOGLE_IOT/production/__pa_temp_8961/sensors_handling.o
 .debug_ranges  0x00001d38       0x60 dist/GOOGLE_IOT/production/__pa_temp_8961/time_service.o
 .debug_ranges  0x00001d98       0x10 build/GOOGLE_IOT/production/mcc_generated_files/CryptoAuthenticationLibrary/CryptoAuth_init.o
 .debug_ranges  0x00001da8       0x10 build/GOOGLE_IOT/production/main.o

.debug_macro
 *(.debug_macro)
OUTPUT(dist/GOOGLE_IOT/production/AVRIoT.X.production.elf elf32-avr)
LOAD linker stubs
LOAD data_init

.note.gnu.avr.deviceinfo
                0x00000000       0x40
 .note.gnu.avr.deviceinfo
                0x00000000       0x40 /opt/microchip/mplabx/v5.30/packs/Microchip/ATmega_DFP/2.0.12/gcc/dev/atmega4808/avrxmega3/crtatmega4808.o

.bss.test.6298  0x00803354        0x1
 .bss.test.6298
                0x00803354        0x1 dist/GOOGLE_IOT/production/__pa_temp_8961/cli.o

.bss.ateccsn    0x00803318        0x2
 .bss.ateccsn   0x00803318        0x2 dist/GOOGLE_IOT/production/__pa_temp_8961/cli.o

.bss.commandTooLongFlag
                0x00803355        0x1
 .bss.commandTooLongFlag
                0x00803355        0x1 dist/GOOGLE_IOT/production/__pa_temp_8961/cli.o

.bss.index      0x00803356        0x1
 .bss.index     0x00803356        0x1 dist/GOOGLE_IOT/production/__pa_temp_8961/cli.o

.bss.command    0x00802fc4       0x64
 .bss.command   0x00802fc4       0x64 dist/GOOGLE_IOT/production/__pa_temp_8961/cli.o

.bss.subscriptionTopicCount.5633
                0x00803357        0x1
 .bss.subscriptionTopicCount.5633
                0x00803357        0x1 dist/GOOGLE_IOT/production/__pa_temp_8961/cloud_service.o

.bss.wifiConnectionStateChangedCallback
                0x0080331a        0x2
 .bss.wifiConnectionStateChangedCallback
                0x0080331a        0x2 dist/GOOGLE_IOT/production/__pa_temp_8961/wifi_service.o
                0x0080331a                wifiConnectionStateChangedCallback

.bss.responseFromProvisionConnect
                0x00803358        0x1
 .bss.responseFromProvisionConnect
                0x00803358        0x1 dist/GOOGLE_IOT/production/__pa_temp_8961/wifi_service.o

.bss.publishRecvInfo
                0x0080331c        0x2
 .bss.publishRecvInfo
                0x0080331c        0x2 dist/GOOGLE_IOT/production/__pa_temp_8961/mqtt_service.o

.bss._gDevice   0x0080331e        0x2
 .bss._gDevice  0x0080331e        0x2 dist/GOOGLE_IOT/production/__pa_temp_8961/atca_basic.o
                0x0080331e                _gDevice

.bss.i2c_address
                0x00803359        0x1
 .bss.i2c_address
                0x00803359        0x1 dist/GOOGLE_IOT/production/__pa_temp_8961/atca_i2c_hal.o
                0x00803359                i2c_address

.bss.isRunning  0x0080335a        0x1
 .bss.isRunning
                0x0080335a        0x1 dist/GOOGLE_IOT/production/__pa_temp_8961/timeout.o
                0x0080335a                isRunning

.bss.lastTimerLoad
                0x008032f0        0x4
 .bss.lastTimerLoad
                0x008032f0        0x4 dist/GOOGLE_IOT/production/__pa_temp_8961/timeout.o
                0x008032f0                lastTimerLoad

.bss.absoluteTimeofLastTimeout
                0x008032f4        0x4
 .bss.absoluteTimeofLastTimeout
                0x008032f4        0x4 dist/GOOGLE_IOT/production/__pa_temp_8961/timeout.o
                0x008032f4                absoluteTimeofLastTimeout

.bss.executeQueueHead
                0x00803320        0x2
 .bss.executeQueueHead
                0x00803320        0x2 dist/GOOGLE_IOT/production/__pa_temp_8961/timeout.o
                0x00803320                executeQueueHead

.bss.listHead   0x00803322        0x2
 .bss.listHead  0x00803322        0x2 dist/GOOGLE_IOT/production/__pa_temp_8961/timeout.o
                0x00803322                listHead

.bss.lastSentSize
                0x00803324        0x2
 .bss.lastSentSize
                0x00803324        0x2 dist/GOOGLE_IOT/production/__pa_temp_8961/mqtt_comm_layer.o

.bss.mqttRxBuff
                0x00802b63      0x190
 .bss.mqttRxBuff
                0x00802b63      0x190 dist/GOOGLE_IOT/production/__pa_temp_8961/mqtt_comm_layer.o

.bss.mqttTxBuff
                0x00802cf3      0x190
 .bss.mqttTxBuff
                0x00802cf3      0x190 dist/GOOGLE_IOT/production/__pa_temp_8961/mqtt_comm_layer.o

.bss.mqttConn   0x008031e9       0x12
 .bss.mqttConn  0x008031e9       0x12 dist/GOOGLE_IOT/production/__pa_temp_8961/mqtt_comm_layer.o

.bss.mqttState  0x0080335c        0x1
 .bss.mqttState
                0x0080335c        0x1 dist/GOOGLE_IOT/production/__pa_temp_8961/mqtt_core.o

.bss.lastReceivedLength
                0x00803326        0x2
 .bss.lastReceivedLength
                0x00803326        0x2 dist/GOOGLE_IOT/production/__pa_temp_8961/mqtt_core.o

.bss.lastReceivedPacketHeader
                0x0080335d        0x1
 .bss.lastReceivedPacketHeader
                0x0080335d        0x1 dist/GOOGLE_IOT/production/__pa_temp_8961/mqtt_core.o

.bss.lastMQTTHandlerState
                0x0080335e        0x1
 .bss.lastMQTTHandlerState
                0x0080335e        0x1 dist/GOOGLE_IOT/production/__pa_temp_8961/mqtt_core.o

.bss.mqttTimeouts
                0x0080335f        0x1
 .bss.mqttTimeouts
                0x0080335f        0x1 dist/GOOGLE_IOT/production/__pa_temp_8961/mqtt_core.o

.bss.txUnsubscribePacket
                0x00803237        0xd
 .bss.txUnsubscribePacket
                0x00803237        0xd dist/GOOGLE_IOT/production/__pa_temp_8961/mqtt_core.o

.bss.txSubscribePacket
                0x0080321b        0xe
 .bss.txSubscribePacket
                0x0080321b        0xe dist/GOOGLE_IOT/production/__pa_temp_8961/mqtt_core.o

.bss.txPublishPacket
                0x0080320b       0x10
 .bss.txPublishPacket
                0x0080320b       0x10 dist/GOOGLE_IOT/production/__pa_temp_8961/mqtt_core.o

.bss.txConnectPacket
                0x0080318f       0x1d
 .bss.txConnectPacket
                0x0080318f       0x1d dist/GOOGLE_IOT/production/__pa_temp_8961/mqtt_core.o

.bss.mqttRxFlags
                0x00803360        0x1
 .bss.mqttRxFlags
                0x00803360        0x1 dist/GOOGLE_IOT/production/__pa_temp_8961/mqtt_core.o

.bss.mqttTxFlags
                0x00803361        0x1
 .bss.mqttTxFlags
                0x00803361        0x1 dist/GOOGLE_IOT/production/__pa_temp_8961/mqtt_core.o

.bss.packetRecvInfo
                0x00803328        0x2
 .bss.packetRecvInfo
                0x00803328        0x2 dist/GOOGLE_IOT/production/__pa_temp_8961/mqtt_winc_adapter.o

.bss.bsdErrorNumber
                0x00803362        0x1
 .bss.bsdErrorNumber
                0x00803362        0x1 dist/GOOGLE_IOT/production/__pa_temp_8961/mqtt_winc_adapter.o

.bss.PORTF_WAKE_InterruptHandler
                0x0080332a        0x2
 .bss.PORTF_WAKE_InterruptHandler
                0x0080332a        0x2 dist/GOOGLE_IOT/production/__pa_temp_8961/pin_manager.o

.bss.PORTF_SW1_InterruptHandler
                0x0080332c        0x2
 .bss.PORTF_SW1_InterruptHandler
                0x0080332c        0x2 dist/GOOGLE_IOT/production/__pa_temp_8961/pin_manager.o

.bss.PORTF_INT_InterruptHandler
                0x0080332e        0x2
 .bss.PORTF_INT_InterruptHandler
                0x0080332e        0x2 dist/GOOGLE_IOT/production/__pa_temp_8961/pin_manager.o

.bss.PORTF_CE_InterruptHandler
                0x00803330        0x2
 .bss.PORTF_CE_InterruptHandler
                0x00803330        0x2 dist/GOOGLE_IOT/production/__pa_temp_8961/pin_manager.o

.bss.PORTF_PF0_InterruptHandler
                0x00803332        0x2
 .bss.PORTF_PF0_InterruptHandler
                0x00803332        0x2 dist/GOOGLE_IOT/production/__pa_temp_8961/pin_manager.o

.bss.PORTF_PF1_InterruptHandler
                0x00803334        0x2
 .bss.PORTF_PF1_InterruptHandler
                0x00803334        0x2 dist/GOOGLE_IOT/production/__pa_temp_8961/pin_manager.o

.bss.PORTF_SW0_InterruptHandler
                0x00803336        0x2
 .bss.PORTF_SW0_InterruptHandler
                0x00803336        0x2 dist/GOOGLE_IOT/production/__pa_temp_8961/pin_manager.o

.bss.spi0_desc  0x00803363        0x1
 .bss.spi0_desc
                0x00803363        0x1 build/GOOGLE_IOT/production/mcc_generated_files/src/spi0.o

.bss.RTC_PIT_isr_cb
                0x00803338        0x2
 .bss.RTC_PIT_isr_cb
                0x00803338        0x2 build/GOOGLE_IOT/production/mcc_generated_files/src/rtc.o
                0x00803338                RTC_PIT_isr_cb

.bss.RTC_CMP_isr_cb
                0x0080333a        0x2
 .bss.RTC_CMP_isr_cb
                0x0080333a        0x2 build/GOOGLE_IOT/production/mcc_generated_files/src/rtc.o
                0x0080333a                RTC_CMP_isr_cb

.bss.RTC_OVF_isr_cb
                0x0080333c        0x2
 .bss.RTC_OVF_isr_cb
                0x0080333c        0x2 build/GOOGLE_IOT/production/mcc_generated_files/src/rtc.o
                0x0080333c                RTC_OVF_isr_cb

.bss.I2C0_status
                0x0080316b       0x24
 .bss.I2C0_status
                0x0080316b       0x24 dist/GOOGLE_IOT/production/__pa_temp_8961/twi0_master.o
                0x0080316b                I2C0_status

.bss.ADC0_window_cb
                0x0080333e        0x2
 .bss.ADC0_window_cb
                0x0080333e        0x2 build/GOOGLE_IOT/production/mcc_generated_files/src/adc0.o
                0x0080333e                ADC0_window_cb

.bss.USART2_tx_elements
                0x00803364        0x1
 .bss.USART2_tx_elements
                0x00803364        0x1 build/GOOGLE_IOT/production/mcc_generated_files/src/usart2.o

.bss.USART2_tx_tail
                0x00803365        0x1
 .bss.USART2_tx_tail
                0x00803365        0x1 build/GOOGLE_IOT/production/mcc_generated_files/src/usart2.o

.bss.USART2_tx_head
                0x00803366        0x1
 .bss.USART2_tx_head
                0x00803366        0x1 build/GOOGLE_IOT/production/mcc_generated_files/src/usart2.o

.bss.USART2_txbuf
                0x00803028       0x40
 .bss.USART2_txbuf
                0x00803028       0x40 build/GOOGLE_IOT/production/mcc_generated_files/src/usart2.o

.bss.USART2_rx_elements
                0x00803367        0x1
 .bss.USART2_rx_elements
                0x00803367        0x1 build/GOOGLE_IOT/production/mcc_generated_files/src/usart2.o

.bss.USART2_rx_tail
                0x00803368        0x1
 .bss.USART2_rx_tail
                0x00803368        0x1 build/GOOGLE_IOT/production/mcc_generated_files/src/usart2.o

.bss.USART2_rx_head
                0x00803369        0x1
 .bss.USART2_rx_head
                0x00803369        0x1 build/GOOGLE_IOT/production/mcc_generated_files/src/usart2.o

.bss.USART2_rxbuf
                0x00803068       0x40
 .bss.USART2_rxbuf
                0x00803068       0x40 build/GOOGLE_IOT/production/mcc_generated_files/src/usart2.o

.bss.serviceRequest
                0x0080336b        0x1
 .bss.serviceRequest
                0x0080336b        0x1 dist/GOOGLE_IOT/production/__pa_temp_8961/winc_adapter.o

.bss.gbChipPwrSave
                0x0080336c        0x1
 .bss.gbChipPwrSave
                0x0080336c        0x1 dist/GOOGLE_IOT/production/__pa_temp_8961/winc_hif.o

.bss.gu16RxSize
                0x00803344        0x2
 .bss.gu16RxSize
                0x00803344        0x2 dist/GOOGLE_IOT/production/__pa_temp_8961/winc_hif.o

.bss.gu32RxAddr
                0x008032fc        0x4
 .bss.gu32RxAddr
                0x008032fc        0x4 dist/GOOGLE_IOT/production/__pa_temp_8961/winc_hif.o

.bss.gu8ChipSleep
                0x0080336d        0x1
 .bss.gu8ChipSleep
                0x0080336d        0x1 dist/GOOGLE_IOT/production/__pa_temp_8961/winc_hif.o

.bss.gu32ChipID.3383
                0x00803300        0x4
 .bss.gu32ChipID.3383
                0x00803300        0x4 dist/GOOGLE_IOT/production/__pa_temp_8961/winc_asic.o

.bss.gu32HIFAddr
                0x00803304        0x4
 .bss.gu32HIFAddr
                0x00803304        0x4 dist/GOOGLE_IOT/production/__pa_temp_8961/m2m_ssl.o

.bss.gpfAppSSLCb
                0x00803346        0x2
 .bss.gpfAppSSLCb
                0x00803346        0x2 dist/GOOGLE_IOT/production/__pa_temp_8961/m2m_ssl.o

.bss.gu8scanInProgress
                0x0080336f        0x1
 .bss.gu8scanInProgress
                0x0080336f        0x1 dist/GOOGLE_IOT/production/__pa_temp_8961/m2m_wifi.o

.bss.gpfAppWifiCb
                0x00803348        0x2
 .bss.gpfAppWifiCb
                0x00803348        0x2 dist/GOOGLE_IOT/production/__pa_temp_8961/m2m_wifi.o

.bss.gu8WifiState
                0x00803370        0x1
 .bss.gu8WifiState
                0x00803370        0x1 dist/GOOGLE_IOT/production/__pa_temp_8961/m2m_wifi.o

.bss.gu8ChNum   0x00803371        0x1
 .bss.gu8ChNum  0x00803371        0x1 dist/GOOGLE_IOT/production/__pa_temp_8961/m2m_wifi.o

.bss.u8NextUdpSock.3538
                0x00803372        0x1
 .bss.u8NextUdpSock.3538
                0x00803372        0x1 dist/GOOGLE_IOT/production/__pa_temp_8961/socket.o

.bss.u8NextTcpSock.3537
                0x00803373        0x1
 .bss.u8NextTcpSock.3537
                0x00803373        0x1 dist/GOOGLE_IOT/production/__pa_temp_8961/socket.o

.bss.gu32PingId
                0x00803308        0x4
 .bss.gu32PingId
                0x00803308        0x4 dist/GOOGLE_IOT/production/__pa_temp_8961/socket.o

.bss.gfpPingCb  0x0080334a        0x2
 .bss.gfpPingCb
                0x0080334a        0x2 dist/GOOGLE_IOT/production/__pa_temp_8961/socket.o

.bss.gbSocketInit
                0x00803374        0x1
 .bss.gbSocketInit
                0x00803374        0x1 dist/GOOGLE_IOT/production/__pa_temp_8961/socket.o

.bss.gpfAppResolveCb
                0x0080334c        0x2
 .bss.gpfAppResolveCb
                0x0080334c        0x2 dist/GOOGLE_IOT/production/__pa_temp_8961/socket.o

.bss.gpfAppSocketCb
                0x0080334e        0x2
 .bss.gpfAppSocketCb
                0x0080334e        0x2 dist/GOOGLE_IOT/production/__pa_temp_8961/socket.o

.bss.gu16SessionID
                0x00803350        0x2
 .bss.gu16SessionID
                0x00803350        0x2 dist/GOOGLE_IOT/production/__pa_temp_8961/socket.o

.bss.gastrSockets
                0x00802f4b       0x79
 .bss.gastrSockets
                0x00802f4b       0x79 dist/GOOGLE_IOT/production/__pa_temp_8961/socket.o

.bss.json.6888  0x00802e83       0xc8
 .bss.json.6888
                0x00802e83       0xc8 dist/GOOGLE_IOT/production/__pa_temp_8961/application_manager.o

.bss.publishMqttTopic.6889
                0x008030fb       0x26
 .bss.publishMqttTopic.6889
                0x008030fb       0x26 dist/GOOGLE_IOT/production/__pa_temp_8961/application_manager.o

.bss.previousTransmissionTime.6901
                0x0080330c        0x4
 .bss.previousTransmissionTime.6901
                0x0080330c        0x4 dist/GOOGLE_IOT/production/__pa_temp_8961/application_manager.o

.bss.holdCount  0x00803375        0x1
 .bss.holdCount
                0x00803375        0x1 dist/GOOGLE_IOT/production/__pa_temp_8961/application_manager.o

.bss.debug_severity_filter
                0x00803376        0x1
 .bss.debug_severity_filter
                0x00803376        0x1 dist/GOOGLE_IOT/production/__pa_temp_8961/debug_print.o

.bss.blueTicker
                0x0080337b        0x1
 .bss.blueTicker
                0x0080337b        0x1 build/GOOGLE_IOT/production/mcc_generated_files/led.o

.bss.greenTicker
                0x0080337c        0x1
 .bss.greenTicker
                0x0080337c        0x1 build/GOOGLE_IOT/production/mcc_generated_files/led.o

.bss.yellowTicker
                0x0080337d        0x1
 .bss.yellowTicker
                0x0080337d        0x1 build/GOOGLE_IOT/production/mcc_generated_files/led.o

.bss.redTicker  0x0080337e        0x1
 .bss.redTicker
                0x0080337e        0x1 build/GOOGLE_IOT/production/mcc_generated_files/led.o

.bss.blueLed_2SecLoop
                0x0080337f        0x1
 .bss.blueLed_2SecLoop
                0x0080337f        0x1 build/GOOGLE_IOT/production/mcc_generated_files/led.o

.bss.greenLed_2SecLoop
                0x00803380        0x1
 .bss.greenLed_2SecLoop
                0x00803380        0x1 build/GOOGLE_IOT/production/mcc_generated_files/led.o

.bss.yellowLed_2SecLoop
                0x00803381        0x1
 .bss.yellowLed_2SecLoop
                0x00803381        0x1 build/GOOGLE_IOT/production/mcc_generated_files/led.o

.bss.redLed_2SecLoop
                0x00803382        0x1
 .bss.redLed_2SecLoop
                0x00803382        0x1 build/GOOGLE_IOT/production/mcc_generated_files/led.o

.bss.stampTime  0x00803310        0x4
 .bss.stampTime
                0x00803310        0x4 dist/GOOGLE_IOT/production/__pa_temp_8961/time_service.o

.bss.currentTime
                0x00803314        0x4
 .bss.currentTime
                0x00803314        0x4 dist/GOOGLE_IOT/production/__pa_temp_8961/time_service.o

.bss            0x00803352        0x2
 .bss           0x00803352        0x2 /opt/microchip/xc8/v2.10/avr/bin/../lib/gcc/avr/5.4.0/../../../../avr/lib/avrxmega3/libc.a(strtok.o)

.data.mqqtSocket
                0x0080335b        0x1 load address 0x00000d0b
 .data.mqqtSocket
                0x0080335b        0x1 dist/GOOGLE_IOT/production/__pa_temp_8961/mqtt_comm_layer.o

.text.sw_sha256_process
                0x00000d0c      0x74a
 .text.sw_sha256_process
                0x00000d0c      0x74a dist/GOOGLE_IOT/production/__pa_temp_8961/sha2_routines.o

.text.MQTT_TransmissionHandler
                0x00001456      0x4a4
 .text.MQTT_TransmissionHandler
                0x00001456      0x4a4 dist/GOOGLE_IOT/production/__pa_temp_8961/mqtt_core.o
                0x00001456                MQTT_TransmissionHandler

.text.m2m_ip_cb
                0x000018fa      0x44a
 .text.m2m_ip_cb
                0x000018fa      0x44a dist/GOOGLE_IOT/production/__pa_temp_8961/socket.o
                0x000018fa                m2m_ip_cb

.text.avrlibc   0x00001d44      0x3c2
 .text.avrlibc  0x00001d44      0x3c2 /opt/microchip/xc8/v2.10/avr/bin/../lib/gcc/avr/5.4.0/../../../../avr/lib/avrxmega3/libc.a(vfprintf_std.o)
                0x00001d44                vfprintf

.text.MQTT_ReceptionHandler
                0x00002106      0x374
 .text.MQTT_ReceptionHandler
                0x00002106      0x374 dist/GOOGLE_IOT/production/__pa_temp_8961/mqtt_core.o
                0x00002106                MQTT_ReceptionHandler

.text.atcab_base64encode_
                0x0000247a      0x2b6
 .text.atcab_base64encode_
                0x0000247a      0x2b6 dist/GOOGLE_IOT/production/__pa_temp_8961/atca_helpers.o
                0x0000247a                atcab_base64encode_

.text.cloudTask
                0x00002730      0x22e
 .text.cloudTask
                0x00002730      0x22e dist/GOOGLE_IOT/production/__pa_temp_8961/cloud_service.o
                0x00002730                cloudTask

.text.atca_jwt_finalize
                0x0000295e      0x210
 .text.atca_jwt_finalize
                0x0000295e      0x210 dist/GOOGLE_IOT/production/__pa_temp_8961/atca_jwt.o
                0x0000295e                atca_jwt_finalize

.text.LED_service
                0x00002b6e      0x20a
 .text.LED_service
                0x00002b6e      0x20a build/GOOGLE_IOT/production/mcc_generated_files/led.o

.text.application_init
                0x00002d78      0x1ca
 .text.application_init
                0x00002d78      0x1ca dist/GOOGLE_IOT/production/__pa_temp_8961/application_manager.o
                0x00002d78                application_init

.text.winc_hif_send
                0x00002f42      0x1c4
 .text.winc_hif_send
                0x00002f42      0x1c4 dist/GOOGLE_IOT/production/__pa_temp_8961/winc_hif.o
                0x00002f42                winc_hif_send

.text.winc_chip_init
                0x00003106      0x1c0
 .text.winc_chip_init
                0x00003106      0x1c0 dist/GOOGLE_IOT/production/__pa_temp_8961/winc_asic.o
                0x00003106                winc_chip_init

.text.wifiCallback
                0x000032c6      0x1a8
 .text.wifiCallback
                0x000032c6      0x1a8 dist/GOOGLE_IOT/production/__pa_temp_8961/wifi_service.o

.text.mqttProcessPublish
                0x0000346e      0x1a2
 .text.mqttProcessPublish
                0x0000346e      0x1a2 dist/GOOGLE_IOT/production/__pa_temp_8961/mqtt_core.o

.text           0x00003610      0x18e
 .text          0x00003610      0x18e /opt/microchip/xc8/v2.10/avr/bin/../lib/gcc/avr/5.4.0/../../../../avr/lib/avrxmega3/libc.a(gmtime_r.o)
                0x00003610                gmtime_r

.text.set_wifi_auth
                0x0000379e      0x180
 .text.set_wifi_auth
                0x0000379e      0x180 dist/GOOGLE_IOT/production/__pa_temp_8961/cli.o

.text.atcab_read_bytes_zone
                0x0000391e      0x17e
 .text.atcab_read_bytes_zone
                0x0000391e      0x17e dist/GOOGLE_IOT/production/__pa_temp_8961/atca_basic_read.o
                0x0000391e                atcab_read_bytes_zone

.text.sw_sha256_update
                0x00003a9c      0x170
 .text.sw_sha256_update
                0x00003a9c      0x170 dist/GOOGLE_IOT/production/__pa_temp_8961/sha2_routines.o
                0x00003a9c                sw_sha256_update

.text           0x00003c0c      0x156
 .text          0x00003c0c      0x156 /opt/microchip/xc8/v2.10/avr/bin/../lib/gcc/avr/5.4.0/../../../../avr/lib/avrxmega3/libc.a(mk_gmtime.o)
                0x00003c0c                mk_gmtime

.text.MAIN_dataTask
                0x00003d62      0x154
 .text.MAIN_dataTask
                0x00003d62      0x154 dist/GOOGLE_IOT/production/__pa_temp_8961/application_manager.o
                0x00003d62                MAIN_dataTask

.text.m2m_wifi_connect_1x_mschap2
                0x00003eb6      0x14c
 .text.m2m_wifi_connect_1x_mschap2
                0x00003eb6      0x14c dist/GOOGLE_IOT/production/__pa_temp_8961/m2m_wifi.o
                0x00003eb6                m2m_wifi_connect_1x_mschap2

.text.CLI_task  0x00004002      0x146
 .text.CLI_task
                0x00004002      0x146 dist/GOOGLE_IOT/production/__pa_temp_8961/cli.o
                0x00004002                CLI_task

.text.MQTT_CreateConnectPacket
                0x00004148      0x132
 .text.MQTT_CreateConnectPacket
                0x00004148      0x132 dist/GOOGLE_IOT/production/__pa_temp_8961/mqtt_core.o
                0x00004148                MQTT_CreateConnectPacket

.text.PIN_MANAGER_Initialize
                0x0000427a      0x12c
 .text.PIN_MANAGER_Initialize
                0x0000427a      0x12c dist/GOOGLE_IOT/production/__pa_temp_8961/pin_manager.o
                0x0000427a                PIN_MANAGER_Initialize

.text.m2m_ssl_cb
                0x000043a6      0x12c
 .text.m2m_ssl_cb
                0x000043a6      0x12c dist/GOOGLE_IOT/production/__pa_temp_8961/m2m_ssl.o
                0x000043a6                m2m_ssl_cb

.text.winc_hif_handle_isr
                0x000044d2      0x126
 .text.winc_hif_handle_isr
                0x000044d2      0x126 dist/GOOGLE_IOT/production/__pa_temp_8961/winc_hif.o
                0x000044d2                winc_hif_handle_isr

.text.m2m_wifi_connect_sc
                0x000045f8      0x126
 .text.m2m_wifi_connect_sc
                0x000045f8      0x126 dist/GOOGLE_IOT/production/__pa_temp_8961/m2m_wifi.o
                0x000045f8                m2m_wifi_connect_sc

.text.sw_sha256_final
                0x0000471e      0x11c
 .text.sw_sha256_final
                0x0000471e      0x11c dist/GOOGLE_IOT/production/__pa_temp_8961/sha2_routines.o
                0x0000471e                sw_sha256_final

.text.m2m_wifi_cb
                0x0000483a      0x10a
 .text.m2m_wifi_cb
                0x0000483a      0x10a dist/GOOGLE_IOT/production/__pa_temp_8961/m2m_wifi.o
                0x0000483a                m2m_wifi_cb

.text.socket    0x00004944      0x10a
 .text.socket   0x00004944      0x10a dist/GOOGLE_IOT/production/__pa_temp_8961/socket.o
                0x00004944                socket

.text.winc_chip_get_id
                0x00004a4e      0x108
 .text.winc_chip_get_id
                0x00004a4e      0x108 dist/GOOGLE_IOT/production/__pa_temp_8961/winc_asic.o
                0x00004a4e                winc_chip_get_id

.text.MQTT_CreatePublishPacket
                0x00004b56       0xfa
 .text.MQTT_CreatePublishPacket
                0x00004b56       0xfa dist/GOOGLE_IOT/production/__pa_temp_8961/mqtt_core.o
                0x00004b56                MQTT_CreatePublishPacket

.text.m2m_wifi_connect_psk
                0x00004c50       0xf0
 .text.m2m_wifi_connect_psk
                0x00004c50       0xf0 dist/GOOGLE_IOT/production/__pa_temp_8961/m2m_wifi.o
                0x00004c50                m2m_wifi_connect_psk

.text.atca_execute_command
                0x00004d40       0xe8
 .text.atca_execute_command
                0x00004d40       0xe8 dist/GOOGLE_IOT/production/__pa_temp_8961/atca_execution.o
                0x00004d40                atca_execute_command

.text.winc_bus_write_block
                0x00004e28       0xe8
 .text.winc_bus_write_block
                0x00004e28       0xe8 dist/GOOGLE_IOT/production/__pa_temp_8961/winc_spi.o
                0x00004e28                winc_bus_write_block

.text.sortedInsert
                0x00004f10       0xd8
 .text.sortedInsert
                0x00004f10       0xd8 dist/GOOGLE_IOT/production/__pa_temp_8961/timeout.o
                0x00004f10                sortedInsert

.text.CLOUD_connectSocket
                0x00004fe8       0xd6
 .text.CLOUD_connectSocket
                0x00004fe8       0xd6 dist/GOOGLE_IOT/production/__pa_temp_8961/google_cloud_service.o
                0x00004fe8                CLOUD_connectSocket

.text.CRYPTO_CLIENT_createJWT
                0x000050be       0xc8
 .text.CRYPTO_CLIENT_createJWT
                0x000050be       0xc8 dist/GOOGLE_IOT/production/__pa_temp_8961/crypto_client.o
                0x000050be                CRYPTO_CLIENT_createJWT

.text.CLOUD_connectAppProtocol
                0x00005186       0xc8
 .text.CLOUD_connectAppProtocol
                0x00005186       0xc8 dist/GOOGLE_IOT/production/__pa_temp_8961/google_cloud_service.o
                0x00005186                CLOUD_connectAppProtocol

.text.m2m_wifi_connect_prepare_msg
                0x0000524e       0xc6
 .text.m2m_wifi_connect_prepare_msg
                0x0000524e       0xc6 dist/GOOGLE_IOT/production/__pa_temp_8961/m2m_wifi.o

.text.CRYPTO_CLIENT_printPublicKey
                0x00005314       0xc4
 .text.CRYPTO_CLIENT_printPublicKey
                0x00005314       0xc4 dist/GOOGLE_IOT/production/__pa_temp_8961/crypto_client.o
                0x00005314                CRYPTO_CLIENT_printPublicKey

.text.atcab_read_zone
                0x000053d8       0xc4
 .text.atcab_read_zone
                0x000053d8       0xc4 dist/GOOGLE_IOT/production/__pa_temp_8961/atca_basic_read.o
                0x000053d8                atcab_read_zone

.text.atca_jwt_add_claim_numeric
                0x0000549c       0xc2
 .text.atca_jwt_add_claim_numeric
                0x0000549c       0xc2 dist/GOOGLE_IOT/production/__pa_temp_8961/atca_jwt.o
                0x0000549c                atca_jwt_add_claim_numeric

.text.cloudResetTask
                0x0000555e       0xbe
 .text.cloudResetTask
                0x0000555e       0xbe dist/GOOGLE_IOT/production/__pa_temp_8961/cloud_service.o
                0x0000555e                cloudResetTask

.text.BSD_SocketHandler
                0x0000561c       0xbc
 .text.BSD_SocketHandler
                0x0000561c       0xbc dist/GOOGLE_IOT/production/__pa_temp_8961/mqtt_winc_adapter.o
                0x0000561c                BSD_SocketHandler

.text.avrlibc   0x000056d8       0xbc
 .text.avrlibc  0x000056d8       0xbc /opt/microchip/xc8/v2.10/avr/bin/../lib/gcc/avr/5.4.0/../../../../avr/lib/avrxmega3/libc.a(ultoa_invert.o)
                0x000056d8                __ultoa_invert

.text.atca_jwt_add_claim_string
                0x00005794       0xb6
 .text.atca_jwt_add_claim_string
                0x00005794       0xb6 dist/GOOGLE_IOT/production/__pa_temp_8961/atca_jwt.o
                0x00005794                atca_jwt_add_claim_string

.text.BSD_connect
                0x0000584a       0xb4
 .text.BSD_connect
                0x0000584a       0xb4 dist/GOOGLE_IOT/production/__pa_temp_8961/mqtt_winc_adapter.o
                0x0000584a                BSD_connect

.text.LED_test  0x000058fe       0xb2
 .text.LED_test
                0x000058fe       0xb2 build/GOOGLE_IOT/production/mcc_generated_files/led.o
                0x000058fe                LED_test

.text           0x000059b0       0xb2
 .text          0x000059b0       0xb2 /opt/microchip/xc8/v2.10/avr/bin/../lib/gcc/avr/5.4.0/../../../../avr/lib/avrxmega3/libc.a(mktime.o)
                0x000059b0                mktime

.text.send      0x00005a62       0xac
 .text.send     0x00005a62       0xac dist/GOOGLE_IOT/production/__pa_temp_8961/socket.o
                0x00005a62                send

.text.__vector_29
                0x00005b0e       0xaa
 .text.__vector_29
                0x00005b0e       0xaa dist/GOOGLE_IOT/production/__pa_temp_8961/pin_manager.o
                0x00005b0e                __vector_29

.text.winc_bus_read_block
                0x00005bb8       0xa8
 .text.winc_bus_read_block
                0x00005bb8       0xa8 dist/GOOGLE_IOT/production/__pa_temp_8961/winc_spi.o
                0x00005bb8                winc_bus_read_block

.text.m2m_fwinfo_get_firmware_info
                0x00005c60       0xa8
 .text.m2m_fwinfo_get_firmware_info
                0x00005c60       0xa8 dist/GOOGLE_IOT/production/__pa_temp_8961/m2m_fwinfo.o
                0x00005c60                m2m_fwinfo_get_firmware_info

.text.atca_jwt_init
                0x00005d08       0xa6
 .text.atca_jwt_init
                0x00005d08       0xa6 dist/GOOGLE_IOT/production/__pa_temp_8961/atca_jwt.o
                0x00005d08                atca_jwt_init

.text.I2C0_DO_RX
                0x00005dae       0xa4
 .text.I2C0_DO_RX
                0x00005dae       0xa4 dist/GOOGLE_IOT/production/__pa_temp_8961/twi0_master.o

.text.startTimerAtHead
                0x00005e52       0xa2
 .text.startTimerAtHead
                0x00005e52       0xa2 dist/GOOGLE_IOT/production/__pa_temp_8961/timeout.o
                0x00005e52                startTimerAtHead

.text.m2m_wifi_start_provision_mode_ext
                0x00005ef4       0xa0
 .text.m2m_wifi_start_provision_mode_ext
                0x00005ef4       0xa0 dist/GOOGLE_IOT/production/__pa_temp_8961/m2m_wifi.o
                0x00005ef4                m2m_wifi_start_provision_mode_ext

.text.enable_provision_ap
                0x00005f94       0x9e
 .text.enable_provision_ap
                0x00005f94       0x9e dist/GOOGLE_IOT/production/__pa_temp_8961/wifi_service.o
                0x00005f94                enable_provision_ap

.text.atcab_nonce_base
                0x00006032       0x9e
 .text.atcab_nonce_base
                0x00006032       0x9e dist/GOOGLE_IOT/production/__pa_temp_8961/atca_basic_nonce.o
                0x00006032                atcab_nonce_base

.text.m2m_wifi_connect_wep
                0x000060d0       0x9c
 .text.m2m_wifi_connect_wep
                0x000060d0       0x9c dist/GOOGLE_IOT/production/__pa_temp_8961/m2m_wifi.o
                0x000060d0                m2m_wifi_connect_wep

.text.manageSubscriptionMessage
                0x0000616c       0x98
 .text.manageSubscriptionMessage
                0x0000616c       0x98 dist/GOOGLE_IOT/production/__pa_temp_8961/mqtt_service.o

.text.atGetExecTime
                0x00006204       0x98
 .text.atGetExecTime
                0x00006204       0x98 dist/GOOGLE_IOT/production/__pa_temp_8961/atca_execution.o
                0x00006204                atGetExecTime

.text.recv      0x0000629c       0x98
 .text.recv     0x0000629c       0x98 dist/GOOGLE_IOT/production/__pa_temp_8961/socket.o
                0x0000629c                recv

.text.atcab_genkey_base
                0x00006334       0x94
 .text.atcab_genkey_base
                0x00006334       0x94 dist/GOOGLE_IOT/production/__pa_temp_8961/atca_basic_genkey.o
                0x00006334                atcab_genkey_base

.text.atcab_init
                0x000063c8       0x92
 .text.atcab_init
                0x000063c8       0x92 dist/GOOGLE_IOT/production/__pa_temp_8961/atca_basic.o
                0x000063c8                atcab_init

.text.I2C0_Open
                0x0000645a       0x92
 .text.I2C0_Open
                0x0000645a       0x92 dist/GOOGLE_IOT/production/__pa_temp_8961/twi0_master.o
                0x0000645a                I2C0_Open

.text.receivedFromCloud
                0x000064ec       0x92
 .text.receivedFromCloud
                0x000064ec       0x92 dist/GOOGLE_IOT/production/__pa_temp_8961/application_manager.o

.text.winc_bus_clear_reg_bits
                0x0000657e       0x8c
 .text.winc_bus_clear_reg_bits
                0x0000657e       0x8c dist/GOOGLE_IOT/production/__pa_temp_8961/winc_spi.o
                0x0000657e                winc_bus_clear_reg_bits

.text.m2m_validate_ap_parameters
                0x0000660a       0x8a
 .text.m2m_validate_ap_parameters
                0x0000660a       0x8a dist/GOOGLE_IOT/production/__pa_temp_8961/m2m_wifi.o

.text.MQTT_ExchangeBufferWrite
                0x00006694       0x86
 .text.MQTT_ExchangeBufferWrite
                0x00006694       0x86 dist/GOOGLE_IOT/production/__pa_temp_8961/mqtt_exchange_buffer.o
                0x00006694                MQTT_ExchangeBufferWrite

.text           0x0000671a       0x84
 .text          0x0000671a       0x84 /opt/microchip/xc8/v2.10/avr/bin/../lib/gcc/avr/5.4.0/../../../../avr/lib/avrxmega3/libc.a(localtime_r.o)
                0x0000671a                localtime_r

.text.winc_adapter_spi_write
                0x0000679e       0x82
 .text.winc_adapter_spi_write
                0x0000679e       0x82 dist/GOOGLE_IOT/production/__pa_temp_8961/winc_adapter.o
                0x0000679e                winc_adapter_spi_write

.text.winc_adapter_spi_read
                0x00006820       0x82
 .text.winc_adapter_spi_read
                0x00006820       0x82 dist/GOOGLE_IOT/production/__pa_temp_8961/winc_adapter.o
                0x00006820                winc_adapter_spi_read

.text.CRYPTO_CLIENT_printSerialNumber
                0x000068a2       0x80
 .text.CRYPTO_CLIENT_printSerialNumber
                0x000068a2       0x80 dist/GOOGLE_IOT/production/__pa_temp_8961/crypto_client.o
                0x000068a2                CRYPTO_CLIENT_printSerialNumber

.text.MQTT_CreateSubscribePacket
                0x00006922       0x7e
 .text.MQTT_CreateSubscribePacket
                0x00006922       0x7e dist/GOOGLE_IOT/production/__pa_temp_8961/mqtt_core.o
                0x00006922                MQTT_CreateSubscribePacket

.text.winc_bus_set_reg_bits
                0x000069a0       0x7e
 .text.winc_bus_set_reg_bits
                0x000069a0       0x7e dist/GOOGLE_IOT/production/__pa_temp_8961/winc_spi.o
                0x000069a0                winc_bus_set_reg_bits

.text.close     0x00006a1e       0x7e
 .text.close    0x00006a1e       0x7e dist/GOOGLE_IOT/production/__pa_temp_8961/socket.o
                0x00006a1e                close

.text.hal_check_wake
                0x00006a9c       0x7c
 .text.hal_check_wake
                0x00006a9c       0x7c dist/GOOGLE_IOT/production/__pa_temp_8961/atca_hal.o
                0x00006a9c                hal_check_wake

.text.atcab_random
                0x00006b18       0x78
 .text.atcab_random
                0x00006b18       0x78 dist/GOOGLE_IOT/production/__pa_temp_8961/atca_basic_random.o
                0x00006b18                atcab_random

.text.makeAbsolute
                0x00006b90       0x78
 .text.makeAbsolute
                0x00006b90       0x78 dist/GOOGLE_IOT/production/__pa_temp_8961/timeout.o
                0x00006b90                makeAbsolute

.text.spi_read_reg
                0x00006c08       0x78
 .text.spi_read_reg
                0x00006c08       0x78 dist/GOOGLE_IOT/production/__pa_temp_8961/winc_spi.o

.text.debug_printer
                0x00006c80       0x78
 .text.debug_printer
                0x00006c80       0x78 dist/GOOGLE_IOT/production/__pa_temp_8961/debug_print.o
                0x00006c80                debug_printer

.text.atcab_sign_base
                0x00006cf8       0x76
 .text.atcab_sign_base
                0x00006cf8       0x76 dist/GOOGLE_IOT/production/__pa_temp_8961/atca_basic_sign.o
                0x00006cf8                atcab_sign_base

.text.atcab_sign
                0x00006d6e       0x76
 .text.atcab_sign
                0x00006d6e       0x76 dist/GOOGLE_IOT/production/__pa_temp_8961/atca_basic_sign.o
                0x00006d6e                atcab_sign

.text.__vector_3
                0x00006de4       0x76
 .text.__vector_3
                0x00006de4       0x76 build/GOOGLE_IOT/production/mcc_generated_files/src/rtc.o
                0x00006de4                __vector_3

.text.atcab_get_zone_size
                0x00006e5a       0x74
 .text.atcab_get_zone_size
                0x00006e5a       0x74 dist/GOOGLE_IOT/production/__pa_temp_8961/atca_basic.o
                0x00006e5a                atcab_get_zone_size

.text.timeout_deleteHelper
                0x00006ece       0x74
 .text.timeout_deleteHelper
                0x00006ece       0x74 dist/GOOGLE_IOT/production/__pa_temp_8961/timeout.o
                0x00006ece                timeout_deleteHelper

.text.winc_hif_receive
                0x00006f42       0x74
 .text.winc_hif_receive
                0x00006f42       0x74 dist/GOOGLE_IOT/production/__pa_temp_8961/winc_hif.o
                0x00006f42                winc_hif_receive

.text.hal_i2c_receive
                0x00006fb6       0x72
 .text.hal_i2c_receive
                0x00006fb6       0x72 dist/GOOGLE_IOT/production/__pa_temp_8961/atca_i2c_hal.o
                0x00006fb6                hal_i2c_receive

.text.avrlibc   0x00007028       0x70
 .text.avrlibc  0x00007028       0x70 dist/GOOGLE_IOT/production/__pa_temp_8961/libc_a_fputc.o
                0x00007028                fputc

.text.MQTT_Disconnect
                0x00007098       0x70
 .text.MQTT_Disconnect
                0x00007098       0x70 dist/GOOGLE_IOT/production/__pa_temp_8961/mqtt_core.o
                0x00007098                MQTT_Disconnect

.text.I2C0_DO_TX
                0x00007108       0x70
 .text.I2C0_DO_TX
                0x00007108       0x70 dist/GOOGLE_IOT/production/__pa_temp_8961/twi0_master.o

.text.rebaseList
                0x00007178       0x6e
 .text.rebaseList
                0x00007178       0x6e dist/GOOGLE_IOT/production/__pa_temp_8961/timeout.o
                0x00007178                rebaseList

.text.timeout_callNextCallback
                0x000071e6       0x6e
 .text.timeout_callNextCallback
                0x000071e6       0x6e dist/GOOGLE_IOT/production/__pa_temp_8961/timeout.o
                0x000071e6                timeout_callNextCallback

.text.winc_drv_init
                0x00007254       0x6e
 .text.winc_drv_init
                0x00007254       0x6e dist/GOOGLE_IOT/production/__pa_temp_8961/winc_drv.o
                0x00007254                winc_drv_init

.text.connect   0x000072c2       0x6e
 .text.connect  0x000072c2       0x6e dist/GOOGLE_IOT/production/__pa_temp_8961/socket.o
                0x000072c2                connect

.text.atcab_read_serial_number
                0x00007330       0x6c
 .text.atcab_read_serial_number
                0x00007330       0x6c dist/GOOGLE_IOT/production/__pa_temp_8961/atca_basic_read.o
                0x00007330                atcab_read_serial_number

.text.MQTT_CLIENT_connect
                0x0000739c       0x6a
 .text.MQTT_CLIENT_connect
                0x0000739c       0x6a dist/GOOGLE_IOT/production/__pa_temp_8961/mqtt_service.o
                0x0000739c                MQTT_CLIENT_connect

.text.timeout_create
                0x00007406       0x6a
 .text.timeout_create
                0x00007406       0x6a dist/GOOGLE_IOT/production/__pa_temp_8961/timeout.o
                0x00007406                timeout_create

.text.BSD_recv  0x00007470       0x68
 .text.BSD_recv
                0x00007470       0x68 dist/GOOGLE_IOT/production/__pa_temp_8961/mqtt_winc_adapter.o
                0x00007470                BSD_recv

.text.m2m_fwinfo_version_check
                0x000074d8       0x68
 .text.m2m_fwinfo_version_check
                0x000074d8       0x68 dist/GOOGLE_IOT/production/__pa_temp_8961/m2m_fwinfo.o
                0x000074d8                m2m_fwinfo_version_check

.text.ntpTimeFetchTask
                0x00007540       0x66
 .text.ntpTimeFetchTask
                0x00007540       0x66 dist/GOOGLE_IOT/production/__pa_temp_8961/wifi_service.o
                0x00007540                ntpTimeFetchTask

.text.wifi_reinit
                0x000075a6       0x66
 .text.wifi_reinit
                0x000075a6       0x66 dist/GOOGLE_IOT/production/__pa_temp_8961/wifi_service.o
                0x000075a6                wifi_reinit

.text.BSD_send  0x0000760c       0x66
 .text.BSD_send
                0x0000760c       0x66 dist/GOOGLE_IOT/production/__pa_temp_8961/mqtt_winc_adapter.o
                0x0000760c                BSD_send

.text.winc_chip_wake
                0x00007672       0x66
 .text.winc_chip_wake
                0x00007672       0x66 dist/GOOGLE_IOT/production/__pa_temp_8961/winc_asic.o
                0x00007672                winc_chip_wake

.text.winc_bus_write_reg
                0x000076d8       0x64
 .text.winc_bus_write_reg
                0x000076d8       0x64 dist/GOOGLE_IOT/production/__pa_temp_8961/winc_spi.o
                0x000076d8                winc_bus_write_reg

.text._atinit   0x0000773c       0x62
 .text._atinit  0x0000773c       0x62 dist/GOOGLE_IOT/production/__pa_temp_8961/atca_iface.o
                0x0000773c                _atinit

.text.i2c_read2ByteRegister
                0x0000779e       0x62
 .text.i2c_read2ByteRegister
                0x0000779e       0x62 dist/GOOGLE_IOT/production/__pa_temp_8961/i2c_simple_master.o
                0x0000779e                i2c_read2ByteRegister

.text.PORT_Initialize
                0x00007800       0x62
 .text.PORT_Initialize
                0x00007800       0x62 dist/GOOGLE_IOT/production/__pa_temp_8961/pin_manager.o
                0x00007800                PORT_Initialize

.text.m2m_wifi_init_start
                0x00007862       0x62
 .text.m2m_wifi_init_start
                0x00007862       0x62 dist/GOOGLE_IOT/production/__pa_temp_8961/m2m_wifi.o
                0x00007862                m2m_wifi_init_start

.text.hal_i2c_wake
                0x000078c4       0x60
 .text.hal_i2c_wake
                0x000078c4       0x60 dist/GOOGLE_IOT/production/__pa_temp_8961/atca_i2c_hal.o
                0x000078c4                hal_i2c_wake

.text.avrlibc   0x00007924       0x60
 .text.avrlibc  0x00007924       0x60 /opt/microchip/xc8/v2.10/avr/bin/../lib/gcc/avr/5.4.0/../../../../avr/lib/avrxmega3/libc.a(snprintf.o)
                0x00007924                snprintf

.text.m2m_wifi_configure_sntp
                0x00007984       0x5e
 .text.m2m_wifi_configure_sntp
                0x00007984       0x5e dist/GOOGLE_IOT/production/__pa_temp_8961/m2m_wifi.o
                0x00007984                m2m_wifi_configure_sntp

.text.TIME_ntpTimeStamp
                0x000079e2       0x5e
 .text.TIME_ntpTimeStamp
                0x000079e2       0x5e dist/GOOGLE_IOT/production/__pa_temp_8961/time_service.o
                0x000079e2                TIME_ntpTimeStamp

.text.avrlibc   0x00007a40       0x5c
 .text.avrlibc  0x00007a40       0x5c dist/GOOGLE_IOT/production/__pa_temp_8961/libc_a_puts.o
                0x00007a40                puts

.text.atinit    0x00007a9c       0x5c
 .text.atinit   0x00007a9c       0x5c dist/GOOGLE_IOT/production/__pa_temp_8961/atca_iface.o
                0x00007a9c                atinit

.text.setTimerDuration
                0x00007af8       0x5c
 .text.setTimerDuration
                0x00007af8       0x5c dist/GOOGLE_IOT/production/__pa_temp_8961/timeout.o
                0x00007af8                setTimerDuration

.text.I2C0_DO_TX_EMPTY
                0x00007b54       0x5c
 .text.I2C0_DO_TX_EMPTY
                0x00007b54       0x5c dist/GOOGLE_IOT/production/__pa_temp_8961/twi0_master.o

.text.atcac_sw_sha2_256
                0x00007bb0       0x5a
 .text.atcac_sw_sha2_256
                0x00007bb0       0x5a dist/GOOGLE_IOT/production/__pa_temp_8961/atca_crypto_sw_sha2.o
                0x00007bb0                atcac_sw_sha2_256

.text.atCRC     0x00007c0a       0x5a
 .text.atCRC    0x00007c0a       0x5a dist/GOOGLE_IOT/production/__pa_temp_8961/atca_command.o
                0x00007c0a                atCRC

.text.atCheckCrc
                0x00007c64       0x5a
 .text.atCheckCrc
                0x00007c64       0x5a dist/GOOGLE_IOT/production/__pa_temp_8961/atca_command.o
                0x00007c64                atCheckCrc

.text.spi_rsp   0x00007cbe       0x5a
 .text.spi_rsp  0x00007cbe       0x5a dist/GOOGLE_IOT/production/__pa_temp_8961/winc_spi.o

.text.atcab_get_addr
                0x00007d18       0x58
 .text.atcab_get_addr
                0x00007d18       0x58 dist/GOOGLE_IOT/production/__pa_temp_8961/atca_basic.o
                0x00007d18                atcab_get_addr

.text.atcab_lock
                0x00007d70       0x58
 .text.atcab_lock
                0x00007d70       0x58 dist/GOOGLE_IOT/production/__pa_temp_8961/atca_basic_lock.o
                0x00007d70                atcab_lock

.text.isATCAError
                0x00007dc8       0x58
 .text.isATCAError
                0x00007dc8       0x58 dist/GOOGLE_IOT/production/__pa_temp_8961/atca_command.o
                0x00007dc8                isATCAError

.text.__vector_4
                0x00007e20       0x58
 .text.__vector_4
                0x00007e20       0x58 build/GOOGLE_IOT/production/mcc_generated_files/src/rtc.o
                0x00007e20                __vector_4

.text.__vector_23
                0x00007e78       0x58
 .text.__vector_23
                0x00007e78       0x58 build/GOOGLE_IOT/production/mcc_generated_files/src/adc0.o
                0x00007e78                __vector_23

.text.hal_iface_init
                0x00007ed0       0x56
 .text.hal_iface_init
                0x00007ed0       0x56 dist/GOOGLE_IOT/production/__pa_temp_8961/atca_hal.o
                0x00007ed0                hal_iface_init

.text.timeout_isr
                0x00007f26       0x56
 .text.timeout_isr
                0x00007f26       0x56 dist/GOOGLE_IOT/production/__pa_temp_8961/timeout.o
                0x00007f26                timeout_isr

.text.spi_data_read
                0x00007f7c       0x56
 .text.spi_data_read
                0x00007f7c       0x56 dist/GOOGLE_IOT/production/__pa_temp_8961/winc_spi.o

.text.winc_chip_sleep
                0x00007fd2       0x56
 .text.winc_chip_sleep
                0x00007fd2       0x56 dist/GOOGLE_IOT/production/__pa_temp_8961/winc_asic.o
                0x00007fd2                winc_chip_sleep

.text.MQTT_ExchangeBufferRead
                0x00008028       0x54
 .text.MQTT_ExchangeBufferRead
                0x00008028       0x54 dist/GOOGLE_IOT/production/__pa_temp_8961/mqtt_exchange_buffer.o
                0x00008028                MQTT_ExchangeBufferRead

.text.atca_jwt_check_payload_start
                0x0000807c       0x52
 .text.atca_jwt_check_payload_start
                0x0000807c       0x52 dist/GOOGLE_IOT/production/__pa_temp_8961/atca_jwt.o
                0x0000807c                atca_jwt_check_payload_start

.text.initATCADevice
                0x000080ce       0x52
 .text.initATCADevice
                0x000080ce       0x52 build/GOOGLE_IOT/production/mcc_generated_files/CryptoAuthenticationLibrary/atca_device.o
                0x000080ce                initATCADevice

.text.__vector_31
                0x00008120       0x52
 .text.__vector_31
                0x00008120       0x52 build/GOOGLE_IOT/production/mcc_generated_files/src/usart2.o
                0x00008120                __vector_31

.text.__vector_32
                0x00008172       0x52
 .text.__vector_32
                0x00008172       0x52 build/GOOGLE_IOT/production/mcc_generated_files/src/usart2.o
                0x00008172                __vector_32

.text.MQTT_CLIENT_subscribe
                0x000081c4       0x50
 .text.MQTT_CLIENT_subscribe
                0x000081c4       0x50 dist/GOOGLE_IOT/production/__pa_temp_8961/mqtt_service.o
                0x000081c4                MQTT_CLIENT_subscribe

.text.MQTT_ClientInitialise
                0x00008214       0x50
 .text.MQTT_ClientInitialise
                0x00008214       0x50 dist/GOOGLE_IOT/production/__pa_temp_8961/mqtt_comm_layer.o
                0x00008214                MQTT_ClientInitialise

.text.MQTT_ExchangeBufferPeek
                0x00008264       0x50
 .text.MQTT_ExchangeBufferPeek
                0x00008264       0x50 dist/GOOGLE_IOT/production/__pa_temp_8961/mqtt_exchange_buffer.o
                0x00008264                MQTT_ExchangeBufferPeek

.text.I2C0_MasterIsr
                0x000082b4       0x50
 .text.I2C0_MasterIsr
                0x000082b4       0x50 dist/GOOGLE_IOT/production/__pa_temp_8961/twi0_master.o

.text.getSocketInfo
                0x00008304       0x4e
 .text.getSocketInfo
                0x00008304       0x4e dist/GOOGLE_IOT/production/__pa_temp_8961/mqtt_winc_adapter.o
                0x00008304                getSocketInfo

.text.avrlibc   0x00008352       0x4e
 .text.avrlibc  0x00008352       0x4e /opt/microchip/xc8/v2.10/avr/bin/../lib/gcc/avr/5.4.0/../../../../avr/lib/avrxmega3/libc.a(strtok_r.o)
                0x00008352                strtok_r

.text.get_public_key
                0x000083a0       0x4a
 .text.get_public_key
                0x000083a0       0x4a dist/GOOGLE_IOT/production/__pa_temp_8961/cli.o

.text.hexstr_2_bytes
                0x000083ea       0x4a
 .text.hexstr_2_bytes
                0x000083ea       0x4a dist/GOOGLE_IOT/production/__pa_temp_8961/m2m_wifi.o

.text.i2c_writeNBytes
                0x00008434       0x46
 .text.i2c_writeNBytes
                0x00008434       0x46 dist/GOOGLE_IOT/production/__pa_temp_8961/i2c_simple_master.o
                0x00008434                i2c_writeNBytes

.text.RTC_Initialize
                0x0000847a       0x46
 .text.RTC_Initialize
                0x0000847a       0x46 build/GOOGLE_IOT/production/mcc_generated_files/src/rtc.o
                0x0000847a                RTC_Initialize

.text.USART2_Initialize
                0x000084c0       0x46
 .text.USART2_Initialize
                0x000084c0       0x46 build/GOOGLE_IOT/production/mcc_generated_files/src/usart2.o
                0x000084c0                USART2_Initialize

.text.avrlibc   0x00008506       0x44
 .text.avrlibc  0x00008506       0x44 dist/GOOGLE_IOT/production/__pa_temp_8961/libc_a_atol.o
                0x00008506                atol

.text.wifi_connectToAp
                0x0000854a       0x44
 .text.wifi_connectToAp
                0x0000854a       0x44 dist/GOOGLE_IOT/production/__pa_temp_8961/wifi_service.o
                0x0000854a                wifi_connectToAp

.text.winc_bus_read_reg
                0x0000858e       0x44
 .text.winc_bus_read_reg
                0x0000858e       0x44 dist/GOOGLE_IOT/production/__pa_temp_8961/winc_spi.o
                0x0000858e                winc_bus_read_reg

.text.m2m_wifi_connect_open
                0x000085d2       0x44
 .text.m2m_wifi_connect_open
                0x000085d2       0x44 dist/GOOGLE_IOT/production/__pa_temp_8961/m2m_wifi.o
                0x000085d2                m2m_wifi_connect_open

.text.libgcc.div
                0x00008616       0x44
 .text.libgcc.div
                0x00008616       0x44 /opt/microchip/xc8/v2.10/avr/bin/../lib/gcc/avr/5.4.0/avrxmega3/libgcc.a(_udivmodsi4.o)
                0x00008616                __udivmodsi4

.text.avrlibc   0x0000865a       0x44
 .text.avrlibc  0x0000865a       0x44 /opt/microchip/xc8/v2.10/avr/bin/../lib/gcc/avr/5.4.0/../../../../avr/lib/avrxmega3/libc.a(sprintf.o)
                0x0000865a                sprintf

.text.BSD_socket
                0x0000869e       0x42
 .text.BSD_socket
                0x0000869e       0x42 dist/GOOGLE_IOT/production/__pa_temp_8961/mqtt_winc_adapter.o
                0x0000869e                BSD_socket

.text.CLKCTRL_Initialize
                0x000086e0       0x40
 .text.CLKCTRL_Initialize
                0x000086e0       0x40 build/GOOGLE_IOT/production/mcc_generated_files/mcc.o
                0x000086e0                CLKCTRL_Initialize

.text.getMQTT_ConnectionAge
                0x00008720       0x3e
 .text.getMQTT_ConnectionAge
                0x00008720       0x3e dist/GOOGLE_IOT/production/__pa_temp_8961/cloud_service.o

.text.base64Char
                0x0000875e       0x3e
 .text.base64Char
                0x0000875e       0x3e dist/GOOGLE_IOT/production/__pa_temp_8961/atca_helpers.o
                0x0000875e                base64Char

.text.I2C0_set_callback
                0x0000879c       0x3e
 .text.I2C0_set_callback
                0x0000879c       0x3e dist/GOOGLE_IOT/production/__pa_temp_8961/twi0_master.o

.text.I2C0_Close
                0x000087da       0x3e
 .text.I2C0_Close
                0x000087da       0x3e dist/GOOGLE_IOT/production/__pa_temp_8961/twi0_master.o
                0x000087da                I2C0_Close

.text.USART2_DefaultTxIsrCb
                0x00008818       0x3e
 .text.USART2_DefaultTxIsrCb
                0x00008818       0x3e build/GOOGLE_IOT/production/mcc_generated_files/src/usart2.o
                0x00008818                USART2_DefaultTxIsrCb

.text.USART2_Write
                0x00008856       0x3e
 .text.USART2_Write
                0x00008856       0x3e build/GOOGLE_IOT/production/mcc_generated_files/src/usart2.o
                0x00008856                USART2_Write

.__pa__47       0x00008894       0x3e
 .__pa__47      0x00008894       0x3e dist/GOOGLE_IOT/production/__pa_temp_8961/m2m_wifi.o
                0x00008894                .__pa__47

.text.wifi_init
                0x000088d2       0x3c
 .text.wifi_init
                0x000088d2       0x3c dist/GOOGLE_IOT/production/__pa_temp_8961/wifi_service.o
                0x000088d2                wifi_init

.text.BSD_close
                0x0000890e       0x3c
 .text.BSD_close
                0x0000890e       0x3c dist/GOOGLE_IOT/production/__pa_temp_8961/mqtt_winc_adapter.o
                0x0000890e                BSD_close

.text.SENSORS_getTempValue
                0x0000894a       0x3c
 .text.SENSORS_getTempValue
                0x0000894a       0x3c dist/GOOGLE_IOT/production/__pa_temp_8961/sensors_handling.o
                0x0000894a                SENSORS_getTempValue

.text.i2c_readNBytes
                0x00008986       0x3a
 .text.i2c_readNBytes
                0x00008986       0x3a dist/GOOGLE_IOT/production/__pa_temp_8961/i2c_simple_master.o
                0x00008986                i2c_readNBytes

.text.get_device_id
                0x000089c0       0x38
 .text.get_device_id
                0x000089c0       0x38 dist/GOOGLE_IOT/production/__pa_temp_8961/cli.o

.text.enqueueCallback
                0x000089f8       0x38
 .text.enqueueCallback
                0x000089f8       0x38 dist/GOOGLE_IOT/production/__pa_temp_8961/timeout.o
                0x000089f8                enqueueCallback

.text.m2m_wifi_get_firmware_version
                0x00008a30       0x38
 .text.m2m_wifi_get_firmware_version
                0x00008a30       0x38 dist/GOOGLE_IOT/production/__pa_temp_8961/m2m_wifi.o
                0x00008a30                m2m_wifi_get_firmware_version

.text.I2C0_DO_ADDRESS_NACK
                0x00008a68       0x36
 .text.I2C0_DO_ADDRESS_NACK
                0x00008a68       0x36 dist/GOOGLE_IOT/production/__pa_temp_8961/twi0_master.o

.text.MQTT_CLIENT_publish
                0x00008a9e       0x34
 .text.MQTT_CLIENT_publish
                0x00008a9e       0x34 dist/GOOGLE_IOT/production/__pa_temp_8961/mqtt_service.o
                0x00008a9e                MQTT_CLIENT_publish

.text.MQTT_Send
                0x00008ad2       0x34
 .text.MQTT_Send
                0x00008ad2       0x34 dist/GOOGLE_IOT/production/__pa_temp_8961/mqtt_comm_layer.o
                0x00008ad2                MQTT_Send

.__pa__159      0x00008b06       0x34
 .__pa__159     0x00008b06       0x34 dist/GOOGLE_IOT/production/__pa_temp_8961/winc_adapter.o
                0x00008b06                .__pa__159

.text.m2m_wifi_start_provision_mode
                0x00008b3a       0x34
 .text.m2m_wifi_start_provision_mode
                0x00008b3a       0x34 dist/GOOGLE_IOT/production/__pa_temp_8961/m2m_wifi.o
                0x00008b3a                m2m_wifi_start_provision_mode

.text.SYSTEM_Initialize
                0x00008b6e       0x34
 .text.SYSTEM_Initialize
                0x00008b6e       0x34 build/GOOGLE_IOT/production/mcc_generated_files/mcc.o
                0x00008b6e                SYSTEM_Initialize

.text.avrlibc   0x00008ba2       0x34
 .text.avrlibc  0x00008ba2       0x34 /opt/microchip/xc8/v2.10/avr/bin/../lib/gcc/avr/5.4.0/../../../../avr/lib/avrxmega3/libc.a(strstr.o)
                0x00008ba2                strstr

.text.CLOUD_init
                0x00008bd6       0x32
 .text.CLOUD_init
                0x00008bd6       0x32 dist/GOOGLE_IOT/production/__pa_temp_8961/google_cloud_service.o
                0x00008bd6                CLOUD_init

.text.atNonce   0x00008c08       0x32
 .text.atNonce  0x00008c08       0x32 dist/GOOGLE_IOT/production/__pa_temp_8961/atca_command.o
                0x00008c08                atNonce

.text.USART2_Read
                0x00008c3a       0x32
 .text.USART2_Read
                0x00008c3a       0x32 build/GOOGLE_IOT/production/mcc_generated_files/src/usart2.o
                0x00008c3a                USART2_Read

.text.winc_chip_interrupts_enable
                0x00008c6c       0x32
 .text.winc_chip_interrupts_enable
                0x00008c6c       0x32 dist/GOOGLE_IOT/production/__pa_temp_8961/winc_asic.o
                0x00008c6c                winc_chip_interrupts_enable

.text.gethostbyname
                0x00008c9e       0x32
 .text.gethostbyname
                0x00008c9e       0x32 dist/GOOGLE_IOT/production/__pa_temp_8961/socket.o
                0x00008c9e                gethostbyname

.text.libgcc.prologue
                0x00008cd0       0x32
 .text.libgcc.prologue
                0x00008cd0       0x32 /opt/microchip/xc8/v2.10/avr/bin/../lib/gcc/avr/5.4.0/avrxmega3/libgcc.a(_prologue.o)
                0x00008cd0                __prologue_saves__

.text.sw_sha256_init
                0x00008d02       0x30
 .text.sw_sha256_init
                0x00008d02       0x30 dist/GOOGLE_IOT/production/__pa_temp_8961/sha2_routines.o
                0x00008d02                sw_sha256_init

.text.I2C0_DO_BUS_COLLISION
                0x00008d32       0x30
 .text.I2C0_DO_BUS_COLLISION
                0x00008d32       0x30 dist/GOOGLE_IOT/production/__pa_temp_8961/twi0_master.o

.text.winc_adapter_sleep
                0x00008d62       0x30
 .text.winc_adapter_sleep
                0x00008d62       0x30 dist/GOOGLE_IOT/production/__pa_temp_8961/winc_adapter.o
                0x00008d62                winc_adapter_sleep

.text.libgcc.prologue
                0x00008d92       0x30
 .text.libgcc.prologue
                0x00008d92       0x30 /opt/microchip/xc8/v2.10/avr/bin/../lib/gcc/avr/5.4.0/avrxmega3/libgcc.a(_epilogue.o)
                0x00008d92                __epilogue_restores__

.text.atwake    0x00008dc2       0x2e
 .text.atwake   0x00008dc2       0x2e dist/GOOGLE_IOT/production/__pa_temp_8961/atca_iface.o
                0x00008dc2                atwake

.text.winc_hif_chip_sleep
                0x00008df0       0x2e
 .text.winc_hif_chip_sleep
                0x00008df0       0x2e dist/GOOGLE_IOT/production/__pa_temp_8961/winc_hif.o
                0x00008df0                winc_hif_chip_sleep

.text.libgcc.div
                0x00008e1e       0x2e
 .text.libgcc.div
                0x00008e1e       0x2e /opt/microchip/xc8/v2.10/avr/bin/../lib/gcc/avr/5.4.0/avrxmega3/libgcc.a(_divmodsi4.o)
                0x00008e1e                __divmodsi4

.text.reconnect_cmd
                0x00008e4c       0x2c
 .text.reconnect_cmd
                0x00008e4c       0x2c dist/GOOGLE_IOT/production/__pa_temp_8961/cli.o

.text.I2C0_MasterOperation
                0x00008e78       0x2c
 .text.I2C0_MasterOperation
                0x00008e78       0x2c dist/GOOGLE_IOT/production/__pa_temp_8961/twi0_master.o
                0x00008e78                I2C0_MasterOperation

.text.ADC0_Initialize
                0x00008ea4       0x2c
 .text.ADC0_Initialize
                0x00008ea4       0x2c build/GOOGLE_IOT/production/mcc_generated_files/src/adc0.o
                0x00008ea4                ADC0_Initialize

.text.USART2_DefaultRxIsrCb
                0x00008ed0       0x2c
 .text.USART2_DefaultRxIsrCb
                0x00008ed0       0x2c build/GOOGLE_IOT/production/mcc_generated_files/src/usart2.o
                0x00008ed0                USART2_DefaultRxIsrCb

.text.winc_adapter_interrupt_serviced
                0x00008efc       0x2c
 .text.winc_adapter_interrupt_serviced
                0x00008efc       0x2c dist/GOOGLE_IOT/production/__pa_temp_8961/winc_adapter.o
                0x00008efc                winc_adapter_interrupt_serviced

.text.socketDeinit
                0x00008f28       0x2c
 .text.socketDeinit
                0x00008f28       0x2c dist/GOOGLE_IOT/production/__pa_temp_8961/socket.o
                0x00008f28                socketDeinit

.text.avrlibc   0x00008f54       0x2c
 .text.avrlibc  0x00008f54       0x2c /opt/microchip/xc8/v2.10/avr/bin/../lib/gcc/avr/5.4.0/../../../../avr/lib/avrxmega3/libc.a(printf.o)
                0x00008f54                printf

.text.stopTimeouts
                0x00008f80       0x2a
 .text.stopTimeouts
                0x00008f80       0x2a dist/GOOGLE_IOT/production/__pa_temp_8961/timeout.o
                0x00008f80                stopTimeouts

.text.__vector_33
                0x00008faa       0x2a
 .text.__vector_33
                0x00008faa       0x2a build/GOOGLE_IOT/production/mcc_generated_files/src/usart2.o
                0x00008faa                __vector_33

.text.spi_cmd_send
                0x00008fd4       0x2a
 .text.spi_cmd_send
                0x00008fd4       0x2a dist/GOOGLE_IOT/production/__pa_temp_8961/winc_spi.o

.text.winc_hif_send_no_data
                0x00008ffe       0x2a
 .text.winc_hif_send_no_data
                0x00008ffe       0x2a dist/GOOGLE_IOT/production/__pa_temp_8961/winc_hif.o
                0x00008ffe                winc_hif_send_no_data

.text.avrlibc   0x00009028       0x2a
 .text.avrlibc  0x00009028       0x2a /opt/microchip/xc8/v2.10/avr/bin/../lib/gcc/avr/5.4.0/../../../../avr/lib/avrxmega3/libc.a(mulsi10.o)
                0x00009028                __mulsi_const_10

.text.CLOUD_registerSubscription
                0x00009052       0x28
 .text.CLOUD_registerSubscription
                0x00009052       0x28 dist/GOOGLE_IOT/production/__pa_temp_8961/cloud_service.o
                0x00009052                CLOUD_registerSubscription

.text.timeout_delete
                0x0000907a       0x28
 .text.timeout_delete
                0x0000907a       0x28 dist/GOOGLE_IOT/production/__pa_temp_8961/timeout.o
                0x0000907a                timeout_delete

.text.mqttEncodeLength
                0x000090a2       0x28
 .text.mqttEncodeLength
                0x000090a2       0x28 dist/GOOGLE_IOT/production/__pa_temp_8961/mqtt_core.o

.text.winc_hif_chip_wake
                0x000090ca       0x28
 .text.winc_hif_chip_wake
                0x000090ca       0x28 dist/GOOGLE_IOT/production/__pa_temp_8961/winc_hif.o
                0x000090ca                winc_hif_chip_wake

.text.libgcc.div
                0x000090f2       0x28
 .text.libgcc.div
                0x000090f2       0x28 /opt/microchip/xc8/v2.10/avr/bin/../lib/gcc/avr/5.4.0/avrxmega3/libgcc.a(_udivmodhi4.o)
                0x000090f2                __udivmodhi4

.text.libgcc.div
                0x0000911a       0x28
 .text.libgcc.div
                0x0000911a       0x28 /opt/microchip/xc8/v2.10/avr/bin/../lib/gcc/avr/5.4.0/avrxmega3/libgcc.a(_divmodhi4.o)
                0x0000911a                __divmodhi4
                0x0000911a                _div

.text           0x00009142       0x28
 .text          0x00009142       0x28 /opt/microchip/xc8/v2.10/avr/bin/../lib/gcc/avr/5.4.0/../../../../avr/lib/avrxmega3/libc.a(isLeap.o)
                0x00009142                is_leap_year

.text.CLI_init  0x0000916a       0x26
 .text.CLI_init
                0x0000916a       0x26 dist/GOOGLE_IOT/production/__pa_temp_8961/cli.o
                0x0000916a                CLI_init

.text.CREDENTIALS_STORAGE_clearWifiCredentials
                0x00009190       0x26
 .text.CREDENTIALS_STORAGE_clearWifiCredentials
                0x00009190       0x26 build/GOOGLE_IOT/production/mcc_generated_files/credentials_storage/credentials_storage.o
                0x00009190                CREDENTIALS_STORAGE_clearWifiCredentials

.text.atcab_nonce_load
                0x000091b6       0x26
 .text.atcab_nonce_load
                0x000091b6       0x26 dist/GOOGLE_IOT/production/__pa_temp_8961/atca_basic_nonce.o
                0x000091b6                atcab_nonce_load

.text.MQTT_GetReceivedData
                0x000091dc       0x26
 .text.MQTT_GetReceivedData
                0x000091dc       0x26 dist/GOOGLE_IOT/production/__pa_temp_8961/mqtt_comm_layer.o
                0x000091dc                MQTT_GetReceivedData

.text.socketInit
                0x00009202       0x26
 .text.socketInit
                0x00009202       0x26 dist/GOOGLE_IOT/production/__pa_temp_8961/socket.o
                0x00009202                socketInit

.text.SPI0_ExchangeBlock
                0x00009228       0x24
 .text.SPI0_ExchangeBlock
                0x00009228       0x24 build/GOOGLE_IOT/production/mcc_generated_files/src/spi0.o
                0x00009228                SPI0_ExchangeBlock

.text.SPI0_WriteBlock
                0x0000924c       0x24
 .text.SPI0_WriteBlock
                0x0000924c       0x24 build/GOOGLE_IOT/production/mcc_generated_files/src/spi0.o
                0x0000924c                SPI0_WriteBlock

.text.SPI0_ReadBlock
                0x00009270       0x24
 .text.SPI0_ReadBlock
                0x00009270       0x24 build/GOOGLE_IOT/production/mcc_generated_files/src/spi0.o
                0x00009270                SPI0_ReadBlock

.text.I2C0_SetBuffer
                0x00009294       0x24
 .text.I2C0_SetBuffer
                0x00009294       0x24 dist/GOOGLE_IOT/production/__pa_temp_8961/twi0_master.o
                0x00009294                I2C0_SetBuffer

.text.avrlibc   0x000092b8       0x24
 .text.avrlibc  0x000092b8       0x24 /opt/microchip/xc8/v2.10/avr/bin/../lib/gcc/avr/5.4.0/../../../../avr/lib/avrxmega3/libc.a(memmove.o)
                0x000092b8                memmove

.text.hal_i2c_idle
                0x000092dc       0x22
 .text.hal_i2c_idle
                0x000092dc       0x22 dist/GOOGLE_IOT/production/__pa_temp_8961/atca_i2c_hal.o
                0x000092dc                hal_i2c_idle

.text.hal_i2c_sleep
                0x000092fe       0x22
 .text.hal_i2c_sleep
                0x000092fe       0x22 dist/GOOGLE_IOT/production/__pa_temp_8961/atca_i2c_hal.o
                0x000092fe                hal_i2c_sleep

.text.checkPingreqTimeoutState
                0x00009320       0x22
 .text.checkPingreqTimeoutState
                0x00009320       0x22 dist/GOOGLE_IOT/production/__pa_temp_8961/mqtt_core.o

.text.ADC0_GetConversion
                0x00009342       0x22
 .text.ADC0_GetConversion
                0x00009342       0x22 build/GOOGLE_IOT/production/mcc_generated_files/src/adc0.o
                0x00009342                ADC0_GetConversion

.text.initATCAIface
                0x00009364       0x20
 .text.initATCAIface
                0x00009364       0x20 dist/GOOGLE_IOT/production/__pa_temp_8961/atca_iface.o
                0x00009364                initATCAIface

.text.winc_bus_read_reg_with_ret
                0x00009384       0x20
 .text.winc_bus_read_reg_with_ret
                0x00009384       0x20 dist/GOOGLE_IOT/production/__pa_temp_8961/winc_spi.o
                0x00009384                winc_bus_read_reg_with_ret

.text.libgcc.mul
                0x000093a4       0x20
 .text.libgcc.mul
                0x000093a4       0x20 /opt/microchip/xc8/v2.10/avr/bin/../lib/gcc/avr/5.4.0/avrxmega3/libgcc.a(_mulsi3.o)
                0x000093a4                __mulsi3

.text.get_firmware_version
                0x000093c4       0x1e
 .text.get_firmware_version
                0x000093c4       0x1e dist/GOOGLE_IOT/production/__pa_temp_8961/cli.o

.text.get_cli_version
                0x000093e2       0x1e
 .text.get_cli_version
                0x000093e2       0x1e dist/GOOGLE_IOT/production/__pa_temp_8961/cli.o

.text.atca_delay_ms
                0x00009400       0x1e
 .text.atca_delay_ms
                0x00009400       0x1e dist/GOOGLE_IOT/production/__pa_temp_8961/hal_i2c_timer.o
                0x00009400                atca_delay_ms

.text.atGenKey  0x0000941e       0x1e
 .text.atGenKey
                0x0000941e       0x1e dist/GOOGLE_IOT/production/__pa_temp_8961/atca_command.o
                0x0000941e                atGenKey

.text.SPI0_Open
                0x0000943c       0x1e
 .text.SPI0_Open
                0x0000943c       0x1e build/GOOGLE_IOT/production/mcc_generated_files/src/spi0.o
                0x0000943c                SPI0_Open

.text.__vector_22
                0x0000945a       0x1e
 .text.__vector_22
                0x0000945a       0x1e build/GOOGLE_IOT/production/mcc_generated_files/src/adc0.o
                0x0000945a                __vector_22

.text.m2m_wifi_init
                0x00009478       0x1e
 .text.m2m_wifi_init
                0x00009478       0x1e dist/GOOGLE_IOT/production/__pa_temp_8961/m2m_wifi.o
                0x00009478                m2m_wifi_init

.text.__vector_2
                0x00009496       0x1e
 .text.__vector_2
                0x00009496       0x1e build/GOOGLE_IOT/production/mcc_generated_files/mcc.o
                0x00009496                __vector_2

.text.libgcc.mul
                0x000094b4       0x1e
 .text.libgcc.mul
                0x000094b4       0x1e /opt/microchip/xc8/v2.10/avr/bin/../lib/gcc/avr/5.4.0/avrxmega3/libgcc.a(_umulhisi3.o)
                0x000094b4                __umulhisi3

.text.avrlibc   0x000094d2       0x1e
 .text.avrlibc  0x000094d2       0x1e /opt/microchip/xc8/v2.10/avr/bin/../lib/gcc/avr/5.4.0/../../../../avr/lib/avrxmega3/libc.a(strncpy.o)
                0x000094d2                strncpy

.text.set_debug_level
                0x000094f0       0x1c
 .text.set_debug_level
                0x000094f0       0x1c dist/GOOGLE_IOT/production/__pa_temp_8961/cli.o

.text.dnsHandler
                0x0000950c       0x1c
 .text.dnsHandler
                0x0000950c       0x1c dist/GOOGLE_IOT/production/__pa_temp_8961/cloud_service.o

.text.wifi_disconnectFromAp
                0x00009528       0x1c
 .text.wifi_disconnectFromAp
                0x00009528       0x1c dist/GOOGLE_IOT/production/__pa_temp_8961/wifi_service.o
                0x00009528                wifi_disconnectFromAp

.text.I2C0_Initialize
                0x00009544       0x1c
 .text.I2C0_Initialize
                0x00009544       0x1c dist/GOOGLE_IOT/production/__pa_temp_8961/twi0_master.o
                0x00009544                I2C0_Initialize

.text.CryptoAuth_Initialize
                0x00009560       0x1c
 .text.CryptoAuth_Initialize
                0x00009560       0x1c build/GOOGLE_IOT/production/mcc_generated_files/CryptoAuthenticationLibrary/CryptoAuth_init.o
                0x00009560                CryptoAuth_Initialize

.text.avrlibc   0x0000957c       0x1c
 .text.avrlibc  0x0000957c       0x1c /opt/microchip/xc8/v2.10/avr/bin/../lib/gcc/avr/5.4.0/../../../../avr/lib/avrxmega3/libc.a(strncmp.o)
                0x0000957c                strncmp

.text.reset_cmd
                0x00009598       0x1a
 .text.reset_cmd
                0x00009598       0x1a dist/GOOGLE_IOT/production/__pa_temp_8961/cli.o

.text.atcab_release
                0x000095b2       0x1a
 .text.atcab_release
                0x000095b2       0x1a dist/GOOGLE_IOT/production/__pa_temp_8961/atca_basic.o
                0x000095b2                atcab_release

.text.atca_delay_us
                0x000095cc       0x1a
 .text.atca_delay_us
                0x000095cc       0x1a dist/GOOGLE_IOT/production/__pa_temp_8961/hal_i2c_timer.o
                0x000095cc                atca_delay_us

.text.atidle    0x000095e6       0x1a
 .text.atidle   0x000095e6       0x1a dist/GOOGLE_IOT/production/__pa_temp_8961/atca_iface.o
                0x000095e6                atidle

.text.CPUINT_Initialize
                0x00009600       0x1a
 .text.CPUINT_Initialize
                0x00009600       0x1a build/GOOGLE_IOT/production/mcc_generated_files/src/cpuint.o
                0x00009600                CPUINT_Initialize

.text.I2C0_DO_SEND_ADR_READ
                0x0000961a       0x1a
 .text.I2C0_DO_SEND_ADR_READ
                0x0000961a       0x1a dist/GOOGLE_IOT/production/__pa_temp_8961/twi0_master.o

.text.winc_chip_halt
                0x00009634       0x1a
 .text.winc_chip_halt
                0x00009634       0x1a dist/GOOGLE_IOT/production/__pa_temp_8961/winc_asic.o
                0x00009634                winc_chip_halt

.text.avrlibc   0x0000964e       0x1a
 .text.avrlibc  0x0000964e       0x1a /opt/microchip/xc8/v2.10/avr/bin/../lib/gcc/avr/5.4.0/../../../../avr/lib/avrxmega3/libc.a(memcmp.o)
                0x0000964e                memcmp

.text.atCalcCrc
                0x00009668       0x18
 .text.atCalcCrc
                0x00009668       0x18 dist/GOOGLE_IOT/production/__pa_temp_8961/atca_command.o
                0x00009668                atCalcCrc

.text.I2C0_DO_SEND_ADR_WRITE
                0x00009680       0x18
 .text.I2C0_DO_SEND_ADR_WRITE
                0x00009680       0x18 dist/GOOGLE_IOT/production/__pa_temp_8961/twi0_master.o

.text.I2C0_DO_RX_NACK_STOP
                0x00009698       0x18
 .text.I2C0_DO_RX_NACK_STOP
                0x00009698       0x18 dist/GOOGLE_IOT/production/__pa_temp_8961/twi0_master.o

.text.winc_drv_start
                0x000096b0       0x18
 .text.winc_drv_start
                0x000096b0       0x18 dist/GOOGLE_IOT/production/__pa_temp_8961/winc_drv.o
                0x000096b0                winc_drv_start

.text.application_post_provisioning
                0x000096c8       0x18
 .text.application_post_provisioning
                0x000096c8       0x18 dist/GOOGLE_IOT/production/__pa_temp_8961/application_manager.o
                0x000096c8                application_post_provisioning

.text           0x000096e0       0x18
 .text          0x000096e0       0x18 /opt/microchip/xc8/v2.10/avr/bin/../lib/gcc/avr/5.4.0/../../../../avr/lib/avrxmega3/libc.a(set_system_time.o)
                0x000096e0                set_system_time

.__pa__154      0x000096f8       0x16
 .__pa__154     0x000096f8       0x16 dist/GOOGLE_IOT/production/__pa_temp_8961/sha2_routines.o
                0x000096f8                .__pa__154

.__pa__162      0x0000970e       0x16
 .__pa__162     0x0000970e       0x16 dist/GOOGLE_IOT/production/__pa_temp_8961/sha2_routines.o
                0x0000970e                .__pa__162

.__pa__278      0x00009724       0x16
 .__pa__278     0x00009724       0x16 dist/GOOGLE_IOT/production/__pa_temp_8961/sha2_routines.o
                0x00009724                .__pa__278

.text.hal_i2c_send
                0x0000973a       0x16
 .text.hal_i2c_send
                0x0000973a       0x16 dist/GOOGLE_IOT/production/__pa_temp_8961/atca_i2c_hal.o
                0x0000973a                hal_i2c_send

.text.SPI0_Initialize
                0x00009750       0x16
 .text.SPI0_Initialize
                0x00009750       0x16 build/GOOGLE_IOT/production/mcc_generated_files/src/spi0.o
                0x00009750                SPI0_Initialize

.text.I2C0_DO_BUS_ERROR
                0x00009766       0x16
 .text.I2C0_DO_BUS_ERROR
                0x00009766       0x16 dist/GOOGLE_IOT/production/__pa_temp_8961/twi0_master.o

.text.m2m_wifi_init_hold
                0x0000977c       0x16
 .text.m2m_wifi_init_hold
                0x0000977c       0x16 dist/GOOGLE_IOT/production/__pa_temp_8961/m2m_wifi.o
                0x0000977c                m2m_wifi_init_hold

.__pa__127      0x00009792       0x16
 .__pa__127     0x00009792       0x16 dist/GOOGLE_IOT/production/__pa_temp_8961/socket.o
                0x00009792                .__pa__127

.text.BOD_Initialize
                0x000097a8       0x16
 .text.BOD_Initialize
                0x000097a8       0x16 build/GOOGLE_IOT/production/mcc_generated_files/mcc.o
                0x000097a8                BOD_Initialize

.text.DELAY_milliseconds
                0x000097be       0x16
 .text.DELAY_milliseconds
                0x000097be       0x16 build/GOOGLE_IOT/production/mcc_generated_files/delay.o
                0x000097be                DELAY_milliseconds

.text.libgcc.mul
                0x000097d4       0x16
 .text.libgcc.mul
                0x000097d4       0x16 /opt/microchip/xc8/v2.10/avr/bin/../lib/gcc/avr/5.4.0/avrxmega3/libgcc.a(_muluhisi3.o)
                0x000097d4                __muluhisi3

.text.avrlibc   0x000097ea       0x16
 .text.avrlibc  0x000097ea       0x16 /opt/microchip/xc8/v2.10/avr/bin/../lib/gcc/avr/5.4.0/../../../../avr/lib/avrxmega3/libc.a(strchr.o)
                0x000097ea                strchr

.text.avrlibc   0x00009800       0x16
 .text.avrlibc  0x00009800       0x16 /opt/microchip/xc8/v2.10/avr/bin/../lib/gcc/avr/5.4.0/../../../../avr/lib/avrxmega3/libc.a(strnlen_P.o)
                0x00009800                strnlen_P

.text.avrlibc   0x00009816       0x16
 .text.avrlibc  0x00009816       0x16 /opt/microchip/xc8/v2.10/avr/bin/../lib/gcc/avr/5.4.0/../../../../avr/lib/avrxmega3/libc.a(strnlen.o)
                0x00009816                strnlen

.text.CLOUD_subscribe
                0x0000982c       0x14
 .text.CLOUD_subscribe
                0x0000982c       0x14 dist/GOOGLE_IOT/production/__pa_temp_8961/google_cloud_service.o
                0x0000982c                CLOUD_subscribe

.__pa__68       0x00009840       0x14
 .__pa__68      0x00009840       0x14 dist/GOOGLE_IOT/production/__pa_temp_8961/google_cloud_service.o
                0x00009840                .__pa__68

.__pa__81       0x00009854       0x14
 .__pa__81      0x00009854       0x14 dist/GOOGLE_IOT/production/__pa_temp_8961/atca_basic.o
                0x00009854                .__pa__81

.__pa__107      0x00009868       0x14
 .__pa__107     0x00009868       0x14 dist/GOOGLE_IOT/production/__pa_temp_8961/atca_basic_sign.o
                0x00009868                .__pa__107

.__pa__196      0x0000987c       0x14
 .__pa__196     0x0000987c       0x14 dist/GOOGLE_IOT/production/__pa_temp_8961/sha2_routines.o
                0x0000987c                .__pa__196

.text.initATCACommand
                0x00009890       0x14
 .text.initATCACommand
                0x00009890       0x14 dist/GOOGLE_IOT/production/__pa_temp_8961/atca_command.o
                0x00009890                initATCACommand

.text.releaseATCAIface
                0x000098a4       0x14
 .text.releaseATCAIface
                0x000098a4       0x14 dist/GOOGLE_IOT/production/__pa_temp_8961/atca_iface.o
                0x000098a4                releaseATCAIface

.text.rd2RegCompleteHandler
                0x000098b8       0x14
 .text.rd2RegCompleteHandler
                0x000098b8       0x14 dist/GOOGLE_IOT/production/__pa_temp_8961/i2c_simple_master.o

.text.MQTT_Close
                0x000098cc       0x14
 .text.MQTT_Close
                0x000098cc       0x14 dist/GOOGLE_IOT/production/__pa_temp_8961/mqtt_comm_layer.o
                0x000098cc                MQTT_Close

.text.checkPingrespTimeoutState
                0x000098e0       0x14
 .text.checkPingrespTimeoutState
                0x000098e0       0x14 dist/GOOGLE_IOT/production/__pa_temp_8961/mqtt_core.o

.text.SPI0_OpenConfiguration
                0x000098f4       0x14
 .text.SPI0_OpenConfiguration
                0x000098f4       0x14 build/GOOGLE_IOT/production/mcc_generated_files/src/spi0.o
                0x000098f4                SPI0_OpenConfiguration

.text.I2C0_DO_RESET
                0x00009908       0x14
 .text.I2C0_DO_RESET
                0x00009908       0x14 dist/GOOGLE_IOT/production/__pa_temp_8961/twi0_master.o

.text.I2C0_DO_SEND_STOP
                0x0000991c       0x14
 .text.I2C0_DO_SEND_STOP
                0x0000991c       0x14 dist/GOOGLE_IOT/production/__pa_temp_8961/twi0_master.o

.text.I2C0_Poller
                0x00009930       0x14
 .text.I2C0_Poller
                0x00009930       0x14 dist/GOOGLE_IOT/production/__pa_temp_8961/twi0_master.o
                0x00009930                I2C0_Poller

.text.m2m_wifi_connect
                0x00009944       0x14
 .text.m2m_wifi_connect
                0x00009944       0x14 dist/GOOGLE_IOT/production/__pa_temp_8961/m2m_wifi.o
                0x00009944                m2m_wifi_connect

.__pa__67       0x00009958       0x14
 .__pa__67      0x00009958       0x14 dist/GOOGLE_IOT/production/__pa_temp_8961/spi_flash.o
                0x00009958                .__pa__67

.text.mqttTimeoutTask
                0x0000996c       0x12
 .text.mqttTimeoutTask
                0x0000996c       0x12 dist/GOOGLE_IOT/production/__pa_temp_8961/cloud_service.o
                0x0000996c                mqttTimeoutTask

.text.checkBackTask
                0x0000997e       0x12
 .text.checkBackTask
                0x0000997e       0x12 dist/GOOGLE_IOT/production/__pa_temp_8961/wifi_service.o
                0x0000997e                checkBackTask

.text.CLOUD_disconnect
                0x00009990       0x12
 .text.CLOUD_disconnect
                0x00009990       0x12 dist/GOOGLE_IOT/production/__pa_temp_8961/google_cloud_service.o
                0x00009990                CLOUD_disconnect

.__pa__212      0x000099a2       0x12
 .__pa__212     0x000099a2       0x12 dist/GOOGLE_IOT/production/__pa_temp_8961/google_cloud_service.o
                0x000099a2                .__pa__212

.text.atcab_base64encode
                0x000099b4       0x12
 .text.atcab_base64encode
                0x000099b4       0x12 dist/GOOGLE_IOT/production/__pa_temp_8961/atca_helpers.o
                0x000099b4                atcab_base64encode

.__pa__257      0x000099c6       0x12
 .__pa__257     0x000099c6       0x12 dist/GOOGLE_IOT/production/__pa_temp_8961/sha2_routines.o
                0x000099c6                .__pa__257

.__pa__275      0x000099d8       0x12
 .__pa__275     0x000099d8       0x12 dist/GOOGLE_IOT/production/__pa_temp_8961/sha2_routines.o
                0x000099d8                .__pa__275

.text.hal_i2c_init
                0x000099ea       0x12
 .text.hal_i2c_init
                0x000099ea       0x12 dist/GOOGLE_IOT/production/__pa_temp_8961/atca_i2c_hal.o
                0x000099ea                hal_i2c_init

.text.releaseATCADevice
                0x000099fc       0x12
 .text.releaseATCADevice
                0x000099fc       0x12 build/GOOGLE_IOT/production/mcc_generated_files/CryptoAuthenticationLibrary/atca_device.o
                0x000099fc                releaseATCADevice

.__pa__133      0x00009a0e       0x12
 .__pa__133     0x00009a0e       0x12 dist/GOOGLE_IOT/production/__pa_temp_8961/mqtt_exchange_buffer.o
                0x00009a0e                .__pa__133

.text.BSD_GetSocketState
                0x00009a20       0x12
 .text.BSD_GetSocketState
                0x00009a20       0x12 dist/GOOGLE_IOT/production/__pa_temp_8961/mqtt_winc_adapter.o
                0x00009a20                BSD_GetSocketState

.__pa__237      0x00009a32       0x12
 .__pa__237     0x00009a32       0x12 dist/GOOGLE_IOT/production/__pa_temp_8961/pin_manager.o
                0x00009a32                .__pa__237

.text.SPI0_ExchangeByte
                0x00009a44       0x12
 .text.SPI0_ExchangeByte
                0x00009a44       0x12 build/GOOGLE_IOT/production/mcc_generated_files/src/spi0.o
                0x00009a44                SPI0_ExchangeByte

.text.RTC_WriteCounter
                0x00009a56       0x12
 .text.RTC_WriteCounter
                0x00009a56       0x12 build/GOOGLE_IOT/production/mcc_generated_files/src/rtc.o
                0x00009a56                RTC_WriteCounter

.text.I2C0_MasterWaitForEvent
                0x00009a68       0x12
 .text.I2C0_MasterWaitForEvent
                0x00009a68       0x12 dist/GOOGLE_IOT/production/__pa_temp_8961/twi0_master.o
                0x00009a68                I2C0_MasterWaitForEvent

.text.winc_adapter_init
                0x00009a7a       0x12
 .text.winc_adapter_init
                0x00009a7a       0x12 dist/GOOGLE_IOT/production/__pa_temp_8961/winc_adapter.o
                0x00009a7a                winc_adapter_init

.__pa__11       0x00009a8c       0x12
 .__pa__11      0x00009a8c       0x12 dist/GOOGLE_IOT/production/__pa_temp_8961/winc_asic.o
                0x00009a8c                .__pa__11

.__pa__12       0x00009a9e       0x12
 .__pa__12      0x00009a9e       0x12 dist/GOOGLE_IOT/production/__pa_temp_8961/winc_asic.o
                0x00009a9e                .__pa__12

.__pa__180      0x00009ab0       0x12
 .__pa__180     0x00009ab0       0x12 dist/GOOGLE_IOT/production/__pa_temp_8961/winc_asic.o
                0x00009ab0                .__pa__180

.__pa__259      0x00009ac2       0x12
 .__pa__259     0x00009ac2       0x12 dist/GOOGLE_IOT/production/__pa_temp_8961/winc_asic.o
                0x00009ac2                .__pa__259

.__pa__109      0x00009ad4       0x12
 .__pa__109     0x00009ad4       0x12 dist/GOOGLE_IOT/production/__pa_temp_8961/m2m_wifi.o
                0x00009ad4                .__pa__109

.text.registerSocketCallback
                0x00009ae6       0x12
 .text.registerSocketCallback
                0x00009ae6       0x12 dist/GOOGLE_IOT/production/__pa_temp_8961/socket.o
                0x00009ae6                registerSocketCallback

.__pa__247      0x00009af8       0x12
 .__pa__247     0x00009af8       0x12 dist/GOOGLE_IOT/production/__pa_temp_8961/socket.o
                0x00009af8                .__pa__247

.__pa__248      0x00009b0a       0x12
 .__pa__248     0x00009b0a       0x12 dist/GOOGLE_IOT/production/__pa_temp_8961/socket.o
                0x00009b0a                .__pa__248

.text.TIME_getCurrent
                0x00009b1c       0x12
 .text.TIME_getCurrent
                0x00009b1c       0x12 dist/GOOGLE_IOT/production/__pa_temp_8961/time_service.o
                0x00009b1c                TIME_getCurrent

.text.TIME_setStamp
                0x00009b2e       0x12
 .text.TIME_setStamp
                0x00009b2e       0x12 dist/GOOGLE_IOT/production/__pa_temp_8961/time_service.o
                0x00009b2e                TIME_setStamp

.text.TIME_getStamp
                0x00009b40       0x12
 .text.TIME_getStamp
                0x00009b40       0x12 dist/GOOGLE_IOT/production/__pa_temp_8961/time_service.o
                0x00009b40                TIME_getStamp

.text.avrlibc   0x00009b52       0x12
 .text.avrlibc  0x00009b52       0x12 /opt/microchip/xc8/v2.10/avr/bin/../lib/gcc/avr/5.4.0/../../../../avr/lib/avrxmega3/libc.a(memcpy.o)
                0x00009b52                memcpy

.text.avrlibc   0x00009b64       0x12
 .text.avrlibc  0x00009b64       0x12 /opt/microchip/xc8/v2.10/avr/bin/../lib/gcc/avr/5.4.0/../../../../avr/lib/avrxmega3/libc.a(strcmp.o)
                0x00009b64                strcmp

.text.avrlibc   0x00009b76       0x12
 .text.avrlibc  0x00009b76       0x12 /opt/microchip/xc8/v2.10/avr/bin/../lib/gcc/avr/5.4.0/../../../../avr/lib/avrxmega3/libc.a(vprintf.o)
                0x00009b76                vprintf

.__pa__242      0x00009b88       0x10
 .__pa__242     0x00009b88       0x10 dist/GOOGLE_IOT/production/__pa_temp_8961/libc_a_atol.o
                0x00009b88                .__pa__242

.text.CLOUD_setupTask
                0x00009b98       0x10
 .text.CLOUD_setupTask
                0x00009b98       0x10 dist/GOOGLE_IOT/production/__pa_temp_8961/cloud_service.o
                0x00009b98                CLOUD_setupTask

.text.softApConnectTask
                0x00009ba8       0x10
 .text.softApConnectTask
                0x00009ba8       0x10 dist/GOOGLE_IOT/production/__pa_temp_8961/wifi_service.o
                0x00009ba8                softApConnectTask

.text.CLOUD_isConnected
                0x00009bb8       0x10
 .text.CLOUD_isConnected
                0x00009bb8       0x10 dist/GOOGLE_IOT/production/__pa_temp_8961/google_cloud_service.o
                0x00009bb8                CLOUD_isConnected

.__pa__106      0x00009bc8       0x10
 .__pa__106     0x00009bc8       0x10 dist/GOOGLE_IOT/production/__pa_temp_8961/atca_basic_updateextra.o
                0x00009bc8                .__pa__106

.__pa__126      0x00009bd8       0x10
 .__pa__126     0x00009bd8       0x10 dist/GOOGLE_IOT/production/__pa_temp_8961/atca_jwt.o
                0x00009bd8                .__pa__126

.__pa__270      0x00009be8       0x10
 .__pa__270     0x00009be8       0x10 dist/GOOGLE_IOT/production/__pa_temp_8961/atca_jwt.o
                0x00009be8                .__pa__270

.text.atLock    0x00009bf8       0x10
 .text.atLock   0x00009bf8       0x10 dist/GOOGLE_IOT/production/__pa_temp_8961/atca_command.o
                0x00009bf8                atLock

.text.atRandom  0x00009c08       0x10
 .text.atRandom
                0x00009c08       0x10 dist/GOOGLE_IOT/production/__pa_temp_8961/atca_command.o
                0x00009c08                atRandom

.text.atRead    0x00009c18       0x10
 .text.atRead   0x00009c18       0x10 dist/GOOGLE_IOT/production/__pa_temp_8961/atca_command.o
                0x00009c18                atRead

.text.atSign    0x00009c28       0x10
 .text.atSign   0x00009c28       0x10 dist/GOOGLE_IOT/production/__pa_temp_8961/atca_command.o
                0x00009c28                atSign

.text.checkConnackTimeoutState
                0x00009c38       0x10
 .text.checkConnackTimeoutState
                0x00009c38       0x10 dist/GOOGLE_IOT/production/__pa_temp_8961/mqtt_core.o

.text.checkSubackTimeoutState
                0x00009c48       0x10
 .text.checkSubackTimeoutState
                0x00009c48       0x10 dist/GOOGLE_IOT/production/__pa_temp_8961/mqtt_core.o

.text.checkUnsubackTimeoutState
                0x00009c58       0x10
 .text.checkUnsubackTimeoutState
                0x00009c58       0x10 dist/GOOGLE_IOT/production/__pa_temp_8961/mqtt_core.o

.text.MQTT_ExchangeBufferInit
                0x00009c68       0x10
 .text.MQTT_ExchangeBufferInit
                0x00009c68       0x10 dist/GOOGLE_IOT/production/__pa_temp_8961/mqtt_exchange_buffer.o
                0x00009c68                MQTT_ExchangeBufferInit

.text.I2C0_DO_IDLE
                0x00009c78       0x10
 .text.I2C0_DO_IDLE
                0x00009c78       0x10 dist/GOOGLE_IOT/production/__pa_temp_8961/twi0_master.o

.text.I2C0_MasterResetBus
                0x00009c88       0x10
 .text.I2C0_MasterResetBus
                0x00009c88       0x10 dist/GOOGLE_IOT/production/__pa_temp_8961/twi0_master.o
                0x00009c88                I2C0_MasterResetBus

.__pa__267      0x00009c98       0x10
 .__pa__267     0x00009c98       0x10 dist/GOOGLE_IOT/production/__pa_temp_8961/winc_spi.o
                0x00009c98                .__pa__267

.__pa__268      0x00009ca8       0x10
 .__pa__268     0x00009ca8       0x10 dist/GOOGLE_IOT/production/__pa_temp_8961/winc_spi.o
                0x00009ca8                .__pa__268

.text.winc_interrupt_handler
                0x00009cb8       0x10
 .text.winc_interrupt_handler
                0x00009cb8       0x10 dist/GOOGLE_IOT/production/__pa_temp_8961/winc_adapter.o

.__pa__116      0x00009cc8       0x10
 .__pa__116     0x00009cc8       0x10 dist/GOOGLE_IOT/production/__pa_temp_8961/winc_asic.o
                0x00009cc8                .__pa__116

.text.m2m_wifi_default_connect
                0x00009cd8       0x10
 .text.m2m_wifi_default_connect
                0x00009cd8       0x10 dist/GOOGLE_IOT/production/__pa_temp_8961/m2m_wifi.o
                0x00009cd8                m2m_wifi_default_connect

.text.m2m_wifi_disconnect
                0x00009ce8       0x10
 .text.m2m_wifi_disconnect
                0x00009ce8       0x10 dist/GOOGLE_IOT/production/__pa_temp_8961/m2m_wifi.o
                0x00009ce8                m2m_wifi_disconnect

.text.m2m_wifi_get_system_time
                0x00009cf8       0x10
 .text.m2m_wifi_get_system_time
                0x00009cf8       0x10 dist/GOOGLE_IOT/production/__pa_temp_8961/m2m_wifi.o
                0x00009cf8                m2m_wifi_get_system_time

.__pa__176      0x00009d08       0x10
 .__pa__176     0x00009d08       0x10 dist/GOOGLE_IOT/production/__pa_temp_8961/socket.o
                0x00009d08                .__pa__176

.__pa__202      0x00009d18       0x10
 .__pa__202     0x00009d18       0x10 dist/GOOGLE_IOT/production/__pa_temp_8961/socket.o
                0x00009d18                .__pa__202

.__pa__229      0x00009d28       0x10
 .__pa__229     0x00009d28       0x10 dist/GOOGLE_IOT/production/__pa_temp_8961/spi_flash.o
                0x00009d28                .__pa__229

.text.LED_serviceInit
                0x00009d38       0x10
 .text.LED_serviceInit
                0x00009d38       0x10 build/GOOGLE_IOT/production/mcc_generated_files/led.o
                0x00009d38                LED_serviceInit

.text.wifiHandlerTask
                0x00009d48        0xe
 .text.wifiHandlerTask
                0x00009d48        0xe dist/GOOGLE_IOT/production/__pa_temp_8961/wifi_service.o
                0x00009d48                wifiHandlerTask

.__pa__85       0x00009d56        0xe
 .__pa__85      0x00009d56        0xe dist/GOOGLE_IOT/production/__pa_temp_8961/google_cloud_service.o
                0x00009d56                .__pa__85

.__pa__0        0x00009d64        0xe
 .__pa__0       0x00009d64        0xe dist/GOOGLE_IOT/production/__pa_temp_8961/atcacert_client.o
                0x00009d64                .__pa__0

.text.atcab_get_pubkey
                0x00009d72        0xe
 .text.atcab_get_pubkey
                0x00009d72        0xe dist/GOOGLE_IOT/production/__pa_temp_8961/atca_basic_genkey.o
                0x00009d72                atcab_get_pubkey

.text.atcab_lock_data_slot
                0x00009d80        0xe
 .text.atcab_lock_data_slot
                0x00009d80        0xe dist/GOOGLE_IOT/production/__pa_temp_8961/atca_basic_lock.o
                0x00009d80                atcab_lock_data_slot

.__pa__209      0x00009d8e        0xe
 .__pa__209     0x00009d8e        0xe dist/GOOGLE_IOT/production/__pa_temp_8961/sha2_routines.o
                0x00009d8e                .__pa__209

.__pa__224      0x00009d9c        0xe
 .__pa__224     0x00009d9c        0xe dist/GOOGLE_IOT/production/__pa_temp_8961/sha2_routines.o
                0x00009d9c                .__pa__224

.__pa__225      0x00009daa        0xe
 .__pa__225     0x00009daa        0xe dist/GOOGLE_IOT/production/__pa_temp_8961/sha2_routines.o
                0x00009daa                .__pa__225

.__pa__226      0x00009db8        0xe
 .__pa__226     0x00009db8        0xe dist/GOOGLE_IOT/production/__pa_temp_8961/sha2_routines.o
                0x00009db8                .__pa__226

.__pa__271      0x00009dc6        0xe
 .__pa__271     0x00009dc6        0xe dist/GOOGLE_IOT/production/__pa_temp_8961/sha2_routines.o
                0x00009dc6                .__pa__271

.__pa__274      0x00009dd4        0xe
 .__pa__274     0x00009dd4        0xe dist/GOOGLE_IOT/production/__pa_temp_8961/sha2_routines.o
                0x00009dd4                .__pa__274

.text.hal_iface_release
                0x00009de2        0xe
 .text.hal_iface_release
                0x00009de2        0xe dist/GOOGLE_IOT/production/__pa_temp_8961/atca_hal.o
                0x00009de2                hal_iface_release

.__pa__183      0x00009df0        0xe
 .__pa__183     0x00009df0        0xe dist/GOOGLE_IOT/production/__pa_temp_8961/atca_i2c_hal.o
                0x00009df0                .__pa__183

.__pa__55       0x00009dfe        0xe
 .__pa__55      0x00009dfe        0xe dist/GOOGLE_IOT/production/__pa_temp_8961/atca_jwt.o
                0x00009dfe                .__pa__55

.__pa__64       0x00009e0c        0xe
 .__pa__64      0x00009e0c        0xe dist/GOOGLE_IOT/production/__pa_temp_8961/mqtt_core.o
                0x00009e0c                .__pa__64

.__pa__65       0x00009e1a        0xe
 .__pa__65      0x00009e1a        0xe dist/GOOGLE_IOT/production/__pa_temp_8961/mqtt_core.o
                0x00009e1a                .__pa__65

.__pa__66       0x00009e28        0xe
 .__pa__66      0x00009e28        0xe dist/GOOGLE_IOT/production/__pa_temp_8961/mqtt_core.o
                0x00009e28                .__pa__66

.__pa__50       0x00009e36        0xe
 .__pa__50      0x00009e36        0xe dist/GOOGLE_IOT/production/__pa_temp_8961/mqtt_winc_adapter.o
                0x00009e36                .__pa__50

.text.USART2_IsRxReady
                0x00009e44        0xe
 .text.USART2_IsRxReady
                0x00009e44        0xe build/GOOGLE_IOT/production/mcc_generated_files/src/usart2.o
                0x00009e44                USART2_IsRxReady

.text.winc_bus_init
                0x00009e52        0xe
 .text.winc_bus_init
                0x00009e52        0xe dist/GOOGLE_IOT/production/__pa_temp_8961/winc_spi.o
                0x00009e52                winc_bus_init

.__pa__186      0x00009e60        0xe
 .__pa__186     0x00009e60        0xe dist/GOOGLE_IOT/production/__pa_temp_8961/winc_spi.o
                0x00009e60                .__pa__186

.text.winc_adapter_interrupt_request_pending
                0x00009e6e        0xe
 .text.winc_adapter_interrupt_request_pending
                0x00009e6e        0xe dist/GOOGLE_IOT/production/__pa_temp_8961/winc_adapter.o
                0x00009e6e                winc_adapter_interrupt_request_pending

.__pa__61       0x00009e7c        0xe
 .__pa__61      0x00009e7c        0xe dist/GOOGLE_IOT/production/__pa_temp_8961/winc_adapter.o
                0x00009e7c                .__pa__61

.__pa__110      0x00009e8a        0xe
 .__pa__110     0x00009e8a        0xe dist/GOOGLE_IOT/production/__pa_temp_8961/m2m_wifi.o
                0x00009e8a                .__pa__110

.__pa__22       0x00009e98        0xe
 .__pa__22      0x00009e98        0xe dist/GOOGLE_IOT/production/__pa_temp_8961/socket.o
                0x00009e98                .__pa__22

.__pa__91       0x00009ea6        0xe
 .__pa__91      0x00009ea6        0xe dist/GOOGLE_IOT/production/__pa_temp_8961/socket.o
                0x00009ea6                .__pa__91

.__pa__92       0x00009eb4        0xe
 .__pa__92      0x00009eb4        0xe dist/GOOGLE_IOT/production/__pa_temp_8961/socket.o
                0x00009eb4                .__pa__92

.text.SLPCTRL_Initialize
                0x00009ec2        0xe
 .text.SLPCTRL_Initialize
                0x00009ec2        0xe build/GOOGLE_IOT/production/mcc_generated_files/mcc.o
                0x00009ec2                SLPCTRL_Initialize

.text.WDT_Initialize
                0x00009ed0        0xe
 .text.WDT_Initialize
                0x00009ed0        0xe build/GOOGLE_IOT/production/mcc_generated_files/mcc.o
                0x00009ed0                WDT_Initialize

.text.debug_setPrefix
                0x00009ede        0xe
 .text.debug_setPrefix
                0x00009ede        0xe dist/GOOGLE_IOT/production/__pa_temp_8961/debug_print.o
                0x00009ede                debug_setPrefix

.text.libgcc.mul
                0x00009eec        0xe
 .text.libgcc.mul
                0x00009eec        0xe /opt/microchip/xc8/v2.10/avr/bin/../lib/gcc/avr/5.4.0/avrxmega3/libgcc.a(_usmulhisi3.o)
                0x00009eec                __usmulhisi3
                0x00009ef0                __usmulhisi3_tail

.text.avrlibc   0x00009efa        0xe
 .text.avrlibc  0x00009efa        0xe /opt/microchip/xc8/v2.10/avr/bin/../lib/gcc/avr/5.4.0/../../../../avr/lib/avrxmega3/libc.a(memset.o)
                0x00009efa                memset

.text.avrlibc   0x00009f08        0xe
 .text.avrlibc  0x00009f08        0xe /opt/microchip/xc8/v2.10/avr/bin/../lib/gcc/avr/5.4.0/../../../../avr/lib/avrxmega3/libc.a(strcpy.o)
                0x00009f08                strcpy

.text.CLOUD_setInitFlag
                0x00009f16        0xc
 .text.CLOUD_setInitFlag
                0x00009f16        0xc dist/GOOGLE_IOT/production/__pa_temp_8961/cloud_service.o
                0x00009f16                CLOUD_setInitFlag

.__pa__51       0x00009f22        0xc
 .__pa__51      0x00009f22        0xc dist/GOOGLE_IOT/production/__pa_temp_8961/atcacert_def.o
                0x00009f22                .__pa__51

.__pa__179      0x00009f2e        0xc
 .__pa__179     0x00009f2e        0xc dist/GOOGLE_IOT/production/__pa_temp_8961/atca_basic_write.o
                0x00009f2e                .__pa__179

.__pa__75       0x00009f3a        0xc
 .__pa__75      0x00009f3a        0xc dist/GOOGLE_IOT/production/__pa_temp_8961/sha1_routines.o
                0x00009f3a                .__pa__75

.__pa__218      0x00009f46        0xc
 .__pa__218     0x00009f46        0xc dist/GOOGLE_IOT/production/__pa_temp_8961/sha1_routines.o
                0x00009f46                .__pa__218

.__pa__220      0x00009f52        0xc
 .__pa__220     0x00009f52        0xc dist/GOOGLE_IOT/production/__pa_temp_8961/sha1_routines.o
                0x00009f52                .__pa__220

.__pa__191      0x00009f5e        0xc
 .__pa__191     0x00009f5e        0xc dist/GOOGLE_IOT/production/__pa_temp_8961/sha2_routines.o
                0x00009f5e                .__pa__191

.__pa__192      0x00009f6a        0xc
 .__pa__192     0x00009f6a        0xc dist/GOOGLE_IOT/production/__pa_temp_8961/sha2_routines.o
                0x00009f6a                .__pa__192

.__pa__193      0x00009f76        0xc
 .__pa__193     0x00009f76        0xc dist/GOOGLE_IOT/production/__pa_temp_8961/sha2_routines.o
                0x00009f76                .__pa__193

.__pa__194      0x00009f82        0xc
 .__pa__194     0x00009f82        0xc dist/GOOGLE_IOT/production/__pa_temp_8961/sha2_routines.o
                0x00009f82                .__pa__194

.__pa__195      0x00009f8e        0xc
 .__pa__195     0x00009f8e        0xc dist/GOOGLE_IOT/production/__pa_temp_8961/sha2_routines.o
                0x00009f8e                .__pa__195

.__pa__219      0x00009f9a        0xc
 .__pa__219     0x00009f9a        0xc dist/GOOGLE_IOT/production/__pa_temp_8961/sha2_routines.o
                0x00009f9a                .__pa__219

.__pa__272      0x00009fa6        0xc
 .__pa__272     0x00009fa6        0xc dist/GOOGLE_IOT/production/__pa_temp_8961/sha2_routines.o
                0x00009fa6                .__pa__272

.text.atsend    0x00009fb2        0xc
 .text.atsend   0x00009fb2        0xc dist/GOOGLE_IOT/production/__pa_temp_8961/atca_iface.o
                0x00009fb2                atsend

.text.atreceive
                0x00009fbe        0xc
 .text.atreceive
                0x00009fbe        0xc dist/GOOGLE_IOT/production/__pa_temp_8961/atca_iface.o
                0x00009fbe                atreceive

.__pa__27       0x00009fca        0xc
 .__pa__27      0x00009fca        0xc dist/GOOGLE_IOT/production/__pa_temp_8961/mqtt_core.o
                0x00009fca                .__pa__27

.text.RTC_EnablePITInterrupt
                0x00009fd6        0xc
 .text.RTC_EnablePITInterrupt
                0x00009fd6        0xc build/GOOGLE_IOT/production/mcc_generated_files/src/rtc.o
                0x00009fd6                RTC_EnablePITInterrupt

.text.RTC_DisablePITInterrupt
                0x00009fe2        0xc
 .text.RTC_DisablePITInterrupt
                0x00009fe2        0xc build/GOOGLE_IOT/production/mcc_generated_files/src/rtc.o
                0x00009fe2                RTC_DisablePITInterrupt

.text.RTC_ClearOVFInterruptFlag
                0x00009fee        0xc
 .text.RTC_ClearOVFInterruptFlag
                0x00009fee        0xc build/GOOGLE_IOT/production/mcc_generated_files/src/rtc.o
                0x00009fee                RTC_ClearOVFInterruptFlag

.text.RTC_IsOVFInterruptEnabled
                0x00009ffa        0xc
 .text.RTC_IsOVFInterruptEnabled
                0x00009ffa        0xc build/GOOGLE_IOT/production/mcc_generated_files/src/rtc.o
                0x00009ffa                RTC_IsOVFInterruptEnabled

.text.I2C0_MasterDisableIrq
                0x0000a006        0xc
 .text.I2C0_MasterDisableIrq
                0x0000a006        0xc dist/GOOGLE_IOT/production/__pa_temp_8961/twi0_master.o
                0x0000a006                I2C0_MasterDisableIrq

.text.I2C0_MasterClearIrq
                0x0000a012        0xc
 .text.I2C0_MasterClearIrq
                0x0000a012        0xc dist/GOOGLE_IOT/production/__pa_temp_8961/twi0_master.o
                0x0000a012                I2C0_MasterClearIrq

.text.I2C0_MasterBusErrorOverride
                0x0000a01e        0xc
 .text.I2C0_MasterBusErrorOverride
                0x0000a01e        0xc dist/GOOGLE_IOT/production/__pa_temp_8961/twi0_master.o
                0x0000a01e                I2C0_MasterBusErrorOverride

.text.I2C0_MasterArbitrationlostOverride
                0x0000a02a        0xc
 .text.I2C0_MasterArbitrationlostOverride
                0x0000a02a        0xc dist/GOOGLE_IOT/production/__pa_temp_8961/twi0_master.o
                0x0000a02a                I2C0_MasterArbitrationlostOverride

.text.I2C0_MasterClearBusCollision
                0x0000a036        0xc
 .text.I2C0_MasterClearBusCollision
                0x0000a036        0xc dist/GOOGLE_IOT/production/__pa_temp_8961/twi0_master.o
                0x0000a036                I2C0_MasterClearBusCollision

.text.winc_hif_init
                0x0000a042        0xc
 .text.winc_hif_init
                0x0000a042        0xc dist/GOOGLE_IOT/production/__pa_temp_8961/winc_hif.o
                0x0000a042                winc_hif_init

.__pa__245      0x0000a04e        0xc
 .__pa__245     0x0000a04e        0xc dist/GOOGLE_IOT/production/__pa_temp_8961/m2m_wifi.o
                0x0000a04e                .__pa__245

.__pa__204      0x0000a05a        0xc
 .__pa__204     0x0000a05a        0xc dist/GOOGLE_IOT/production/__pa_temp_8961/m2m_ota.o
                0x0000a05a                .__pa__204

.__pa__203      0x0000a066        0xc
 .__pa__203     0x0000a066        0xc dist/GOOGLE_IOT/production/__pa_temp_8961/socket.o
                0x0000a066                .__pa__203

.__pa__14       0x0000a072        0xc
 .__pa__14      0x0000a072        0xc dist/GOOGLE_IOT/production/__pa_temp_8961/sensors_handling.o
                0x0000a072                .__pa__14

.text.libgcc    0x0000a07e        0xc
 .text.libgcc   0x0000a07e        0xc /opt/microchip/xc8/v2.10/avr/bin/../lib/gcc/avr/5.4.0/avrxmega3/libgcc.a(_tablejump2.o)
                0x0000a07e                __tablejump2__

.__pa__73       0x0000a08a        0xa
 .__pa__73      0x0000a08a        0xa dist/GOOGLE_IOT/production/__pa_temp_8961/libc_a_puts.o
                0x0000a08a                .__pa__73

.__pa__134      0x0000a094        0xa
 .__pa__134     0x0000a094        0xa dist/GOOGLE_IOT/production/__pa_temp_8961/libc_a_fputc.o
                0x0000a094                .__pa__134

.text.CLI_setdeviceId
                0x0000a09e        0xa
 .text.CLI_setdeviceId
                0x0000a09e        0xa dist/GOOGLE_IOT/production/__pa_temp_8961/cli.o
                0x0000a09e                CLI_setdeviceId

.__pa__214      0x0000a0a8        0xa
 .__pa__214     0x0000a0a8        0xa dist/GOOGLE_IOT/production/__pa_temp_8961/cli.o
                0x0000a0a8                .__pa__214

.text.CLOUD_publishData
                0x0000a0b2        0xa
 .text.CLOUD_publishData
                0x0000a0b2        0xa dist/GOOGLE_IOT/production/__pa_temp_8961/cloud_service.o
                0x0000a0b2                CLOUD_publishData

.text.CLOUD_checkIsConnected
                0x0000a0bc        0xa
 .text.CLOUD_checkIsConnected
                0x0000a0bc        0xa dist/GOOGLE_IOT/production/__pa_temp_8961/cloud_service.o
                0x0000a0bc                CLOUD_checkIsConnected

.text.MQTT_SetPublishReceptionHandlerTable
                0x0000a0c6        0xa
 .text.MQTT_SetPublishReceptionHandlerTable
                0x0000a0c6        0xa dist/GOOGLE_IOT/production/__pa_temp_8961/mqtt_service.o
                0x0000a0c6                MQTT_SetPublishReceptionHandlerTable

.text.CLOUD_isDisconnected
                0x0000a0d0        0xa
 .text.CLOUD_isDisconnected
                0x0000a0d0        0xa dist/GOOGLE_IOT/production/__pa_temp_8961/google_cloud_service.o
                0x0000a0d0                CLOUD_isDisconnected

.__pa__37       0x0000a0da        0xa
 .__pa__37      0x0000a0da        0xa dist/GOOGLE_IOT/production/__pa_temp_8961/google_cloud_service.o
                0x0000a0da                .__pa__37

.__pa__13       0x0000a0e4        0xa
 .__pa__13      0x0000a0e4        0xa dist/GOOGLE_IOT/production/__pa_temp_8961/atcacert_date.o
                0x0000a0e4                .__pa__13

.__pa__42       0x0000a0ee        0xa
 .__pa__42      0x0000a0ee        0xa dist/GOOGLE_IOT/production/__pa_temp_8961/atcacert_date.o
                0x0000a0ee                .__pa__42

.__pa__48       0x0000a0f8        0xa
 .__pa__48      0x0000a0f8        0xa dist/GOOGLE_IOT/production/__pa_temp_8961/atcacert_date.o
                0x0000a0f8                .__pa__48

.__pa__54       0x0000a102        0xa
 .__pa__54      0x0000a102        0xa dist/GOOGLE_IOT/production/__pa_temp_8961/atcacert_date.o
                0x0000a102                .__pa__54

.__pa__74       0x0000a10c        0xa
 .__pa__74      0x0000a10c        0xa dist/GOOGLE_IOT/production/__pa_temp_8961/atcacert_date.o
                0x0000a10c                .__pa__74

.__pa__76       0x0000a116        0xa
 .__pa__76      0x0000a116        0xa dist/GOOGLE_IOT/production/__pa_temp_8961/atcacert_def.o
                0x0000a116                .__pa__76

.__pa__78       0x0000a120        0xa
 .__pa__78      0x0000a120        0xa dist/GOOGLE_IOT/production/__pa_temp_8961/atcacert_def.o
                0x0000a120                .__pa__78

.__pa__79       0x0000a12a        0xa
 .__pa__79      0x0000a12a        0xa dist/GOOGLE_IOT/production/__pa_temp_8961/atcacert_def.o
                0x0000a12a                .__pa__79

.__pa__135      0x0000a134        0xa
 .__pa__135     0x0000a134        0xa dist/GOOGLE_IOT/production/__pa_temp_8961/atcacert_def.o
                0x0000a134                .__pa__135

.__pa__171      0x0000a13e        0xa
 .__pa__171     0x0000a13e        0xa dist/GOOGLE_IOT/production/__pa_temp_8961/atcacert_def.o
                0x0000a13e                .__pa__171

.__pa__173      0x0000a148        0xa
 .__pa__173     0x0000a148        0xa dist/GOOGLE_IOT/production/__pa_temp_8961/atcacert_def.o
                0x0000a148                .__pa__173

.__pa__252      0x0000a152        0xa
 .__pa__252     0x0000a152        0xa dist/GOOGLE_IOT/production/__pa_temp_8961/atca_basic_secureboot.o
                0x0000a152                .__pa__252

.__pa__121      0x0000a15c        0xa
 .__pa__121     0x0000a15c        0xa dist/GOOGLE_IOT/production/__pa_temp_8961/atca_basic_sha.o
                0x0000a15c                .__pa__121

.__pa__124      0x0000a166        0xa
 .__pa__124     0x0000a166        0xa dist/GOOGLE_IOT/production/__pa_temp_8961/atca_basic_sha.o
                0x0000a166                .__pa__124

.__pa__82       0x0000a170        0xa
 .__pa__82      0x0000a170        0xa dist/GOOGLE_IOT/production/__pa_temp_8961/sha1_routines.o
                0x0000a170                .__pa__82

.__pa__83       0x0000a17a        0xa
 .__pa__83      0x0000a17a        0xa dist/GOOGLE_IOT/production/__pa_temp_8961/sha1_routines.o
                0x0000a17a                .__pa__83

.__pa__251      0x0000a184        0xa
 .__pa__251     0x0000a184        0xa dist/GOOGLE_IOT/production/__pa_temp_8961/sha2_routines.o
                0x0000a184                .__pa__251

.__pa__261      0x0000a18e        0xa
 .__pa__261     0x0000a18e        0xa dist/GOOGLE_IOT/production/__pa_temp_8961/sha2_routines.o
                0x0000a18e                .__pa__261

.__pa__273      0x0000a198        0xa
 .__pa__273     0x0000a198        0xa dist/GOOGLE_IOT/production/__pa_temp_8961/sha2_routines.o
                0x0000a198                .__pa__273

.__pa__276      0x0000a1a2        0xa
 .__pa__276     0x0000a1a2        0xa dist/GOOGLE_IOT/production/__pa_temp_8961/sha2_routines.o
                0x0000a1a2                .__pa__276

.__pa__277      0x0000a1ac        0xa
 .__pa__277     0x0000a1ac        0xa dist/GOOGLE_IOT/production/__pa_temp_8961/sha2_routines.o
                0x0000a1ac                .__pa__277

.__pa__28       0x0000a1b6        0xa
 .__pa__28      0x0000a1b6        0xa dist/GOOGLE_IOT/production/__pa_temp_8961/atca_i2c_hal.o
                0x0000a1b6                .__pa__28

.__pa__105      0x0000a1c0        0xa
 .__pa__105     0x0000a1c0        0xa dist/GOOGLE_IOT/production/__pa_temp_8961/atca_i2c_hal.o
                0x0000a1c0                .__pa__105

.__pa__104      0x0000a1ca        0xa
 .__pa__104     0x0000a1ca        0xa dist/GOOGLE_IOT/production/__pa_temp_8961/atca_command.o
                0x0000a1ca                .__pa__104

.__pa__182      0x0000a1d4        0xa
 .__pa__182     0x0000a1d4        0xa dist/GOOGLE_IOT/production/__pa_temp_8961/atca_iface.o
                0x0000a1d4                .__pa__182

.__pa__143      0x0000a1de        0xa
 .__pa__143     0x0000a1de        0xa dist/GOOGLE_IOT/production/__pa_temp_8961/timeout.o
                0x0000a1de                .__pa__143

.__pa__240      0x0000a1e8        0xa
 .__pa__240     0x0000a1e8        0xa dist/GOOGLE_IOT/production/__pa_temp_8961/timeout.o
                0x0000a1e8                .__pa__240

.__pa__30       0x0000a1f2        0xa
 .__pa__30      0x0000a1f2        0xa dist/GOOGLE_IOT/production/__pa_temp_8961/i2c_simple_master.o
                0x0000a1f2                .__pa__30

.__pa__36       0x0000a1fc        0xa
 .__pa__36      0x0000a1fc        0xa dist/GOOGLE_IOT/production/__pa_temp_8961/i2c_simple_master.o
                0x0000a1fc                .__pa__36

.__pa__98       0x0000a206        0xa
 .__pa__98      0x0000a206        0xa dist/GOOGLE_IOT/production/__pa_temp_8961/mqtt_core.o
                0x0000a206                .__pa__98

.__pa__235      0x0000a210        0xa
 .__pa__235     0x0000a210        0xa dist/GOOGLE_IOT/production/__pa_temp_8961/mqtt_core.o
                0x0000a210                .__pa__235

.text.MQTT_SetPublishReceptionCallback
                0x0000a21a        0xa
 .text.MQTT_SetPublishReceptionCallback
                0x0000a21a        0xa build/GOOGLE_IOT/production/mcc_generated_files/mqtt/mqtt_packetTransfer_interface.o
                0x0000a21a                MQTT_SetPublishReceptionCallback

.text.MQTT_GetPublishReceptionCallback
                0x0000a224        0xa
 .text.MQTT_GetPublishReceptionCallback
                0x0000a224        0xa build/GOOGLE_IOT/production/mcc_generated_files/mqtt/mqtt_packetTransfer_interface.o
                0x0000a224                MQTT_GetPublishReceptionCallback

.text.BSD_SetRecvHandlerTable
                0x0000a22e        0xa
 .text.BSD_SetRecvHandlerTable
                0x0000a22e        0xa dist/GOOGLE_IOT/production/__pa_temp_8961/mqtt_winc_adapter.o
                0x0000a22e                BSD_SetRecvHandlerTable

.text.PORTF_INT_SetInterruptHandler
                0x0000a238        0xa
 .text.PORTF_INT_SetInterruptHandler
                0x0000a238        0xa dist/GOOGLE_IOT/production/__pa_temp_8961/pin_manager.o
                0x0000a238                PORTF_INT_SetInterruptHandler

.text.RTC_SetOVFIsrCallback
                0x0000a242        0xa
 .text.RTC_SetOVFIsrCallback
                0x0000a242        0xa build/GOOGLE_IOT/production/mcc_generated_files/src/rtc.o
                0x0000a242                RTC_SetOVFIsrCallback

.text.RTC_ReadCounter
                0x0000a24c        0xa
 .text.RTC_ReadCounter
                0x0000a24c        0xa build/GOOGLE_IOT/production/mcc_generated_files/src/rtc.o
                0x0000a24c                RTC_ReadCounter

.text.I2C0_SetDataCompleteCallback
                0x0000a256        0xa
 .text.I2C0_SetDataCompleteCallback
                0x0000a256        0xa dist/GOOGLE_IOT/production/__pa_temp_8961/twi0_master.o
                0x0000a256                I2C0_SetDataCompleteCallback

.text.I2C0_SetAddressNackCallback
                0x0000a260        0xa
 .text.I2C0_SetAddressNackCallback
                0x0000a260        0xa dist/GOOGLE_IOT/production/__pa_temp_8961/twi0_master.o
                0x0000a260                I2C0_SetAddressNackCallback

.text.I2C0_MasterIsRxOrTx
                0x0000a26a        0xa
 .text.I2C0_MasterIsRxOrTx
                0x0000a26a        0xa dist/GOOGLE_IOT/production/__pa_temp_8961/twi0_master.o
                0x0000a26a                I2C0_MasterIsRxOrTx

.text.I2C0_MasterStop
                0x0000a274        0xa
 .text.I2C0_MasterStop
                0x0000a274        0xa dist/GOOGLE_IOT/production/__pa_temp_8961/twi0_master.o
                0x0000a274                I2C0_MasterStop

.text.I2C0_MasterIsNack
                0x0000a27e        0xa
 .text.I2C0_MasterIsNack
                0x0000a27e        0xa dist/GOOGLE_IOT/production/__pa_temp_8961/twi0_master.o
                0x0000a27e                I2C0_MasterIsNack

.text.I2C0_MasterSendAck
                0x0000a288        0xa
 .text.I2C0_MasterSendAck
                0x0000a288        0xa dist/GOOGLE_IOT/production/__pa_temp_8961/twi0_master.o
                0x0000a288                I2C0_MasterSendAck

.text.I2C0_MasterSendNack
                0x0000a292        0xa
 .text.I2C0_MasterSendNack
                0x0000a292        0xa dist/GOOGLE_IOT/production/__pa_temp_8961/twi0_master.o
                0x0000a292                I2C0_MasterSendNack

.text.USART2_printCHAR
                0x0000a29c        0xa
 .text.USART2_printCHAR
                0x0000a29c        0xa build/GOOGLE_IOT/production/mcc_generated_files/src/usart2.o
                0x0000a29c                USART2_printCHAR

.text.winc_bus_deinit
                0x0000a2a6        0xa
 .text.winc_bus_deinit
                0x0000a2a6        0xa dist/GOOGLE_IOT/production/__pa_temp_8961/winc_spi.o
                0x0000a2a6                winc_bus_deinit

.__pa__227      0x0000a2b0        0xa
 .__pa__227     0x0000a2b0        0xa dist/GOOGLE_IOT/production/__pa_temp_8961/winc_adapter.o
                0x0000a2b0                .__pa__227

.__pa__265      0x0000a2ba        0xa
 .__pa__265     0x0000a2ba        0xa dist/GOOGLE_IOT/production/__pa_temp_8961/winc_hif.o
                0x0000a2ba                .__pa__265

.__pa__35       0x0000a2c4        0xa
 .__pa__35      0x0000a2c4        0xa dist/GOOGLE_IOT/production/__pa_temp_8961/winc_asic.o
                0x0000a2c4                .__pa__35

.__pa__230      0x0000a2ce        0xa
 .__pa__230     0x0000a2ce        0xa dist/GOOGLE_IOT/production/__pa_temp_8961/winc_asic.o
                0x0000a2ce                .__pa__230

.__pa__263      0x0000a2d8        0xa
 .__pa__263     0x0000a2d8        0xa dist/GOOGLE_IOT/production/__pa_temp_8961/winc_asic.o
                0x0000a2d8                .__pa__263

.__pa__264      0x0000a2e2        0xa
 .__pa__264     0x0000a2e2        0xa dist/GOOGLE_IOT/production/__pa_temp_8961/winc_asic.o
                0x0000a2e2                .__pa__264

.__pa__24       0x0000a2ec        0xa
 .__pa__24      0x0000a2ec        0xa dist/GOOGLE_IOT/production/__pa_temp_8961/m2m_wifi.o
                0x0000a2ec                .__pa__24

.__pa__130      0x0000a2f6        0xa
 .__pa__130     0x0000a2f6        0xa dist/GOOGLE_IOT/production/__pa_temp_8961/m2m_wifi.o
                0x0000a2f6                .__pa__130

.__pa__53       0x0000a300        0xa
 .__pa__53      0x0000a300        0xa dist/GOOGLE_IOT/production/__pa_temp_8961/m2m_ota.o
                0x0000a300                .__pa__53

.__pa__258      0x0000a30a        0xa
 .__pa__258     0x0000a30a        0xa dist/GOOGLE_IOT/production/__pa_temp_8961/m2m_ota.o
                0x0000a30a                .__pa__258

.__pa__72       0x0000a314        0xa
 .__pa__72      0x0000a314        0xa dist/GOOGLE_IOT/production/__pa_temp_8961/socket.o
                0x0000a314                .__pa__72

.__pa__77       0x0000a31e        0xa
 .__pa__77      0x0000a31e        0xa dist/GOOGLE_IOT/production/__pa_temp_8961/socket.o
                0x0000a31e                .__pa__77

.__pa__144      0x0000a328        0xa
 .__pa__144     0x0000a328        0xa dist/GOOGLE_IOT/production/__pa_temp_8961/socket.o
                0x0000a328                .__pa__144

.__pa__244      0x0000a332        0xa
 .__pa__244     0x0000a332        0xa dist/GOOGLE_IOT/production/__pa_temp_8961/socket.o
                0x0000a332                .__pa__244

.__pa__249      0x0000a33c        0xa
 .__pa__249     0x0000a33c        0xa dist/GOOGLE_IOT/production/__pa_temp_8961/socket.o
                0x0000a33c                .__pa__249

.__pa__250      0x0000a346        0xa
 .__pa__250     0x0000a346        0xa dist/GOOGLE_IOT/production/__pa_temp_8961/socket.o
                0x0000a346                .__pa__250

.__pa__170      0x0000a350        0xa
 .__pa__170     0x0000a350        0xa dist/GOOGLE_IOT/production/__pa_temp_8961/spi_flash.o
                0x0000a350                .__pa__170

.__pa__255      0x0000a35a        0xa
 .__pa__255     0x0000a35a        0xa dist/GOOGLE_IOT/production/__pa_temp_8961/spi_flash.o
                0x0000a35a                .__pa__255

.text.wifiConnectionStateChanged
                0x0000a364        0xa
 .text.wifiConnectionStateChanged
                0x0000a364        0xa dist/GOOGLE_IOT/production/__pa_temp_8961/application_manager.o

.text.debug_init
                0x0000a36e        0xa
 .text.debug_init
                0x0000a36e        0xa dist/GOOGLE_IOT/production/__pa_temp_8961/debug_print.o
                0x0000a36e                debug_init

.text.LED_modeRed
                0x0000a378        0xa
 .text.LED_modeRed
                0x0000a378        0xa build/GOOGLE_IOT/production/mcc_generated_files/led.o
                0x0000a378                LED_modeRed

.text.LED_modeBlue
                0x0000a382        0xa
 .text.LED_modeBlue
                0x0000a382        0xa build/GOOGLE_IOT/production/mcc_generated_files/led.o
                0x0000a382                LED_modeBlue

.text.LED_modeGreen
                0x0000a38c        0xa
 .text.LED_modeGreen
                0x0000a38c        0xa build/GOOGLE_IOT/production/mcc_generated_files/led.o
                0x0000a38c                LED_modeGreen

.text.LED_modeYellow
                0x0000a396        0xa
 .text.LED_modeYellow
                0x0000a396        0xa build/GOOGLE_IOT/production/mcc_generated_files/led.o
                0x0000a396                LED_modeYellow

.text.TIME_getOffset_UNIX
                0x0000a3a0        0xa
 .text.TIME_getOffset_UNIX
                0x0000a3a0        0xa dist/GOOGLE_IOT/production/__pa_temp_8961/time_service.o
                0x0000a3a0                TIME_getOffset_UNIX

.text.startup.main
                0x0000a3aa        0xa
 .text.startup.main
                0x0000a3aa        0xa build/GOOGLE_IOT/production/main.o
                0x0000a3aa                main

.text.avrlibc   0x0000a3b4        0xa
 .text.avrlibc  0x0000a3b4        0xa /opt/microchip/xc8/v2.10/avr/bin/../lib/gcc/avr/5.4.0/../../../../avr/lib/avrxmega3/libc.a(strtok.o)
                0x0000a3b4                strtok

.text           0x0000a3be        0xa
 .text          0x0000a3be        0xa /opt/microchip/xc8/v2.10/avr/bin/../lib/gcc/avr/5.4.0/../../../../avr/lib/avrxmega3/libc.a(difftime.o)
                0x0000a3be                difftime

.__pa__32       0x0000a3c8        0x8
 .__pa__32      0x0000a3c8        0x8 dist/GOOGLE_IOT/production/__pa_temp_8961/cloud_service.o
                0x0000a3c8                .__pa__32

.__pa__113      0x0000a3d0        0x8
 .__pa__113     0x0000a3d0        0x8 dist/GOOGLE_IOT/production/__pa_temp_8961/atcacert_client.o
                0x0000a3d0                .__pa__113

.__pa__163      0x0000a3d8        0x8
 .__pa__163     0x0000a3d8        0x8 dist/GOOGLE_IOT/production/__pa_temp_8961/atcacert_client.o
                0x0000a3d8                .__pa__163

.__pa__123      0x0000a3e0        0x8
 .__pa__123     0x0000a3e0        0x8 dist/GOOGLE_IOT/production/__pa_temp_8961/atcacert_date.o
                0x0000a3e0                .__pa__123

.__pa__3        0x0000a3e8        0x8
 .__pa__3       0x0000a3e8        0x8 dist/GOOGLE_IOT/production/__pa_temp_8961/atcacert_def.o
                0x0000a3e8                .__pa__3

.__pa__34       0x0000a3f0        0x8
 .__pa__34      0x0000a3f0        0x8 dist/GOOGLE_IOT/production/__pa_temp_8961/atcacert_def.o
                0x0000a3f0                .__pa__34

.__pa__60       0x0000a3f8        0x8
 .__pa__60      0x0000a3f8        0x8 dist/GOOGLE_IOT/production/__pa_temp_8961/atcacert_def.o
                0x0000a3f8                .__pa__60

.__pa__80       0x0000a400        0x8
 .__pa__80      0x0000a400        0x8 dist/GOOGLE_IOT/production/__pa_temp_8961/atcacert_def.o
                0x0000a400                .__pa__80

.__pa__119      0x0000a408        0x8
 .__pa__119     0x0000a408        0x8 dist/GOOGLE_IOT/production/__pa_temp_8961/atcacert_def.o
                0x0000a408                .__pa__119

.__pa__147      0x0000a410        0x8
 .__pa__147     0x0000a410        0x8 dist/GOOGLE_IOT/production/__pa_temp_8961/atcacert_def.o
                0x0000a410                .__pa__147

.__pa__148      0x0000a418        0x8
 .__pa__148     0x0000a418        0x8 dist/GOOGLE_IOT/production/__pa_temp_8961/atcacert_def.o
                0x0000a418                .__pa__148

.__pa__149      0x0000a420        0x8
 .__pa__149     0x0000a420        0x8 dist/GOOGLE_IOT/production/__pa_temp_8961/atcacert_def.o
                0x0000a420                .__pa__149

.__pa__152      0x0000a428        0x8
 .__pa__152     0x0000a428        0x8 dist/GOOGLE_IOT/production/__pa_temp_8961/atcacert_def.o
                0x0000a428                .__pa__152

.__pa__157      0x0000a430        0x8
 .__pa__157     0x0000a430        0x8 dist/GOOGLE_IOT/production/__pa_temp_8961/atcacert_def.o
                0x0000a430                .__pa__157

.__pa__165      0x0000a438        0x8
 .__pa__165     0x0000a438        0x8 dist/GOOGLE_IOT/production/__pa_temp_8961/atcacert_def.o
                0x0000a438                .__pa__165

.__pa__166      0x0000a440        0x8
 .__pa__166     0x0000a440        0x8 dist/GOOGLE_IOT/production/__pa_temp_8961/atcacert_def.o
                0x0000a440                .__pa__166

.__pa__167      0x0000a448        0x8
 .__pa__167     0x0000a448        0x8 dist/GOOGLE_IOT/production/__pa_temp_8961/atcacert_def.o
                0x0000a448                .__pa__167

.__pa__189      0x0000a450        0x8
 .__pa__189     0x0000a450        0x8 dist/GOOGLE_IOT/production/__pa_temp_8961/atcacert_def.o
                0x0000a450                .__pa__189

.__pa__62       0x0000a458        0x8
 .__pa__62      0x0000a458        0x8 dist/GOOGLE_IOT/production/__pa_temp_8961/atca_basic_secureboot.o
                0x0000a458                .__pa__62

.__pa__241      0x0000a460        0x8
 .__pa__241     0x0000a460        0x8 dist/GOOGLE_IOT/production/__pa_temp_8961/atca_basic_write.o
                0x0000a460                .__pa__241

.__pa__190      0x0000a468        0x8
 .__pa__190     0x0000a468        0x8 dist/GOOGLE_IOT/production/__pa_temp_8961/sha2_routines.o
                0x0000a468                .__pa__190

.text.atgetifacecfg
                0x0000a470        0x8
 .text.atgetifacecfg
                0x0000a470        0x8 dist/GOOGLE_IOT/production/__pa_temp_8961/atca_iface.o
                0x0000a470                atgetifacecfg

.text.timeout_initialize
                0x0000a478        0x8
 .text.timeout_initialize
                0x0000a478        0x8 dist/GOOGLE_IOT/production/__pa_temp_8961/timeout.o
                0x0000a478                timeout_initialize

.__pa__108      0x0000a480        0x8
 .__pa__108     0x0000a480        0x8 dist/GOOGLE_IOT/production/__pa_temp_8961/timeout.o
                0x0000a480                .__pa__108

.__pa__233      0x0000a488        0x8
 .__pa__233     0x0000a488        0x8 dist/GOOGLE_IOT/production/__pa_temp_8961/mqtt_core.o
                0x0000a488                .__pa__233

.__pa__207      0x0000a490        0x8
 .__pa__207     0x0000a490        0x8 dist/GOOGLE_IOT/production/__pa_temp_8961/mqtt_winc_adapter.o
                0x0000a490                .__pa__207

.__pa__210      0x0000a498        0x8
 .__pa__210     0x0000a498        0x8 dist/GOOGLE_IOT/production/__pa_temp_8961/mqtt_winc_adapter.o
                0x0000a498                .__pa__210

.__pa__7        0x0000a4a0        0x8
 .__pa__7       0x0000a4a0        0x8 dist/GOOGLE_IOT/production/__pa_temp_8961/pin_manager.o
                0x0000a4a0                .__pa__7

.text.protected_write_io
                0x0000a4a8        0x8
 .text.protected_write_io
                0x0000a4a8        0x8 build/GOOGLE_IOT/production/mcc_generated_files/src/protected_io.o
                0x0000a4a8                protected_write_io

.text.I2C0_DO_TX_ACK
                0x0000a4b0        0x8
 .text.I2C0_DO_TX_ACK
                0x0000a4b0        0x8 dist/GOOGLE_IOT/production/__pa_temp_8961/twi0_master.o

.text.I2C0_DO_RX_ACK
                0x0000a4b8        0x8
 .text.I2C0_DO_RX_ACK
                0x0000a4b8        0x8 dist/GOOGLE_IOT/production/__pa_temp_8961/twi0_master.o

.text.I2C0_DO_RX_NACK_RESTART
                0x0000a4c0        0x8
 .text.I2C0_DO_RX_NACK_RESTART
                0x0000a4c0        0x8 dist/GOOGLE_IOT/production/__pa_temp_8961/twi0_master.o

.__pa__6        0x0000a4c8        0x8
 .__pa__6       0x0000a4c8        0x8 dist/GOOGLE_IOT/production/__pa_temp_8961/twi0_master.o
                0x0000a4c8                .__pa__6

.__pa__228      0x0000a4d0        0x8
 .__pa__228     0x0000a4d0        0x8 dist/GOOGLE_IOT/production/__pa_temp_8961/twi0_master.o
                0x0000a4d0                .__pa__228

.text.ADC0_IsConversionDone
                0x0000a4d8        0x8
 .text.ADC0_IsConversionDone
                0x0000a4d8        0x8 build/GOOGLE_IOT/production/mcc_generated_files/src/adc0.o
                0x0000a4d8                ADC0_IsConversionDone

.text.winc_adapter_chip_enable_assert
                0x0000a4e0        0x8
 .text.winc_adapter_chip_enable_assert
                0x0000a4e0        0x8 dist/GOOGLE_IOT/production/__pa_temp_8961/winc_adapter.o
                0x0000a4e0                winc_adapter_chip_enable_assert

.text.winc_adapter_chip_enable_deassert
                0x0000a4e8        0x8
 .text.winc_adapter_chip_enable_deassert
                0x0000a4e8        0x8 dist/GOOGLE_IOT/production/__pa_temp_8961/winc_adapter.o
                0x0000a4e8                winc_adapter_chip_enable_deassert

.text.winc_adapter_reset_assert
                0x0000a4f0        0x8
 .text.winc_adapter_reset_assert
                0x0000a4f0        0x8 dist/GOOGLE_IOT/production/__pa_temp_8961/winc_adapter.o
                0x0000a4f0                winc_adapter_reset_assert

.text.winc_adapter_reset_deassert
                0x0000a4f8        0x8
 .text.winc_adapter_reset_deassert
                0x0000a4f8        0x8 dist/GOOGLE_IOT/production/__pa_temp_8961/winc_adapter.o
                0x0000a4f8                winc_adapter_reset_deassert

.__pa__256      0x0000a500        0x8
 .__pa__256     0x0000a500        0x8 dist/GOOGLE_IOT/production/__pa_temp_8961/winc_asic.o
                0x0000a500                .__pa__256

.__pa__132      0x0000a508        0x8
 .__pa__132     0x0000a508        0x8 dist/GOOGLE_IOT/production/__pa_temp_8961/m2m_wifi.o
                0x0000a508                .__pa__132

.__pa__71       0x0000a510        0x8
 .__pa__71      0x0000a510        0x8 dist/GOOGLE_IOT/production/__pa_temp_8961/socket.o
                0x0000a510                .__pa__71

.text.ccp_write_io
                0x0000a518        0x8
 .text.ccp_write_io
                0x0000a518        0x8 build/GOOGLE_IOT/production/mcc_generated_files/mcc.o

.__pa__59       0x0000a520        0x8
 .__pa__59      0x0000a520        0x8 dist/GOOGLE_IOT/production/__pa_temp_8961/application_manager.o
                0x0000a520                .__pa__59

.__pa__21       0x0000a528        0x8
 .__pa__21      0x0000a528        0x8 dist/GOOGLE_IOT/production/__pa_temp_8961/sensors_handling.o
                0x0000a528                .__pa__21

.text.avrlibc   0x0000a530        0x8
 .text.avrlibc  0x0000a530        0x8 /opt/microchip/xc8/v2.10/avr/bin/../lib/gcc/avr/5.4.0/../../../../avr/lib/avrxmega3/libc.a(atoi_M.o)
                0x0000a530                atoi

.text.libgcc.div
                0x0000a538        0x6
 .text.libgcc.div
                0x0000a538        0x6 dist/GOOGLE_IOT/production/__pa_temp_8961/libgcc_a__negsi2.o
                0x0000a538                __negsi2

.text.WINC_open
                0x0000a53e        0x6
 .text.WINC_open
                0x0000a53e        0x6 build/GOOGLE_IOT/production/mcc_generated_files/drivers/spi_master.o
                0x0000a53e                WINC_open

.text.dummyHandler
                0x0000a544        0x6
 .text.dummyHandler
                0x0000a544        0x6 dist/GOOGLE_IOT/production/__pa_temp_8961/timeout.o
                0x0000a544                dummyHandler

.text.MQTT_GetClientConnectionInfo
                0x0000a54a        0x6
 .text.MQTT_GetClientConnectionInfo
                0x0000a54a        0x6 dist/GOOGLE_IOT/production/__pa_temp_8961/mqtt_comm_layer.o
                0x0000a54a                MQTT_GetClientConnectionInfo

.text.MQTT_initialiseState
                0x0000a550        0x6
 .text.MQTT_initialiseState
                0x0000a550        0x6 dist/GOOGLE_IOT/production/__pa_temp_8961/mqtt_core.o
                0x0000a550                MQTT_initialiseState

.text.MQTT_GetConnectionState
                0x0000a556        0x6
 .text.MQTT_GetConnectionState
                0x0000a556        0x6 dist/GOOGLE_IOT/production/__pa_temp_8961/mqtt_core.o
                0x0000a556                MQTT_GetConnectionState

.text.MQTT_GetLastHandlerState
                0x0000a55c        0x6
 .text.MQTT_GetLastHandlerState
                0x0000a55c        0x6 dist/GOOGLE_IOT/production/__pa_temp_8961/mqtt_core.o
                0x0000a55c                MQTT_GetLastHandlerState

.text.MQTT_GetLastReceivedPacketHeader
                0x0000a562        0x6
 .text.MQTT_GetLastReceivedPacketHeader
                0x0000a562        0x6 dist/GOOGLE_IOT/production/__pa_temp_8961/mqtt_core.o
                0x0000a562                MQTT_GetLastReceivedPacketHeader

.text.BSD_htons
                0x0000a568        0x6
 .text.BSD_htons
                0x0000a568        0x6 dist/GOOGLE_IOT/production/__pa_temp_8961/mqtt_winc_adapter.o
                0x0000a568                BSD_htons

.text.SPI0_Close
                0x0000a56e        0x6
 .text.SPI0_Close
                0x0000a56e        0x6 build/GOOGLE_IOT/production/mcc_generated_files/src/spi0.o
                0x0000a56e                SPI0_Close

.text.SPI0_WriteByte
                0x0000a574        0x6
 .text.SPI0_WriteByte
                0x0000a574        0x6 build/GOOGLE_IOT/production/mcc_generated_files/src/spi0.o
                0x0000a574                SPI0_WriteByte

.text.SPI0_ReadByte
                0x0000a57a        0x6
 .text.SPI0_ReadByte
                0x0000a57a        0x6 build/GOOGLE_IOT/production/mcc_generated_files/src/spi0.o
                0x0000a57a                SPI0_ReadByte

.text.I2C0_MasterRead
                0x0000a580        0x6
 .text.I2C0_MasterRead
                0x0000a580        0x6 dist/GOOGLE_IOT/production/__pa_temp_8961/twi0_master.o
                0x0000a580                I2C0_MasterRead

.text.I2C0_MasterWrite
                0x0000a586        0x6
 .text.I2C0_MasterWrite
                0x0000a586        0x6 dist/GOOGLE_IOT/production/__pa_temp_8961/twi0_master.o
                0x0000a586                I2C0_MasterWrite

.text.winc_bus_error
                0x0000a58c        0x6
 .text.winc_bus_error
                0x0000a58c        0x6 dist/GOOGLE_IOT/production/__pa_temp_8961/winc_spi.o
                0x0000a58c                winc_bus_error

.text.debug_setSeverity
                0x0000a592        0x6
 .text.debug_setSeverity
                0x0000a592        0x6 dist/GOOGLE_IOT/production/__pa_temp_8961/debug_print.o
                0x0000a592                debug_setSeverity

.text.SENSORS_getLightValue
                0x0000a598        0x6
 .text.SENSORS_getLightValue
                0x0000a598        0x6 dist/GOOGLE_IOT/production/__pa_temp_8961/sensors_handling.o
                0x0000a598                SENSORS_getLightValue

.text           0x0000a59e        0x4
 .text          0x0000a59e        0x4 /opt/microchip/mplabx/v5.30/packs/Microchip/ATmega_DFP/2.0.12/gcc/dev/atmega4808/avrxmega3/crtatmega4808.o
                0x0000a59e                __vector_28
                0x0000a59e                __vector_1
                0x0000a59e                __vector_34
                0x0000a59e                __vector_24
                0x0000a59e                __vector_12
                0x0000a59e                __bad_interrupt
                0x0000a59e                __vector_6
                0x0000a59e                __vector_35
                0x0000a59e                __vector_30
                0x0000a59e                __vector_25
                0x0000a59e                __vector_11
                0x0000a59e                __vector_13
                0x0000a59e                __vector_17
                0x0000a59e                __vector_19
                0x0000a59e                __vector_7
                0x0000a59e                __vector_27
                0x0000a59e                __vector_5
                0x0000a59e                __vector_9
                0x0000a59e                __vector_21
                0x0000a59e                __vector_15
                0x0000a59e                __vector_8
                0x0000a59e                __vector_26
                0x0000a59e                __vector_14
                0x0000a59e                __vector_10
                0x0000a59e                __vector_16
                0x0000a59e                __vector_18
                0x0000a59e                __vector_20

.text.MQTT_CLIENT_receive
                0x0000a5a2        0x4
 .text.MQTT_CLIENT_receive
                0x0000a5a2        0x4 dist/GOOGLE_IOT/production/__pa_temp_8961/mqtt_service.o
                0x0000a5a2                MQTT_CLIENT_receive

.text.CLOUD_publish
                0x0000a5a6        0x4
 .text.CLOUD_publish
                0x0000a5a6        0x4 dist/GOOGLE_IOT/production/__pa_temp_8961/google_cloud_service.o
                0x0000a5a6                CLOUD_publish

.text.hal_i2c_post_init
                0x0000a5aa        0x4
 .text.hal_i2c_post_init
                0x0000a5aa        0x4 dist/GOOGLE_IOT/production/__pa_temp_8961/atca_i2c_hal.o
                0x0000a5aa                hal_i2c_post_init

.text.hal_i2c_release
                0x0000a5ae        0x4
 .text.hal_i2c_release
                0x0000a5ae        0x4 dist/GOOGLE_IOT/production/__pa_temp_8961/atca_i2c_hal.o
                0x0000a5ae                hal_i2c_release

.text.RTC_EnableOVFInterrupt
                0x0000a5b2        0x4
 .text.RTC_EnableOVFInterrupt
                0x0000a5b2        0x4 build/GOOGLE_IOT/production/mcc_generated_files/src/rtc.o
                0x0000a5b2                RTC_EnableOVFInterrupt

.text.RTC_DisableOVFInterrupt
                0x0000a5b6        0x4
 .text.RTC_DisableOVFInterrupt
                0x0000a5b6        0x4 build/GOOGLE_IOT/production/mcc_generated_files/src/rtc.o
                0x0000a5b6                RTC_DisableOVFInterrupt

.text.I2C0_DO_SEND_RESTART
                0x0000a5ba        0x4
 .text.I2C0_DO_SEND_RESTART
                0x0000a5ba        0x4 dist/GOOGLE_IOT/production/__pa_temp_8961/twi0_master.o

.text.I2C0_DO_SEND_RESTART_WRITE
                0x0000a5be        0x4
 .text.I2C0_DO_SEND_RESTART_WRITE
                0x0000a5be        0x4 dist/GOOGLE_IOT/production/__pa_temp_8961/twi0_master.o

.text.I2C0_RETURN_RESET
                0x0000a5c2        0x4
 .text.I2C0_RETURN_RESET
                0x0000a5c2        0x4 dist/GOOGLE_IOT/production/__pa_temp_8961/twi0_master.o

.text.I2C0_RETURN_STOP
                0x0000a5c6        0x4
 .text.I2C0_RETURN_STOP
                0x0000a5c6        0x4 dist/GOOGLE_IOT/production/__pa_temp_8961/twi0_master.o

.text.I2C0_DO_SEND_RESTART_READ
                0x0000a5ca        0x4
 .text.I2C0_DO_SEND_RESTART_READ
                0x0000a5ca        0x4 dist/GOOGLE_IOT/production/__pa_temp_8961/twi0_master.o

.text.I2C0_SetRestartWriteCallback
                0x0000a5ce        0x4
 .text.I2C0_SetRestartWriteCallback
                0x0000a5ce        0x4 dist/GOOGLE_IOT/production/__pa_temp_8961/twi0_master.o
                0x0000a5ce                I2C0_SetRestartWriteCallback

.text.winc_adapter_deinit
                0x0000a5d2        0x4
 .text.winc_adapter_deinit
                0x0000a5d2        0x4 dist/GOOGLE_IOT/production/__pa_temp_8961/winc_adapter.o
                0x0000a5d2                winc_adapter_deinit

.text.winc_adapter_spi_open
                0x0000a5d6        0x4
 .text.winc_adapter_spi_open
                0x0000a5d6        0x4 dist/GOOGLE_IOT/production/__pa_temp_8961/winc_adapter.o
                0x0000a5d6                winc_adapter_spi_open

.text.winc_adapter_spi_close
                0x0000a5da        0x4
 .text.winc_adapter_spi_close
                0x0000a5da        0x4 dist/GOOGLE_IOT/production/__pa_temp_8961/winc_adapter.o
                0x0000a5da                winc_adapter_spi_close

.text.winc_hif_deinit
                0x0000a5de        0x4
 .text.winc_hif_deinit
                0x0000a5de        0x4 dist/GOOGLE_IOT/production/__pa_temp_8961/winc_hif.o
                0x0000a5de                winc_hif_deinit

.text.m2m_wifi_handle_events
                0x0000a5e2        0x4
 .text.m2m_wifi_handle_events
                0x0000a5e2        0x4 dist/GOOGLE_IOT/production/__pa_temp_8961/m2m_wifi.o
                0x0000a5e2                m2m_wifi_handle_events

.text.runScheduler
                0x0000a5e6        0x4
 .text.runScheduler
                0x0000a5e6        0x4 dist/GOOGLE_IOT/production/__pa_temp_8961/application_manager.o
                0x0000a5e6                runScheduler

.text.TIME_getDiffTime
                0x0000a5ea        0x4
 .text.TIME_getDiffTime
                0x0000a5ea        0x4 dist/GOOGLE_IOT/production/__pa_temp_8961/time_service.o
                0x0000a5ea                TIME_getDiffTime

.text.PORTF_WAKE_DefaultInterruptHandler
                0x0000a5ee        0x2
 .text.PORTF_WAKE_DefaultInterruptHandler
                0x0000a5ee        0x2 dist/GOOGLE_IOT/production/__pa_temp_8961/pin_manager.o
                0x0000a5ee                PORTF_WAKE_DefaultInterruptHandler

.text.PORTF_SW0_DefaultInterruptHandler
                0x0000a5f0        0x2
 .text.PORTF_SW0_DefaultInterruptHandler
                0x0000a5f0        0x2 dist/GOOGLE_IOT/production/__pa_temp_8961/pin_manager.o
                0x0000a5f0                PORTF_SW0_DefaultInterruptHandler

.text.PORTF_PF1_DefaultInterruptHandler
                0x0000a5f2        0x2
 .text.PORTF_PF1_DefaultInterruptHandler
                0x0000a5f2        0x2 dist/GOOGLE_IOT/production/__pa_temp_8961/pin_manager.o
                0x0000a5f2                PORTF_PF1_DefaultInterruptHandler

.text.PORTF_PF0_DefaultInterruptHandler
                0x0000a5f4        0x2
 .text.PORTF_PF0_DefaultInterruptHandler
                0x0000a5f4        0x2 dist/GOOGLE_IOT/production/__pa_temp_8961/pin_manager.o
                0x0000a5f4                PORTF_PF0_DefaultInterruptHandler

.text.PORTF_CE_DefaultInterruptHandler
                0x0000a5f6        0x2
 .text.PORTF_CE_DefaultInterruptHandler
                0x0000a5f6        0x2 dist/GOOGLE_IOT/production/__pa_temp_8961/pin_manager.o
                0x0000a5f6                PORTF_CE_DefaultInterruptHandler

.text.PORTF_INT_DefaultInterruptHandler
                0x0000a5f8        0x2
 .text.PORTF_INT_DefaultInterruptHandler
                0x0000a5f8        0x2 dist/GOOGLE_IOT/production/__pa_temp_8961/pin_manager.o
                0x0000a5f8                PORTF_INT_DefaultInterruptHandler

.text.PORTF_SW1_DefaultInterruptHandler
                0x0000a5fa        0x2
 .text.PORTF_SW1_DefaultInterruptHandler
                0x0000a5fa        0x2 dist/GOOGLE_IOT/production/__pa_temp_8961/pin_manager.o
                0x0000a5fa                PORTF_SW1_DefaultInterruptHandler

.text.hif_null_cb
                0x0000a5fc        0x2
 .text.hif_null_cb
                0x0000a5fc        0x2 dist/GOOGLE_IOT/production/__pa_temp_8961/winc_hif.o

.data.WiFiCbTable
                0x008030a8       0x2d load address 0x0000a5fe
 .data.WiFiCbTable
                0x008030a8       0x2d dist/GOOGLE_IOT/production/__pa_temp_8961/m2m_wifi.o

.data.cfg_ateccx08a_i2c_custom
                0x008030d5       0x26 load address 0x0000a62b
 .data.cfg_ateccx08a_i2c_custom
                0x008030d5       0x26 dist/GOOGLE_IOT/production/__pa_temp_8961/crypto_client.o
                0x008030d5                cfg_ateccx08a_i2c_custom

.data.secureCfg
                0x00803121       0x26 load address 0x0000a651
 .data.secureCfg
                0x00803121       0x26 build/GOOGLE_IOT/production/mcc_generated_files/CryptoAuthenticationLibrary/CryptoAuth_init.o
                0x00803121                secureCfg

.data.I2C0_fsmStateTable
                0x00803147       0x24 load address 0x0000a677
 .data.I2C0_fsmStateTable
                0x00803147       0x24 dist/GOOGLE_IOT/production/__pa_temp_8961/twi0_master.o
                0x00803147                I2C0_fsmStateTable

.data.gacHttpProvDomainName.5231
                0x008031ac       0x15 load address 0x0000a69b
 .data.gacHttpProvDomainName.5231
                0x008031ac       0x15 dist/GOOGLE_IOT/production/__pa_temp_8961/wifi_service.o

.data.attDeviceID
                0x008031c1       0x14 load address 0x0000a6b0
 .data.attDeviceID
                0x008031c1       0x14 dist/GOOGLE_IOT/production/__pa_temp_8961/application_manager.o
                0x008031c1                attDeviceID

.data.debug_message_prefix
                0x008031d5       0x14 load address 0x0000a6c4
 .data.debug_message_prefix
                0x008031d5       0x14 dist/GOOGLE_IOT/production/__pa_temp_8961/debug_print.o

.data.cloudContext
                0x008031fb       0x10 load address 0x0000a6d8
 .data.cloudContext
                0x008031fb       0x10 dist/GOOGLE_IOT/production/__pa_temp_8961/cloud_service.o
                0x008031fb                cloudContext

.data.USART2_stream
                0x00803229        0xe load address 0x0000a6e8
 .data.USART2_stream
                0x00803229        0xe build/GOOGLE_IOT/production/mcc_generated_files/src/usart2.o
                0x00803229                USART2_stream

.data.CLI_task_timer
                0x00803244        0xa load address 0x0000a6f6
 .data.CLI_task_timer
                0x00803244        0xa dist/GOOGLE_IOT/production/__pa_temp_8961/cli.o
                0x00803244                CLI_task_timer

.data.cloudResetTaskTimer
                0x0080324e        0xa load address 0x0000a700
 .data.cloudResetTaskTimer
                0x0080324e        0xa dist/GOOGLE_IOT/production/__pa_temp_8961/cloud_service.o
                0x0080324e                cloudResetTaskTimer

.data.mqttTimeoutTaskTimer
                0x00803258        0xa load address 0x0000a70a
 .data.mqttTimeoutTaskTimer
                0x00803258        0xa dist/GOOGLE_IOT/production/__pa_temp_8961/cloud_service.o
                0x00803258                mqttTimeoutTaskTimer

.data.cloudTaskTimer
                0x00803262        0xa load address 0x0000a714
 .data.cloudTaskTimer
                0x00803262        0xa dist/GOOGLE_IOT/production/__pa_temp_8961/cloud_service.o
                0x00803262                cloudTaskTimer

.data.checkBackTimer
                0x0080326c        0xa load address 0x0000a71e
 .data.checkBackTimer
                0x0080326c        0xa dist/GOOGLE_IOT/production/__pa_temp_8961/wifi_service.o
                0x0080326c                checkBackTimer

.data.wifiHandlerTimer
                0x00803276        0xa load address 0x0000a728
 .data.wifiHandlerTimer
                0x00803276        0xa dist/GOOGLE_IOT/production/__pa_temp_8961/wifi_service.o
                0x00803276                wifiHandlerTimer

.data.ntpTimeFetchTimer
                0x00803280        0xa load address 0x0000a732
 .data.ntpTimeFetchTimer
                0x00803280        0xa dist/GOOGLE_IOT/production/__pa_temp_8961/wifi_service.o
                0x00803280                ntpTimeFetchTimer

.data.softApConnectTimer
                0x0080328a        0xa load address 0x0000a73c
 .data.softApConnectTimer
                0x0080328a        0xa dist/GOOGLE_IOT/production/__pa_temp_8961/wifi_service.o
                0x0080328a                softApConnectTimer

.data.dummy     0x00803294        0xa load address 0x0000a746
 .data.dummy    0x00803294        0xa dist/GOOGLE_IOT/production/__pa_temp_8961/timeout.o
                0x00803294                dummy

.data.unsubackTimer
                0x0080329e        0xa load address 0x0000a750
 .data.unsubackTimer
                0x0080329e        0xa dist/GOOGLE_IOT/production/__pa_temp_8961/mqtt_core.o
                0x0080329e                unsubackTimer

.data.subackTimer
                0x008032a8        0xa load address 0x0000a75a
 .data.subackTimer
                0x008032a8        0xa dist/GOOGLE_IOT/production/__pa_temp_8961/mqtt_core.o
                0x008032a8                subackTimer

.data.pingrespTimer
                0x008032b2        0xa load address 0x0000a764
 .data.pingrespTimer
                0x008032b2        0xa dist/GOOGLE_IOT/production/__pa_temp_8961/mqtt_core.o
                0x008032b2                pingrespTimer

.data.pingreqTimer
                0x008032bc        0xa load address 0x0000a76e
 .data.pingreqTimer
                0x008032bc        0xa dist/GOOGLE_IOT/production/__pa_temp_8961/mqtt_core.o
                0x008032bc                pingreqTimer

.data.connackTimer
                0x008032c6        0xa load address 0x0000a778
 .data.connackTimer
                0x008032c6        0xa dist/GOOGLE_IOT/production/__pa_temp_8961/mqtt_core.o
                0x008032c6                connackTimer

.data.MAIN_dataTasksTimer
                0x008032d0        0xa load address 0x0000a782
 .data.MAIN_dataTasksTimer
                0x008032d0        0xa dist/GOOGLE_IOT/production/__pa_temp_8961/application_manager.o
                0x008032d0                MAIN_dataTasksTimer

.data.LED_service_timer
                0x008032da        0xa load address 0x0000a78c
 .data.LED_service_timer
                0x008032da        0xa build/GOOGLE_IOT/production/mcc_generated_files/led.o

.data.lastAge.5664
                0x008032e4        0x4 load address 0x0000a796
 .data.lastAge.5664
                0x008032e4        0x4 dist/GOOGLE_IOT/production/__pa_temp_8961/cloud_service.o

.data.atcab_b64rules_urlsafe
                0x008032e8        0x4 load address 0x0000a79a
 .data.atcab_b64rules_urlsafe
                0x008032e8        0x4 dist/GOOGLE_IOT/production/__pa_temp_8961/atca_helpers.o
                0x008032e8                atcab_b64rules_urlsafe

.data.atcab_b64rules_default
                0x008032ec        0x4 load address 0x0000a79e
 .data.atcab_b64rules_default
                0x008032ec        0x4 dist/GOOGLE_IOT/production/__pa_temp_8961/atca_helpers.o
                0x008032ec                atcab_b64rules_default

.data.spi0_configurations
                0x008032f8        0x4 load address 0x0000a7a2
 .data.spi0_configurations
                0x008032f8        0x4 build/GOOGLE_IOT/production/mcc_generated_files/src/spi0.o
                0x008032f8                spi0_configurations

.data.USART2_tx_isr_cb
                0x00803340        0x2 load address 0x0000a7a6
 .data.USART2_tx_isr_cb
                0x00803340        0x2 build/GOOGLE_IOT/production/mcc_generated_files/src/usart2.o
                0x00803340                USART2_tx_isr_cb

.data.USART2_rx_isr_cb
                0x00803342        0x2 load address 0x0000a7a8
 .data.USART2_rx_isr_cb
                0x00803342        0x2 build/GOOGLE_IOT/production/mcc_generated_files/src/usart2.o
                0x00803342                USART2_rx_isr_cb

.data.bSPIBusError
                0x0080336a        0x1 load address 0x0000a7aa
 .data.bSPIBusError
                0x0080336a        0x1 dist/GOOGLE_IOT/production/__pa_temp_8961/winc_spi.o

.data.genuStatus
                0x0080336e        0x1 load address 0x0000a7ab
 .data.genuStatus
                0x0080336e        0x1 dist/GOOGLE_IOT/production/__pa_temp_8961/m2m_ssl.o

.data.ledStatus.5571
                0x00803377        0x1 load address 0x0000a7ac
 .data.ledStatus.5571
                0x00803377        0x1 build/GOOGLE_IOT/production/mcc_generated_files/led.o

.data.ledStatus.5585
                0x00803378        0x1 load address 0x0000a7ad
 .data.ledStatus.5585
                0x00803378        0x1 build/GOOGLE_IOT/production/mcc_generated_files/led.o

.data.ledStatus.5599
                0x00803379        0x1 load address 0x0000a7ae
 .data.ledStatus.5599
                0x00803379        0x1 build/GOOGLE_IOT/production/mcc_generated_files/led.o

.data.ledStatus.5557
                0x0080337a        0x1 load address 0x0000a7af
 .data.ledStatus.5557
                0x0080337a        0x1 build/GOOGLE_IOT/production/mcc_generated_files/led.o
